 wwtp3_sfun

 Timestamp is 6690f3e3 (Fri Jul 12 11:14:11 2024)

 Preferred load address is 0000000180000000

 Start         Length     Name                   Class
 0001:00000000 0007a120H .text$mn                CODE
 0001:0007a120 00000036H .text$mn$00             CODE
 0001:0007a156 00000092H .text$x                 CODE
 0002:00000000 000005c8H .idata$5                DATA
 0002:000005c8 00000028H .00cfg                  DATA
 0002:000005f0 00000008H .CRT$XCA                DATA
 0002:000005f8 00000008H .CRT$XCZ                DATA
 0002:00000600 00000008H .CRT$XIA                DATA
 0002:00000608 00000008H .CRT$XIZ                DATA
 0002:00000610 00000008H .CRT$XPA                DATA
 0002:00000618 00000008H .CRT$XPZ                DATA
 0002:00000620 00000008H .CRT$XTA                DATA
 0002:00000628 00000008H .CRT$XTZ                DATA
 0002:00000630 00000000H .gehcont$y              DATA
 0002:00000630 00000000H .gfids$y                DATA
 0002:00000630 000003d0H .rdata                  DATA
 0002:00000a00 00000008H .rdata$CastGuardVftablesA DATA
 0002:00000a08 00000008H .rdata$CastGuardVftablesC DATA
 0002:00000a10 00000260H .rdata$zzzdbg           DATA
 0002:00000c70 00000008H .rtc$IAA                DATA
 0002:00000c78 00000008H .rtc$IZZ                DATA
 0002:00000c80 00000008H .rtc$TAA                DATA
 0002:00000c88 00000008H .rtc$TZZ                DATA
 0002:00000c90 000016c0H .xdata                  DATA
 0002:00002350 00000074H .edata                  DATA
 0002:000023c4 00000118H .idata$2                DATA
 0002:000024dc 00000014H .idata$3                DATA
 0002:000024f0 000005c8H .idata$4                DATA
 0002:00002ab8 000010b6H .idata$6                DATA
 0003:00000000 0002ade0H .data                   DATA
 0003:0002ade0 00001270H .bss                    DATA
 0004:00000000 00001cb0H .pdata                  DATA

  Address         Publics by Value              Rva+Base               Lib:Object

 0000:00000000       __guard_fids_table         0000000000000000     <absolute>
 0000:00000000       __hybrid_auxiliary_iat_copy 0000000000000000     <absolute>
 0000:00000000       __hybrid_code_map          0000000000000000     <absolute>
 0000:00000000       __x64_code_ranges_to_entry_points_count 0000000000000000     <absolute>
 0000:00000000       __arm64x_extra_rfe_table   0000000000000000     <absolute>
 0000:00000000       __volatile_metadata        0000000000000000     <absolute>
 0000:00000000       __guard_fids_count         0000000000000000     <absolute>
 0000:00000000       __arm64x_extra_rfe_table_size 0000000000000000     <absolute>
 0000:00000000       __dynamic_value_reloc_table 0000000000000000     <absolute>
 0000:00000000       ___safe_se_handler_count   0000000000000000     <absolute>
 0000:00000000       __guard_longjmp_count      0000000000000000     <absolute>
 0000:00000000       __guard_iat_count          0000000000000000     <absolute>
 0000:00000000       __AbsoluteZero             0000000000000000     <absolute>
 0000:00000000       __guard_check_icall_a64n_fptr 0000000000000000     <absolute>
 0000:00000000       __hybrid_code_map_count    0000000000000000     <absolute>
 0000:00000000       ___safe_se_handler_table   0000000000000000     <absolute>
 0000:00000000       __x64_code_ranges_to_entry_points 0000000000000000     <absolute>
 0000:00000000       __hybrid_auxiliary_iat     0000000000000000     <absolute>
 0000:00000000       __guard_eh_cont_count      0000000000000000     <absolute>
 0000:00000000       __guard_longjmp_table      0000000000000000     <absolute>
 0000:00000000       __guard_iat_table          0000000000000000     <absolute>
 0000:00000000       __arm64x_redirection_metadata 0000000000000000     <absolute>
 0000:00000000       __arm64x_redirection_metadata_count 0000000000000000     <absolute>
 0000:00000000       __enclave_config           0000000000000000     <absolute>
 0000:00000000       __guard_eh_cont_table      0000000000000000     <absolute>
 0000:00000000       __arm64x_native_entrypoint 0000000000000000     <absolute>
 0000:00000100       __guard_flags              0000000000000100     <absolute>
 0000:00000000       __ImageBase                0000000180000000     <linker-defined>
 0001:00000000       wwtp3_initializer          0000000180001000 f   wwtp3_sfun.obj
 0001:00000010       wwtp3_terminator           0000000180001010 f   wwtp3_sfun.obj
 0001:00000020       load_wwtp3_optimization_info 0000000180001020 f   wwtp3_sfun.obj
 0001:000000d0       unload_wwtp3_optimization_info 00000001800010d0 f   wwtp3_sfun.obj
 0001:00000100       sf_wwtp3_method_dispatcher 0000000180001100 f   wwtp3_sfun.obj
 0001:00000170       sf_wwtp3_process_check_sum_call 0000000180001170 f   wwtp3_sfun.obj
 0001:00000680       sf_wwtp3_get_eml_resolved_functions_info 0000000180001680 f   wwtp3_sfun.obj
 0001:000008c0       sf_wwtp3_third_party_uses_info 00000001800018c0 f   wwtp3_sfun.obj
 0001:00000ac0       sf_wwtp3_jit_fallback_info 0000000180001ac0 f   wwtp3_sfun.obj
 0001:00000cc0       sf_wwtp3_get_post_codegen_info 0000000180001cc0 f   wwtp3_sfun.obj
 0001:00000ee0       sf_wwtp3_updateBuildInfo_args_info 0000000180001ee0 f   wwtp3_sfun.obj
 0001:000010e0       wwtp3_register_exported_symbols 00000001800020e0 f   wwtp3_sfun.obj
 0001:000010f0       sf_c2_wwtp3_get_eml_resolved_functions_info 00000001800020f0 f   c2_wwtp3.obj
 0001:00001170       sf_c2_wwtp3_get_check_sum  0000000180002170 f   c2_wwtp3.obj
 0001:00001240       c2_wwtp3_method_dispatcher 0000000180002240 f   c2_wwtp3.obj
 0001:00036a80       sf_c2_wwtp3_third_party_uses_info 0000000180037a80 f   c2_wwtp3.obj
 0001:00036b20       sf_c2_wwtp3_jit_fallback_info 0000000180037b20 f   c2_wwtp3.obj
 0001:00036cb0       sf_c2_wwtp3_updateBuildInfo_args_info 0000000180037cb0 f   c2_wwtp3.obj
 0001:00037070       sf_c2_wwtp3_get_post_codegen_info 0000000180038070 f   c2_wwtp3.obj
 0001:00037570       sf_c4_wwtp3_get_eml_resolved_functions_info 0000000180038570 f   c4_wwtp3.obj
 0001:000375f0       sf_c4_wwtp3_get_check_sum  00000001800385f0 f   c4_wwtp3.obj
 0001:000376c0       c4_wwtp3_method_dispatcher 00000001800386c0 f   c4_wwtp3.obj
 0001:0006d040       sf_c4_wwtp3_third_party_uses_info 000000018006e040 f   c4_wwtp3.obj
 0001:0006d0e0       sf_c4_wwtp3_jit_fallback_info 000000018006e0e0 f   c4_wwtp3.obj
 0001:0006d270       sf_c4_wwtp3_updateBuildInfo_args_info 000000018006e270 f   c4_wwtp3.obj
 0001:0006d630       sf_c4_wwtp3_get_post_codegen_info 000000018006e630 f   c4_wwtp3.obj
 0001:0006db20       mexFunction                000000018006eb20 f   wwtp3_sfun_registry.obj
 0001:000703f0       _ssSetInputPortDirectFeedThroughFcn 00000001800713f0 f   wwtp3_sfun_registry.obj
 0001:00070560       _ssSetRWorkValueFcn        0000000180071560 f   wwtp3_sfun_registry.obj
 0001:000705e0       _ssGetRWorkValueFcn        00000001800715e0 f   wwtp3_sfun_registry.obj
 0001:00070650       _ssSetIWorkValueFcn        0000000180071650 f   wwtp3_sfun_registry.obj
 0001:000706d0       _ssGetIWorkValueFcn        00000001800716d0 f   wwtp3_sfun_registry.obj
 0001:00070740       _ssSetPWorkValueFcn        0000000180071740 f   wwtp3_sfun_registry.obj
 0001:000707c0       _ssGetPWorkValueFcn        00000001800717c0 f   wwtp3_sfun_registry.obj
 0001:00070830       _ssGetInputPortSignalFcn   0000000180071830 f   wwtp3_sfun_registry.obj
 0001:00070bc0       _ssGetInputPortBufferDstPortFcn 0000000180071bc0 f   wwtp3_sfun_registry.obj
 0001:00070c40       _ssGetInputPortSignalPtrsFcn 0000000180071c40 f   wwtp3_sfun_registry.obj
 0001:00070fd0       ssGetParameterTuningCompliance 0000000180071fd0 f   wwtp3_sfun_registry.obj
 0001:00071040       _ssReadInputStringFcn      0000000180072040 f   wwtp3_sfun_registry.obj
 0001:000710b0       ssGetDTypeIdFromMxArray    00000001800720b0 f   wwtp3_sfun_registry.obj
 0001:000711d0       ssWriteRTWMx2dMatParam     00000001800721d0 f   wwtp3_sfun_registry.obj
 0001:00071260       ssWriteRTWMxVectParam      0000000180072260 f   wwtp3_sfun_registry.obj
 0001:000712e0       ssWriteRTWParameters       00000001800722e0 f   wwtp3_sfun_registry.obj
 0001:000718a0       ssWriteRTWParamSettings    00000001800728a0 f   wwtp3_sfun_registry.obj
 0001:00071f90       ssWriteRTWStr              0000000180072f90 f   wwtp3_sfun_registry.obj
 0001:00071ff0       ssWriteRTWWorkVect         0000000180072ff0 f   wwtp3_sfun_registry.obj
 0001:00072550       ssWarning                  0000000180073550 f   wwtp3_sfun_registry.obj
 0001:00072640       ssGetRootSS                0000000180073640 f   wwtp3_sfun_registry.obj
 0001:00072700       ssGetParentSS              0000000180073700 f   wwtp3_sfun_registry.obj
 0001:000727c0       ssWriteRTWNameValuePair    00000001800737c0 f   wwtp3_sfun_registry.obj
 0001:00072cc0       _ssSetInputPortMatrixDimensions 0000000180073cc0 f   wwtp3_sfun_registry.obj
 0001:00072e10       _ssSetOutputPortMatrixDimensions 0000000180073e10 f   wwtp3_sfun_registry.obj
 0001:00072f60       _ssSetInputPortVectorDimension 0000000180073f60 f   wwtp3_sfun_registry.obj
 0001:00073010       _ssSetOutputPortVectorDimension 0000000180074010 f   wwtp3_sfun_registry.obj
 0001:000730c0       ssIsRunTimeParamTunable    00000001800740c0 f   wwtp3_sfun_registry.obj
 0001:00073130       ssGetSFuncBlockHandle      0000000180074130 f   wwtp3_sfun_registry.obj
 0001:000731a0       _ssGetCallSystemNumFcnCallDestinations 00000001800741a0 f   wwtp3_sfun_registry.obj
 0001:00073210       _ssGetCurrentInputPortWidth 0000000180074210 f   wwtp3_sfun_registry.obj
 0001:00073350       _ssGetCurrentOutputPortWidth 0000000180074350 f   wwtp3_sfun_registry.obj
 0001:00073490       ssGetIsZeroCrossControlDisabled 0000000180074490 f   wwtp3_sfun_registry.obj
 0001:00073500       ssSetIsInputPortUsedForContZcSignal 0000000180074500 f   wwtp3_sfun_registry.obj
 0001:00073570       ssSetZcSignalIsZcElementDisc 0000000180074570 f   wwtp3_sfun_registry.obj
 0001:00073620       ssSetZcSignalName          0000000180074620 f   wwtp3_sfun_registry.obj
 0001:00073690       ssSetZcSignalWidth         0000000180074690 f   wwtp3_sfun_registry.obj
 0001:00073700       ssSetZcSignalZcEventType   0000000180074700 f   wwtp3_sfun_registry.obj
 0001:00073770       ssSetZcSignalType          0000000180074770 f   wwtp3_sfun_registry.obj
 0001:000737e0       ssSetZcSignalZcTol         00000001800747e0 f   wwtp3_sfun_registry.obj
 0001:00073850       ssSetZcSignalNeedsEventNotification 0000000180074850 f   wwtp3_sfun_registry.obj
 0001:000738c0       ssCreateAndAddZcSignalInfo 00000001800748c0 f   wwtp3_sfun_registry.obj
 0001:00073930       ssCloneAndAddZcSignalInfo  0000000180074930 f   wwtp3_sfun_registry.obj
 0001:000739a0       ssGetNumZcSignals          00000001800749a0 f   wwtp3_sfun_registry.obj
 0001:00073a10       ssGetZcSignalVector        0000000180074a10 f   wwtp3_sfun_registry.obj
 0001:00073a80       ssGetZcSignalName          0000000180074a80 f   wwtp3_sfun_registry.obj
 0001:00073af0       ssGetZcSignalWidth         0000000180074af0 f   wwtp3_sfun_registry.obj
 0001:00073b60       ssGetZcSignalZcEventType   0000000180074b60 f   wwtp3_sfun_registry.obj
 0001:00073bd0       ssGetZcSignalZcEvents      0000000180074bd0 f   wwtp3_sfun_registry.obj
 0001:00073c40       ssGetZcSignalType          0000000180074c40 f   wwtp3_sfun_registry.obj
 0001:00073cb0       ssGetZcSignalZcTol         0000000180074cb0 f   wwtp3_sfun_registry.obj
 0001:00073d30       ssGetZcSignalNeedsEventNotification 0000000180074d30 f   wwtp3_sfun_registry.obj
 0001:00073da0       ssGetZcSignalIsZcElementDisc 0000000180074da0 f   wwtp3_sfun_registry.obj
 0001:00073e40       ssGetIsInputPortElementContinuous 0000000180074e40 f   wwtp3_sfun_registry.obj
 0001:00073ee0       _ssGetAbsTol               0000000180074ee0 f   wwtp3_sfun_registry.obj
 0001:00073f50       _ssSetStateAbsTol          0000000180074f50 f   wwtp3_sfun_registry.obj
 0001:00074030       _ssSetInputPortReusableFcn 0000000180075030 f   wwtp3_sfun_registry.obj
 0001:00074130       _ssSetOutputPortReusableFcn 0000000180075130 f   wwtp3_sfun_registry.obj
 0001:00074230       _ssSetSymbolicDimsSupport  0000000180075230 f   wwtp3_sfun_registry.obj
 0001:000742a0       _ssRegisterSymbolicDimsExpr 00000001800752a0 f   wwtp3_sfun_registry.obj
 0001:00074320       _ssRegisterSymbolicDimsMATLABExpr 0000000180075320 f   wwtp3_sfun_registry.obj
 0001:000743b0       _ssRegisterSymbolicDims    00000001800753b0 f   wwtp3_sfun_registry.obj
 0001:00074450       _ssRegisterSymbolicDimsString 0000000180075450 f   wwtp3_sfun_registry.obj
 0001:000744d0       _ssRegisterSymbolicDimsIntValue 00000001800754d0 f   wwtp3_sfun_registry.obj
 0001:00074540       _ssRegisterSymbolicEqualRelation 0000000180075540 f   wwtp3_sfun_registry.obj
 0001:000745b0       _ssRegisterSymbolicEqualValue 00000001800755b0 f   wwtp3_sfun_registry.obj
 0001:00074620       _ssAmendLeadingSymbolicDims 0000000180075620 f   wwtp3_sfun_registry.obj
 0001:000746a0       _ssAmendTrailingSymbolicDims 00000001800756a0 f   wwtp3_sfun_registry.obj
 0001:00074720       _ssRegisterSymbolicDimsPlus 0000000180075720 f   wwtp3_sfun_registry.obj
 0001:000747a0       _ssRegisterSymbolicDimsMinus 00000001800757a0 f   wwtp3_sfun_registry.obj
 0001:00074820       _ssRegisterSymbolicDimsMultiply 0000000180075820 f   wwtp3_sfun_registry.obj
 0001:000748a0       _ssRegisterSymbolicDimsDivide 00000001800758a0 f   wwtp3_sfun_registry.obj
 0001:00074920       _ssGetNumSymbolicDims      0000000180075920 f   wwtp3_sfun_registry.obj
 0001:00074990       _ssGetSymbolicDim          0000000180075990 f   wwtp3_sfun_registry.obj
 0001:00074a10       _ssSetInputPortSymbolicDimsId 0000000180075a10 f   wwtp3_sfun_registry.obj
 0001:00074a80       _ssGetCompInputPortSymbolicDimsId 0000000180075a80 f   wwtp3_sfun_registry.obj
 0001:00074af0       _ssSetCompInputPortSymbolicDimsId 0000000180075af0 f   wwtp3_sfun_registry.obj
 0001:00074b60       _ssSetOutputPortSymbolicDimsId 0000000180075b60 f   wwtp3_sfun_registry.obj
 0001:00074bd0       _ssGetCompOutputPortSymbolicDimsId 0000000180075bd0 f   wwtp3_sfun_registry.obj
 0001:00074c40       _ssSetCompOutputPortSymbolicDimsId 0000000180075c40 f   wwtp3_sfun_registry.obj
 0001:00074cb0       _ssGetDWorkSymbolicDimsId  0000000180075cb0 f   wwtp3_sfun_registry.obj
 0001:00074d20       _ssSetDWorkSymbolicDimsId  0000000180075d20 f   wwtp3_sfun_registry.obj
 0001:00074d90       _ssGetCompDWorkSymbolicDimsId 0000000180075d90 f   wwtp3_sfun_registry.obj
 0001:00074e00       _ssSetCompDWorkSymbolicDimsId 0000000180075e00 f   wwtp3_sfun_registry.obj
 0001:00074e70       _ssCreateSLCGStringBuffer  0000000180075e70 f   wwtp3_sfun_registry.obj
 0001:00074ee0       _ssAddToSLCGStringBuffer   0000000180075ee0 f   wwtp3_sfun_registry.obj
 0001:00074f50       _ssGetPointerContainedData 0000000180075f50 f   wwtp3_sfun_registry.obj
 0001:00074fe0       _ssGetPointerContainedDataWidth 0000000180075fe0 f   wwtp3_sfun_registry.obj
 0001:00075070       _ssRegisterDynamicArrayDataTypeFcn 0000000180076070 f   wwtp3_sfun_registry.obj
 0001:00075110       _ssGetDynamicArrayContainedDataCurrentWidthFcn 0000000180076110 f   wwtp3_sfun_registry.obj
 0001:000751e0       _ssGetDynamicArrayContainedDataFcn 00000001800761e0 f   wwtp3_sfun_registry.obj
 0001:000752b0       _ssGetInputPortDynamicArrayDataFcn 00000001800762b0 f   wwtp3_sfun_registry.obj
 0001:00075370       _ssGetOutputPortDynamicArrayDataFcn 0000000180076370 f   wwtp3_sfun_registry.obj
 0001:00075430       _ssGetInputPortDynamicArrayContainedDataFcn 0000000180076430 f   wwtp3_sfun_registry.obj
 0001:000754f0       _ssGetOutputPortDynamicArrayContainedDataFcn 00000001800764f0 f   wwtp3_sfun_registry.obj
 0001:000755b0       _ssGetDynamicArrayDWorkContainedDataFcn 00000001800765b0 f   wwtp3_sfun_registry.obj
 0001:00075670       sf_process_check_sum_call  0000000180076670 f   wwtp3_sfun_registry.obj
 0001:000756c0       sf_process_get_third_party_uses_info_call 00000001800766c0 f   wwtp3_sfun_registry.obj
 0001:000758f0       sf_process_get_jit_fallback_info_call 00000001800768f0 f   wwtp3_sfun_registry.obj
 0001:00075b20       sf_process_get_post_codegen_info_call 0000000180076b20 f   wwtp3_sfun_registry.obj
 0001:00075d50       sf_process_get_updateBuildInfo_args_info_call 0000000180076d50 f   wwtp3_sfun_registry.obj
 0001:00075f80       sf_process_get_eml_resolved_functions_info_call 0000000180076f80 f   wwtp3_sfun_registry.obj
 0001:000761b0       sf_mex_unlock_call         00000001800771b0 f   wwtp3_sfun_registry.obj
 0001:000763d0       sf_machine_global_initializer_called 00000001800773d0 f   wwtp3_sfun_registry.obj
 0001:00076400       sf_machine_global_method_dispatcher 0000000180077400 f   wwtp3_sfun_registry.obj
 0001:00076460       sf_machine_global_terminator 0000000180077460 f   wwtp3_sfun_registry.obj
 0001:00076490       sf_register_machine_exported_symbols 0000000180077490 f   wwtp3_sfun_registry.obj
 0001:000764b0       callCustomFcn              00000001800774b0 f   wwtp3_sfun_registry.obj
 0001:000764c0       sf_machine_global_initializer 00000001800774c0 f   wwtp3_sfun_registry.obj
 0001:00076530       mdlGetSimState             0000000180077530 f   wwtp3_sfun_registry.obj
 0001:00076570       mdlSetSimState             0000000180077570 f   wwtp3_sfun_registry.obj
 0001:00076ee0       ProcessMexSfunctionEveryCall 0000000180077ee0 f   wwtp3_sfun_registry.obj
 0001:00078060       __local_stdio_printf_options 0000000180079060 f i wwtp3_sfun_registry.obj
 0001:00078070       _vsnprintf_l               0000000180079070 f i wwtp3_sfun_registry.obj
 0001:000780f0       _vsprintf_l                00000001800790f0 f i wwtp3_sfun_registry.obj
 0001:00078140       sprintf                    0000000180079140 f i wwtp3_sfun_registry.obj
 0001:00078190       mexfilerequiredapiversion  0000000180079190 f   c_mexapi_version.obj
 0001:000781c0       getBitfieldFromFloat       00000001800791c0 f   half_type.obj
 0001:000781f0       getFloatFromBitfield       00000001800791f0 f   half_type.obj
 0001:00078220       getBitfieldFromHalf        0000000180079220 f   half_type.obj
 0001:00078240       getHalfFromBitfield        0000000180079240 f   half_type.obj
 0001:00078270       halfToFloat                0000000180079270 f   half_type.obj
 0001:00078320       halfToDouble               0000000180079320 f   half_type.obj
 0001:00078350       floatToHalf                0000000180079350 f   half_type.obj
 0001:000785b0       doubleToHalf               00000001800795b0 f   half_type.obj
 0001:0007889c       coderChannelCreate         000000018007989c f   asynciocoder:asynciocoder.dll
 0001:000788a2       coderChannelInit           00000001800798a2 f   asynciocoder:asynciocoder.dll
 0001:000788a8       coderChannelOpen           00000001800798a8 f   asynciocoder:asynciocoder.dll
 0001:000788ae       coderChannelExecute        00000001800798ae f   asynciocoder:asynciocoder.dll
 0001:000788b4       coderChannelClose          00000001800798b4 f   asynciocoder:asynciocoder.dll
 0001:000788ba       coderChannelTerm           00000001800798ba f   asynciocoder:asynciocoder.dll
 0001:000788c0       coderChannelDestroy        00000001800798c0 f   asynciocoder:asynciocoder.dll
 0001:000788c6       coderChannelIsOpen         00000001800798c6 f   asynciocoder:asynciocoder.dll
 0001:000788cc       coderChannelGetPropertyValue 00000001800798cc f   asynciocoder:asynciocoder.dll
 0001:000788d2       coderChannelGetInputStream 00000001800798d2 f   asynciocoder:asynciocoder.dll
 0001:000788d8       coderChannelGetOutputStream 00000001800798d8 f   asynciocoder:asynciocoder.dll
 0001:000788de       coderChannelGetLastError   00000001800798de f   asynciocoder:asynciocoder.dll
 0001:000788e4       coderChannelHasSyncError   00000001800798e4 f   asynciocoder:asynciocoder.dll
 0001:000788ea       coderChannelGetLastSyncError 00000001800798ea f   asynciocoder:asynciocoder.dll
 0001:000788f0       coderStreamGetChannel      00000001800798f0 f   asynciocoder:asynciocoder.dll
 0001:000788f6       coderStreamIsDeviceDone    00000001800798f6 f   asynciocoder:asynciocoder.dll
 0001:000788fc       coderStreamIsOpen          00000001800798fc f   asynciocoder:asynciocoder.dll
 0001:00078902       coderStreamGetDataAvailable 0000000180079902 f   asynciocoder:asynciocoder.dll
 0001:00078908       coderStreamGetSpaceAvailable 0000000180079908 f   asynciocoder:asynciocoder.dll
 0001:0007890e       coderStreamFlush           000000018007990e f   asynciocoder:asynciocoder.dll
 0001:00078914       coderInputStreamPeek       0000000180079914 f   asynciocoder:asynciocoder.dll
 0001:0007891a       coderInputStreamReadBuffers 000000018007991a f   asynciocoder:asynciocoder.dll
 0001:00078920       coderInputStreamReadBufferData 0000000180079920 f   asynciocoder:asynciocoder.dll
 0001:00078926       coderInputStreamFreeBuffer 0000000180079926 f   asynciocoder:asynciocoder.dll
 0001:0007892c       coderOutputStreamWriteTypedDataOld 000000018007992c f   asynciocoder:asynciocoder.dll
 0001:00078932       sf_load_rtw_optimization_info 0000000180079932 f   sf_runtime:sf_runtime.dll
 0001:00078938       sf_mex_decode              0000000180079938 f   sf_runtime:sf_runtime.dll
 0001:0007893e       sf_init_ChartRunTimeInfo   000000018007993e f   sf_runtime:sf_runtime.dll
 0001:00078944       sf_free_ChartRunTimeInfo   0000000180079944 f   sf_runtime:sf_runtime.dll
 0001:0007894a       sf_reset_warnings_ChartRunTimeInfo 000000018007994a f   sf_runtime:sf_runtime.dll
 0001:00078950       sfrtGetEmlrtCtx            0000000180079950 f   sf_runtime:sf_runtime.dll
 0001:00078956       sfrtGetCovrtInstance       0000000180079956 f   sf_runtime:sf_runtime.dll
 0001:0007895c       sf_get_chart_instance_ptr  000000018007995c f   sf_runtime:sf_runtime.dll
 0001:00078962       sim_mode_is_rtw_gen        0000000180079962 f   sf_runtime:sf_runtime.dll
 0001:00078968       sim_mode_is_external       0000000180079968 f   sf_runtime:sf_runtime.dll
 0001:0007896e       sf_clear_rtw_identifier    000000018007996e f   sf_runtime:sf_runtime.dll
 0001:00078974       sf_get_time                0000000180079974 f   sf_runtime:sf_runtime.dll
 0001:0007897a       sfDoAnimationWrapper       000000018007997a f   sf_runtime:sf_runtime.dll
 0001:00078980       setDataBrowseFcn           0000000180079980 f   sf_runtime:sf_runtime.dll
 0001:00078986       setDebuggerFlag            0000000180079986 f   sf_runtime:sf_runtime.dll
 0001:0007898c       sf_warn_if_symbolic_dimension_param_changed 000000018007998c f   sf_runtime:sf_runtime.dll
 0001:00078992       sf_set_work_widths         0000000180079992 f   sf_runtime:sf_runtime.dll
 0001:00078998       sfListenerCacheSimStruct   0000000180079998 f   sf_runtime:sf_runtime.dll
 0001:0007899e       sfListenerLightTerminate   000000018007999e f   sf_runtime:sf_runtime.dll
 0001:000789a4       sfListenerInitializeRuntimeVars 00000001800799a4 f   sf_runtime:sf_runtime.dll
 0001:000789aa       sf_mex_call                00000001800799aa f   sf_runtime:sf_runtime.dll
 0001:000789b0       sf_mex_error_message       00000001800799b0 f   sf_runtime:sf_runtime.dll
 0001:000789b6       sf_mex_create_class_instance 00000001800799b6 f   sf_runtime:sf_runtime.dll
 0001:000789bc       sf_mex_set_all_properties  00000001800799bc f   sf_runtime:sf_runtime.dll
 0001:000789c2       sf_mex_convert_to_redirect_source 00000001800799c2 f   sf_runtime:sf_runtime.dll
 0001:000789c8       sf_mex_create              00000001800799c8 f   sf_runtime:sf_runtime.dll
 0001:000789ce       sf_mex_createcellmatrix    00000001800799ce f   sf_runtime:sf_runtime.dll
 0001:000789d4       sf_mex_setcell             00000001800799d4 f   sf_runtime:sf_runtime.dll
 0001:000789da       sf_mex_getcell             00000001800799da f   sf_runtime:sf_runtime.dll
 0001:000789e0       sf_mex_assign              00000001800799e0 f   sf_runtime:sf_runtime.dll
 0001:000789e6       sf_mex_dup                 00000001800799e6 f   sf_runtime:sf_runtime.dll
 0001:000789ec       sf_mex_destroy             00000001800799ec f   sf_runtime:sf_runtime.dll
 0001:000789f2       sf_mex_import              00000001800799f2 f   sf_runtime:sf_runtime.dll
 0001:000789f8       sf_mex_import_vs           00000001800799f8 f   sf_runtime:sf_runtime.dll
 0001:000789fe       sf_mex_get_dimension       00000001800799fe f   sf_runtime:sf_runtime.dll
 0001:00078a04       ssGetInputPortSignal_wrapper 0000000180079a04 f   sf_runtime:sf_runtime.dll
 0001:00078a0a       ssGetOutputPortSignal_wrapper 0000000180079a0a f   sf_runtime:sf_runtime.dll
 0001:00078a10       sf_get_ChartInfoStruct_CodeGen 0000000180079a10 f   sf_runtime:sf_runtime.dll
 0001:00078a16       sf_get_hasSeparateUpdateOutputs 0000000180079a16 f   sf_runtime:sf_runtime.dll
 0001:00078a1c       callMdlMethodAndReportError 0000000180079a1c f   sf_runtime:sf_runtime.dll
 0001:00078a22       call_sf_machine_global_method_dispatcher 0000000180079a22 f   sf_runtime:sf_runtime.dll
 0001:00078a28       getRuntimeInstanceInfoAsVoid 0000000180079a28 f   sf_runtime:sf_runtime.dll
 0001:00078a2e       sf_mex_error_direct_call   0000000180079a2e f   sf_runtime:sf_runtime.dll
 0001:00078a34       sf_clear_error_manager_info 0000000180079a34 f   sf_runtime:sf_runtime.dll
 0001:00078a3a       mxIsChar_800               0000000180079a3a f   libmx:libmx.dll
 0001:00078a40       mxGetScalar_800            0000000180079a40 f   libmx:libmx.dll
 0001:00078a46       mxGetPr_800                0000000180079a46 f   libmx:libmx.dll
 0001:00078a4c       mxDestroyArray_800         0000000180079a4c f   libmx:libmx.dll
 0001:00078a52       mxCreateDoubleMatrix_800   0000000180079a52 f   libmx:libmx.dll
 0001:00078a58       mxGetString_800            0000000180079a58 f   libmx:libmx.dll
 0001:00078a5e       mxDuplicateArray_800       0000000180079a5e f   libmx:libmx.dll
 0001:00078a64       mxSetCell_800              0000000180079a64 f   libmx:libmx.dll
 0001:00078a6a       mxSetField_800             0000000180079a6a f   libmx:libmx.dll
 0001:00078a70       mxCreateString_800         0000000180079a70 f   libmx:libmx.dll
 0001:00078a76       mxCreateCellMatrix_800     0000000180079a76 f   libmx:libmx.dll
 0001:00078a7c       mxCreateStructMatrix_800   0000000180079a7c f   libmx:libmx.dll
 0001:00078a82       mxGetInf_800               0000000180079a82 f   libmx:libmx.dll
 0001:00078a88       mxCalloc_800               0000000180079a88 f   libmx:libmx.dll
 0001:00078a8e       mxGetM_800                 0000000180079a8e f   libmx:libmx.dll
 0001:00078a94       mxGetClassID_800           0000000180079a94 f   libmx:libmx.dll
 0001:00078a9a       mxIsNumeric_800            0000000180079a9a f   libmx:libmx.dll
 0001:00078aa0       mxIsComplex_800            0000000180079aa0 f   libmx:libmx.dll
 0001:00078aa6       mxGetN_800                 0000000180079aa6 f   libmx:libmx.dll
 0001:00078aac       mxCreateDoubleScalar_800   0000000180079aac f   libmx:libmx.dll
 0001:00078ab2       mexMakeArrayPersistent_800 0000000180079ab2 f   libmex:libmex.dll
 0001:00078ab8       mexErrMsgTxt_800           0000000180079ab8 f   libmex:libmex.dll
 0001:00078abe       mexWarnMsgTxt_800          0000000180079abe f   libmex:libmex.dll
 0001:00078ac4       mexCallMATLAB_800          0000000180079ac4 f   libmex:libmex.dll
 0001:00078aca       mexLock_800                0000000180079aca f   libmex:libmex.dll
 0001:00078ad0       mexUnlock_800              0000000180079ad0 f   libmex:libmex.dll
 0001:00078ad6       mexIsLocked_800            0000000180079ad6 f   libmex:libmex.dll
 0001:00078adc       utMalloc                   0000000180079adc f   libut:libut.dll
 0001:00078ae2       utFree                     0000000180079ae2 f   libut:libut.dll
 0001:00078ae8       muDoubleScalarFloor        0000000180079ae8 f   libmwmathutil:libmwmathutil.dll
 0001:00078aee       muDoubleScalarRound        0000000180079aee f   libmwmathutil:libmwmathutil.dll
 0001:00078af4       muDoubleScalarMin          0000000180079af4 f   libmwmathutil:libmwmathutil.dll
 0001:00078afa       muIntScalarMax_sint32      0000000180079afa f   libmwmathutil:libmwmathutil.dll
 0001:00078b00       muDoubleScalarIsNaN        0000000180079b00 f   libmwmathutil:libmwmathutil.dll
 0001:00078b06       muDoubleScalarIsInf        0000000180079b06 f   libmwmathutil:libmwmathutil.dll
 0001:00078b0c       muDoubleScalarRem          0000000180079b0c f   libmwmathutil:libmwmathutil.dll
 0001:00078b12       emlrtLicenseCheckR2022a    0000000180079b12 f   libemlrt:libemlrt.dll
 0001:00078b18       emlrtDynamicBoundsCheckR2012b 0000000180079b18 f   libemlrt:libemlrt.dll
 0001:00078b1e       emlrtSizeMulR2012b         0000000180079b1e f   libemlrt:libemlrt.dll
 0001:00078b24       emlrtIntegerCheckR2012b    0000000180079b24 f   libemlrt:libemlrt.dll
 0001:00078b2a       emlrtNonNegativeCheckR2012b 0000000180079b2a f   libemlrt:libemlrt.dll
 0001:00078b30       emlrtForLoopVectorCheckR2021a 0000000180079b30 f   libemlrt:libemlrt.dll
 0001:00078b36       emlrtMallocMex             0000000180079b36 f   libemlrt:libemlrt.dll
 0001:00078b3c       emlrtCallocMex             0000000180079b3c f   libemlrt:libemlrt.dll
 0001:00078b42       emlrtFreeMex               0000000180079b42 f   libemlrt:libemlrt.dll
 0001:00078b48       emlrtHeapReferenceStackEnterFcnR2012b 0000000180079b48 f   libemlrt:libemlrt.dll
 0001:00078b4e       emlrtHeapReferenceStackLeaveFcnR2012b 0000000180079b4e f   libemlrt:libemlrt.dll
 0001:00078b54       emlrtPushHeapReferenceStackR2021a 0000000180079b54 f   libemlrt:libemlrt.dll
 0001:00078b5a       emlrtHeapAllocationErrorR2012b 0000000180079b5a f   libemlrt:libemlrt.dll
 0001:00078b60       emlrtClockGettimeMonotonic 0000000180079b60 f   libemlrt:libemlrt.dll
 0001:00078b66       covrtCreateStateflowInstanceData 0000000180079b66 f   libcovrt:libcovrt.dll
 0001:00078b6c       covrtDeleteStateflowInstanceData 0000000180079b6c f   libcovrt:libcovrt.dll
 0001:00078b72       covrtTransInitFcn          0000000180079b72 f   libcovrt:libcovrt.dll
 0001:00078b78       covrtStateInitFcn          0000000180079b78 f   libcovrt:libcovrt.dll
 0001:00078b7e       covrtChartInitFcn          0000000180079b7e f   libcovrt:libcovrt.dll
 0001:00078b84       covrtSaturationUpdateFcn   0000000180079b84 f   libcovrt:libcovrt.dll
 0001:00078b8a       covrtSigUpdateFcn          0000000180079b8a f   libcovrt:libcovrt.dll
 0001:00078b90       covrtEmlInitFcn            0000000180079b90 f   libcovrt:libcovrt.dll
 0001:00078b96       covrtEmlFcnInitFcn         0000000180079b96 f   libcovrt:libcovrt.dll
 0001:00078b9c       covrtEmlSaturationInitFcn  0000000180079b9c f   libcovrt:libcovrt.dll
 0001:00078ba2       covrtEmlFcnEval            0000000180079ba2 f   libcovrt:libcovrt.dll
 0001:00078ba8       __raise_securityfailure    0000000180079ba8 f   MSVCRT:gs_report.obj
 0001:00078bdc       __report_gsfailure         0000000180079bdc f   MSVCRT:gs_report.obj
 0001:00078cb0       __report_rangecheckfailure 0000000180079cb0 f   MSVCRT:gs_report.obj
 0001:00078cc4       __report_securityfailure   0000000180079cc4 f   MSVCRT:gs_report.obj
 0001:00078d60       __report_securityfailureEx 0000000180079d60 f   MSVCRT:gs_report.obj
 0001:00078f54       __GSHandlerCheck           0000000180079f54 f   MSVCRT:gshandler.obj
 0001:00078f74       __GSHandlerCheckCommon     0000000180079f74 f   MSVCRT:gshandler.obj
 0001:00078fe0       __security_check_cookie    0000000180079fe0 f   MSVCRT:amdsecgs.obj
 0001:00079020       __chkstk                   000000018007a020 f   MSVCRT:chkstk.obj
 0001:00079020       _alloca_probe              000000018007a020 f   MSVCRT:chkstk.obj
 0001:000793b0       _CRT_INIT                  000000018007a3b0 f   MSVCRT:dll_dllmain.obj
 0001:000793b8       _DllMainCRTStartup         000000018007a3b8 f   MSVCRT:dll_dllmain.obj
 0001:00079464       __security_init_cookie     000000018007a464 f   MSVCRT:gs_support.obj
 0001:00079510       DllMain                    000000018007a510 f   MSVCRT:dll_dllmain_stub.obj
 0001:00079534       ?__scrt_initialize_type_info@@YAXXZ 000000018007a534 f   MSVCRT:tncleanup.obj
 0001:00079544       ?__scrt_uninitialize_type_info@@YAXXZ 000000018007a544 f   MSVCRT:tncleanup.obj
 0001:00079550       __local_stdio_scanf_options 000000018007a550 f i MSVCRT:default_local_stdio_options.obj
 0001:00079558       __scrt_initialize_default_local_stdio_options 000000018007a558 f   MSVCRT:default_local_stdio_options.obj
 0001:00079574       ?configure_argv@__scrt_narrow_argv_policy@@SAHXZ 000000018007a574 f i MSVCRT:utility.obj
 0001:000795d4       ?initialize_environment@__scrt_narrow_environment_policy@@SAHXZ 000000018007a5d4 f i MSVCRT:utility.obj
 0001:0007960c       NtCurrentTeb               000000018007a60c f i MSVCRT:utility.obj
 0001:00079618       __scrt_acquire_startup_lock 000000018007a618 f   MSVCRT:utility.obj
 0001:00079654       __scrt_dllmain_after_initialize_c 000000018007a654 f   MSVCRT:utility.obj
 0001:00079688       __scrt_dllmain_before_initialize_c 000000018007a688 f   MSVCRT:utility.obj
 0001:000796a0       __scrt_dllmain_crt_thread_attach 000000018007a6a0 f   MSVCRT:utility.obj
 0001:000796c8       __scrt_dllmain_crt_thread_detach 000000018007a6c8 f   MSVCRT:utility.obj
 0001:000796e0       __scrt_dllmain_exception_filter 000000018007a6e0 f   MSVCRT:utility.obj
 0001:00079740       __scrt_dllmain_uninitialize_c 000000018007a740 f   MSVCRT:utility.obj
 0001:00079770       __scrt_dllmain_uninitialize_critical 000000018007a770 f   MSVCRT:utility.obj
 0001:00079784       __scrt_initialize_crt      000000018007a784 f   MSVCRT:utility.obj
 0001:000797d0       __scrt_initialize_onexit_tables 000000018007a7d0 f   MSVCRT:utility.obj
 0001:0007985c       __scrt_is_nonwritable_in_current_image 000000018007a85c f   MSVCRT:utility.obj
 0001:000798f4       __scrt_release_startup_lock 000000018007a8f4 f   MSVCRT:utility.obj
 0001:00079918       __scrt_uninitialize_crt    000000018007a918 f   MSVCRT:utility.obj
 0001:00079944       _onexit                    000000018007a944 f   MSVCRT:utility.obj
 0001:00079980       at_quick_exit              000000018007a980 f   MSVCRT:utility.obj
 0001:000799a0       atexit                     000000018007a9a0 f   MSVCRT:utility.obj
 0001:000799b8       __scrt_get_dyn_tls_init_callback 000000018007a9b8 f   MSVCRT:dyn_tls_init.obj
 0001:000799c0       __crt_debugger_hook        000000018007a9c0 f   MSVCRT:utility_desktop.obj
 0001:000799c8       __scrt_fastfail            000000018007a9c8 f   MSVCRT:utility_desktop.obj
 0001:00079b14       __scrt_get_show_window_mode 000000018007ab14 f   MSVCRT:utility_desktop.obj
 0001:00079b50       __scrt_initialize_mta      000000018007ab50 f   MSVCRT:utility_desktop.obj
 0001:00079b58       __scrt_initialize_winrt    000000018007ab58 f   MSVCRT:utility_desktop.obj
 0001:00079b5c       __scrt_is_managed_app      000000018007ab5c f   MSVCRT:utility_desktop.obj
 0001:00079bb0       __scrt_set_unhandled_exception_filter 000000018007abb0 f   MSVCRT:utility_desktop.obj
 0001:00079bc0       __scrt_stub_for_initialize_mta 000000018007abc0 f   MSVCRT:utility_desktop.obj
 0001:00079bc0       __scrt_exe_initialize_mta  000000018007abc0 f   MSVCRT:utility_desktop.obj
 0001:00079bc4       __scrt_unhandled_exception_filter 000000018007abc4 f   MSVCRT:utility_desktop.obj
 0001:00079c20       _RTC_Initialize            000000018007ac20 f   MSVCRT:initsect.obj
 0001:00079c5c       _RTC_Terminate             000000018007ac5c f   MSVCRT:initsect.obj
 0001:00079c98       _guard_check_icall_nop     000000018007ac98 f i MSVCRT:guard_support.obj
 0001:00079c9c       ReadNoFence64              000000018007ac9c f i MSVCRT:guard_support.obj
 0001:00079ca0       ReadPointerNoFence         000000018007aca0 f i MSVCRT:guard_support.obj
 0001:00079ca4       __castguard_check_failure_debugbreak 000000018007aca4 f i MSVCRT:guard_support.obj
 0001:00079cc0       __castguard_check_failure_fastfail 000000018007acc0 f i MSVCRT:guard_support.obj
 0001:00079ce4       __castguard_check_failure_nop 000000018007ace4 f i MSVCRT:guard_support.obj
 0001:00079ce8       __castguard_check_failure_os_handled 000000018007ace8 f i MSVCRT:guard_support.obj
 0001:00079d48       __castguard_slow_path_check_debugbreak 000000018007ad48 f i MSVCRT:guard_support.obj
 0001:00079d7c       __castguard_slow_path_check_fastfail 000000018007ad7c f i MSVCRT:guard_support.obj
 0001:00079db8       __castguard_slow_path_check_nop 000000018007adb8 f i MSVCRT:guard_support.obj
 0001:00079dbc       __castguard_slow_path_check_os_handled 000000018007adbc f i MSVCRT:guard_support.obj
 0001:00079e30       _guard_icall_checks_enforced 000000018007ae30 f i MSVCRT:guard_support.obj
 0001:00079e48       _guard_rf_checks_enforced  000000018007ae48 f i MSVCRT:guard_support.obj
 0001:00079e4c       __isa_available_init       000000018007ae4c f   MSVCRT:cpu_disp.obj
 0001:00079ff0       _get_startup_argv_mode     000000018007aff0 f   MSVCRT:argv_mode.obj
 0001:00079ff8       __scrt_is_ucrt_dll_in_use  000000018007aff8 f   MSVCRT:ucrt_detection.obj
 0001:0007a010       RtlCaptureContext          000000018007b010 f   kernel32:KERNEL32.dll
 0001:0007a016       RtlLookupFunctionEntry     000000018007b016 f   kernel32:KERNEL32.dll
 0001:0007a01c       RtlVirtualUnwind           000000018007b01c f   kernel32:KERNEL32.dll
 0001:0007a022       UnhandledExceptionFilter   000000018007b022 f   kernel32:KERNEL32.dll
 0001:0007a028       SetUnhandledExceptionFilter 000000018007b028 f   kernel32:KERNEL32.dll
 0001:0007a02e       GetCurrentProcess          000000018007b02e f   kernel32:KERNEL32.dll
 0001:0007a034       TerminateProcess           000000018007b034 f   kernel32:KERNEL32.dll
 0001:0007a03a       IsProcessorFeaturePresent  000000018007b03a f   kernel32:KERNEL32.dll
 0001:0007a040       QueryPerformanceCounter    000000018007b040 f   kernel32:KERNEL32.dll
 0001:0007a046       GetCurrentProcessId        000000018007b046 f   kernel32:KERNEL32.dll
 0001:0007a04c       GetCurrentThreadId         000000018007b04c f   kernel32:KERNEL32.dll
 0001:0007a052       GetSystemTimeAsFileTime    000000018007b052 f   kernel32:KERNEL32.dll
 0001:0007a058       DisableThreadLibraryCalls  000000018007b058 f   kernel32:KERNEL32.dll
 0001:0007a05e       InitializeSListHead        000000018007b05e f   kernel32:KERNEL32.dll
 0001:0007a064       IsDebuggerPresent          000000018007b064 f   kernel32:KERNEL32.dll
 0001:0007a06a       GetStartupInfoW            000000018007b06a f   kernel32:KERNEL32.dll
 0001:0007a070       GetModuleHandleW           000000018007b070 f   kernel32:KERNEL32.dll
 0001:0007a076       memcpy                     000000018007b076 f   vcruntime:VCRUNTIME140.dll
 0001:0007a07c       memset                     000000018007b07c f   vcruntime:VCRUNTIME140.dll
 0001:0007a082       __C_specific_handler       000000018007b082 f   vcruntime:VCRUNTIME140.dll
 0001:0007a088       __std_type_info_destroy_list 000000018007b088 f   vcruntime:VCRUNTIME140.dll
 0001:0007a08e       __current_exception        000000018007b08e f   vcruntime:VCRUNTIME140.dll
 0001:0007a094       __current_exception_context 000000018007b094 f   vcruntime:VCRUNTIME140.dll
 0001:0007a09a       strcmp                     000000018007b09a f   ucrt:api-ms-win-crt-string-l1-1-0.dll
 0001:0007a0a0       strcat                     000000018007b0a0 f   ucrt:api-ms-win-crt-string-l1-1-0.dll
 0001:0007a0a6       __stdio_common_vsprintf    000000018007b0a6 f   ucrt:api-ms-win-crt-stdio-l1-1-0.dll
 0001:0007a0ac       free                       000000018007b0ac f   ucrt:api-ms-win-crt-heap-l1-1-0.dll
 0001:0007a0b2       malloc                     000000018007b0b2 f   ucrt:api-ms-win-crt-heap-l1-1-0.dll
 0001:0007a0b8       strlen                     000000018007b0b8 f   ucrt:api-ms-win-crt-string-l1-1-0.dll
 0001:0007a0be       _initterm                  000000018007b0be f   ucrt:api-ms-win-crt-runtime-l1-1-0.dll
 0001:0007a0c4       _initterm_e                000000018007b0c4 f   ucrt:api-ms-win-crt-runtime-l1-1-0.dll
 0001:0007a0ca       _seh_filter_dll            000000018007b0ca f   ucrt:api-ms-win-crt-runtime-l1-1-0.dll
 0001:0007a0d0       _configure_narrow_argv     000000018007b0d0 f   ucrt:api-ms-win-crt-runtime-l1-1-0.dll
 0001:0007a0d6       _initialize_narrow_environment 000000018007b0d6 f   ucrt:api-ms-win-crt-runtime-l1-1-0.dll
 0001:0007a0dc       _initialize_onexit_table   000000018007b0dc f   ucrt:api-ms-win-crt-runtime-l1-1-0.dll
 0001:0007a0e2       _register_onexit_function  000000018007b0e2 f   ucrt:api-ms-win-crt-runtime-l1-1-0.dll
 0001:0007a0e8       _execute_onexit_table      000000018007b0e8 f   ucrt:api-ms-win-crt-runtime-l1-1-0.dll
 0001:0007a0ee       _crt_atexit                000000018007b0ee f   ucrt:api-ms-win-crt-runtime-l1-1-0.dll
 0001:0007a0f4       _crt_at_quick_exit         000000018007b0f4 f   ucrt:api-ms-win-crt-runtime-l1-1-0.dll
 0001:0007a0fa       _cexit                     000000018007b0fa f   ucrt:api-ms-win-crt-runtime-l1-1-0.dll
 0001:0007a100       terminate                  000000018007b100 f   ucrt:api-ms-win-crt-runtime-l1-1-0.dll
 0001:0007a108       __scrt_stub_for_acrt_initialize 000000018007b108 f   MSVCRT:ucrt_stubs.obj
 0001:0007a108       __acrt_initialize          000000018007b108 f   MSVCRT:ucrt_stubs.obj
 0001:0007a108       __vcrt_initialize          000000018007b108 f   MSVCRT:ucrt_stubs.obj
 0001:0007a10c       __vcrt_thread_attach       000000018007b10c f   MSVCRT:ucrt_stubs.obj
 0001:0007a10c       __scrt_stub_for_acrt_thread_attach 000000018007b10c f   MSVCRT:ucrt_stubs.obj
 0001:0007a10c       __acrt_thread_attach       000000018007b10c f   MSVCRT:ucrt_stubs.obj
 0001:0007a110       __scrt_stub_for_acrt_thread_detach 000000018007b110 f   MSVCRT:ucrt_stubs.obj
 0001:0007a110       __vcrt_thread_detach       000000018007b110 f   MSVCRT:ucrt_stubs.obj
 0001:0007a110       __acrt_thread_detach       000000018007b110 f   MSVCRT:ucrt_stubs.obj
 0001:0007a114       __scrt_stub_for_acrt_uninitialize 000000018007b114 f   MSVCRT:ucrt_stubs.obj
 0001:0007a114       __acrt_uninitialize        000000018007b114 f   MSVCRT:ucrt_stubs.obj
 0001:0007a114       __vcrt_uninitialize        000000018007b114 f   MSVCRT:ucrt_stubs.obj
 0001:0007a118       __vcrt_uninitialize_critical 000000018007b118 f   MSVCRT:ucrt_stubs.obj
 0001:0007a118       __scrt_stub_for_acrt_uninitialize_critical 000000018007b118 f   MSVCRT:ucrt_stubs.obj
 0001:0007a118       __acrt_uninitialize_critical 000000018007b118 f   MSVCRT:ucrt_stubs.obj
 0001:0007a11c       _is_c_termination_complete 000000018007b11c f   MSVCRT:ucrt_stubs.obj
 0001:0007a11c       __scrt_stub_for_is_c_termination_complete 000000018007b11c f   MSVCRT:ucrt_stubs.obj
 0001:0007a130       _guard_dispatch_icall_nop  000000018007b130 f   MSVCRT:guard_dispatch.obj
 0001:0007a150       _guard_xfg_dispatch_icall_nop 000000018007b150 f   MSVCRT:guard_xfg_dispatch.obj
 0002:00000000       __imp_RtlCaptureContext    000000018007c000     kernel32:KERNEL32.dll
 0002:00000008       __imp_RtlLookupFunctionEntry 000000018007c008     kernel32:KERNEL32.dll
 0002:00000010       __imp_RtlVirtualUnwind     000000018007c010     kernel32:KERNEL32.dll
 0002:00000018       __imp_UnhandledExceptionFilter 000000018007c018     kernel32:KERNEL32.dll
 0002:00000020       __imp_SetUnhandledExceptionFilter 000000018007c020     kernel32:KERNEL32.dll
 0002:00000028       __imp_GetCurrentProcess    000000018007c028     kernel32:KERNEL32.dll
 0002:00000030       __imp_TerminateProcess     000000018007c030     kernel32:KERNEL32.dll
 0002:00000038       __imp_IsProcessorFeaturePresent 000000018007c038     kernel32:KERNEL32.dll
 0002:00000040       __imp_QueryPerformanceCounter 000000018007c040     kernel32:KERNEL32.dll
 0002:00000048       __imp_GetCurrentProcessId  000000018007c048     kernel32:KERNEL32.dll
 0002:00000050       __imp_GetCurrentThreadId   000000018007c050     kernel32:KERNEL32.dll
 0002:00000058       __imp_GetSystemTimeAsFileTime 000000018007c058     kernel32:KERNEL32.dll
 0002:00000060       __imp_DisableThreadLibraryCalls 000000018007c060     kernel32:KERNEL32.dll
 0002:00000068       __imp_InitializeSListHead  000000018007c068     kernel32:KERNEL32.dll
 0002:00000070       __imp_IsDebuggerPresent    000000018007c070     kernel32:KERNEL32.dll
 0002:00000078       __imp_GetStartupInfoW      000000018007c078     kernel32:KERNEL32.dll
 0002:00000080       __imp_GetModuleHandleW     000000018007c080     kernel32:KERNEL32.dll
 0002:00000088       \177KERNEL32_NULL_THUNK_DATA 000000018007c088     kernel32:KERNEL32.dll
 0002:00000090       __imp_memcpy               000000018007c090     vcruntime:VCRUNTIME140.dll
 0002:00000098       __imp_memset               000000018007c098     vcruntime:VCRUNTIME140.dll
 0002:000000a0       __imp___C_specific_handler 000000018007c0a0     vcruntime:VCRUNTIME140.dll
 0002:000000a8       __imp___std_type_info_destroy_list 000000018007c0a8     vcruntime:VCRUNTIME140.dll
 0002:000000b0       __imp___current_exception  000000018007c0b0     vcruntime:VCRUNTIME140.dll
 0002:000000b8       __imp___current_exception_context 000000018007c0b8     vcruntime:VCRUNTIME140.dll
 0002:000000c0       \177VCRUNTIME140_NULL_THUNK_DATA 000000018007c0c0     vcruntime:VCRUNTIME140.dll
 0002:000000c8       __imp_free                 000000018007c0c8     ucrt:api-ms-win-crt-heap-l1-1-0.dll
 0002:000000d0       __imp_malloc               000000018007c0d0     ucrt:api-ms-win-crt-heap-l1-1-0.dll
 0002:000000d8       \177api-ms-win-crt-heap-l1-1-0_NULL_THUNK_DATA 000000018007c0d8     ucrt:api-ms-win-crt-heap-l1-1-0.dll
 0002:000000e0       __imp_terminate            000000018007c0e0     ucrt:api-ms-win-crt-runtime-l1-1-0.dll
 0002:000000e8       __imp__cexit               000000018007c0e8     ucrt:api-ms-win-crt-runtime-l1-1-0.dll
 0002:000000f0       __imp__crt_at_quick_exit   000000018007c0f0     ucrt:api-ms-win-crt-runtime-l1-1-0.dll
 0002:000000f8       __imp__crt_atexit          000000018007c0f8     ucrt:api-ms-win-crt-runtime-l1-1-0.dll
 0002:00000100       __imp__execute_onexit_table 000000018007c100     ucrt:api-ms-win-crt-runtime-l1-1-0.dll
 0002:00000108       __imp__register_onexit_function 000000018007c108     ucrt:api-ms-win-crt-runtime-l1-1-0.dll
 0002:00000110       __imp__initialize_onexit_table 000000018007c110     ucrt:api-ms-win-crt-runtime-l1-1-0.dll
 0002:00000118       __imp__initialize_narrow_environment 000000018007c118     ucrt:api-ms-win-crt-runtime-l1-1-0.dll
 0002:00000120       __imp__configure_narrow_argv 000000018007c120     ucrt:api-ms-win-crt-runtime-l1-1-0.dll
 0002:00000128       __imp__seh_filter_dll      000000018007c128     ucrt:api-ms-win-crt-runtime-l1-1-0.dll
 0002:00000130       __imp__initterm_e          000000018007c130     ucrt:api-ms-win-crt-runtime-l1-1-0.dll
 0002:00000138       __imp__initterm            000000018007c138     ucrt:api-ms-win-crt-runtime-l1-1-0.dll
 0002:00000140       \177api-ms-win-crt-runtime-l1-1-0_NULL_THUNK_DATA 000000018007c140     ucrt:api-ms-win-crt-runtime-l1-1-0.dll
 0002:00000148       __imp___stdio_common_vsprintf 000000018007c148     ucrt:api-ms-win-crt-stdio-l1-1-0.dll
 0002:00000150       \177api-ms-win-crt-stdio-l1-1-0_NULL_THUNK_DATA 000000018007c150     ucrt:api-ms-win-crt-stdio-l1-1-0.dll
 0002:00000158       __imp_strlen               000000018007c158     ucrt:api-ms-win-crt-string-l1-1-0.dll
 0002:00000160       __imp_strcat               000000018007c160     ucrt:api-ms-win-crt-string-l1-1-0.dll
 0002:00000168       __imp_strcmp               000000018007c168     ucrt:api-ms-win-crt-string-l1-1-0.dll
 0002:00000170       \177api-ms-win-crt-string-l1-1-0_NULL_THUNK_DATA 000000018007c170     ucrt:api-ms-win-crt-string-l1-1-0.dll
 0002:00000178       __imp_coderInputStreamFreeBuffer 000000018007c178     asynciocoder:asynciocoder.dll
 0002:00000180       __imp_coderInputStreamReadBufferData 000000018007c180     asynciocoder:asynciocoder.dll
 0002:00000188       __imp_coderInputStreamReadBuffers 000000018007c188     asynciocoder:asynciocoder.dll
 0002:00000190       __imp_coderInputStreamPeek 000000018007c190     asynciocoder:asynciocoder.dll
 0002:00000198       __imp_coderStreamFlush     000000018007c198     asynciocoder:asynciocoder.dll
 0002:000001a0       __imp_coderStreamGetSpaceAvailable 000000018007c1a0     asynciocoder:asynciocoder.dll
 0002:000001a8       __imp_coderStreamGetDataAvailable 000000018007c1a8     asynciocoder:asynciocoder.dll
 0002:000001b0       __imp_coderStreamIsOpen    000000018007c1b0     asynciocoder:asynciocoder.dll
 0002:000001b8       __imp_coderOutputStreamWriteTypedDataOld 000000018007c1b8     asynciocoder:asynciocoder.dll
 0002:000001c0       __imp_coderStreamGetChannel 000000018007c1c0     asynciocoder:asynciocoder.dll
 0002:000001c8       __imp_coderChannelGetLastSyncError 000000018007c1c8     asynciocoder:asynciocoder.dll
 0002:000001d0       __imp_coderChannelHasSyncError 000000018007c1d0     asynciocoder:asynciocoder.dll
 0002:000001d8       __imp_coderChannelGetLastError 000000018007c1d8     asynciocoder:asynciocoder.dll
 0002:000001e0       __imp_coderChannelGetOutputStream 000000018007c1e0     asynciocoder:asynciocoder.dll
 0002:000001e8       __imp_coderChannelGetInputStream 000000018007c1e8     asynciocoder:asynciocoder.dll
 0002:000001f0       __imp_coderChannelGetPropertyValue 000000018007c1f0     asynciocoder:asynciocoder.dll
 0002:000001f8       __imp_coderChannelIsOpen   000000018007c1f8     asynciocoder:asynciocoder.dll
 0002:00000200       __imp_coderChannelDestroy  000000018007c200     asynciocoder:asynciocoder.dll
 0002:00000208       __imp_coderChannelTerm     000000018007c208     asynciocoder:asynciocoder.dll
 0002:00000210       __imp_coderChannelClose    000000018007c210     asynciocoder:asynciocoder.dll
 0002:00000218       __imp_coderChannelExecute  000000018007c218     asynciocoder:asynciocoder.dll
 0002:00000220       __imp_coderChannelOpen     000000018007c220     asynciocoder:asynciocoder.dll
 0002:00000228       __imp_coderChannelInit     000000018007c228     asynciocoder:asynciocoder.dll
 0002:00000230       __imp_coderStreamIsDeviceDone 000000018007c230     asynciocoder:asynciocoder.dll
 0002:00000238       __imp_coderChannelCreate   000000018007c238     asynciocoder:asynciocoder.dll
 0002:00000240       \177asynciocoder_NULL_THUNK_DATA 000000018007c240     asynciocoder:asynciocoder.dll
 0002:00000248       __imp_covrtTransInitFcn    000000018007c248     libcovrt:libcovrt.dll
 0002:00000250       __imp_covrtDeleteStateflowInstanceData 000000018007c250     libcovrt:libcovrt.dll
 0002:00000258       __imp_covrtEmlFcnEval      000000018007c258     libcovrt:libcovrt.dll
 0002:00000260       __imp_covrtEmlSaturationInitFcn 000000018007c260     libcovrt:libcovrt.dll
 0002:00000268       __imp_covrtEmlFcnInitFcn   000000018007c268     libcovrt:libcovrt.dll
 0002:00000270       __imp_covrtEmlInitFcn      000000018007c270     libcovrt:libcovrt.dll
 0002:00000278       __imp_covrtSigUpdateFcn    000000018007c278     libcovrt:libcovrt.dll
 0002:00000280       __imp_covrtSaturationUpdateFcn 000000018007c280     libcovrt:libcovrt.dll
 0002:00000288       __imp_covrtChartInitFcn    000000018007c288     libcovrt:libcovrt.dll
 0002:00000290       __imp_covrtStateInitFcn    000000018007c290     libcovrt:libcovrt.dll
 0002:00000298       __imp_covrtCreateStateflowInstanceData 000000018007c298     libcovrt:libcovrt.dll
 0002:000002a0       \177libcovrt_NULL_THUNK_DATA 000000018007c2a0     libcovrt:libcovrt.dll
 0002:000002a8       __imp_emlrtDynamicBoundsCheckR2012b 000000018007c2a8     libemlrt:libemlrt.dll
 0002:000002b0       __imp_emlrtSizeMulR2012b   000000018007c2b0     libemlrt:libemlrt.dll
 0002:000002b8       __imp_emlrtClockGettimeMonotonic 000000018007c2b8     libemlrt:libemlrt.dll
 0002:000002c0       __imp_emlrtHeapAllocationErrorR2012b 000000018007c2c0     libemlrt:libemlrt.dll
 0002:000002c8       __imp_emlrtPushHeapReferenceStackR2021a 000000018007c2c8     libemlrt:libemlrt.dll
 0002:000002d0       __imp_emlrtHeapReferenceStackLeaveFcnR2012b 000000018007c2d0     libemlrt:libemlrt.dll
 0002:000002d8       __imp_emlrtHeapReferenceStackEnterFcnR2012b 000000018007c2d8     libemlrt:libemlrt.dll
 0002:000002e0       __imp_emlrtFreeMex         000000018007c2e0     libemlrt:libemlrt.dll
 0002:000002e8       __imp_emlrtIntegerCheckR2012b 000000018007c2e8     libemlrt:libemlrt.dll
 0002:000002f0       __imp_emlrtNonNegativeCheckR2012b 000000018007c2f0     libemlrt:libemlrt.dll
 0002:000002f8       __imp_emlrtForLoopVectorCheckR2021a 000000018007c2f8     libemlrt:libemlrt.dll
 0002:00000300       __imp_emlrtMallocMex       000000018007c300     libemlrt:libemlrt.dll
 0002:00000308       __imp_emlrtCallocMex       000000018007c308     libemlrt:libemlrt.dll
 0002:00000310       __imp_emlrtLicenseCheckR2022a 000000018007c310     libemlrt:libemlrt.dll
 0002:00000318       \177libemlrt_NULL_THUNK_DATA 000000018007c318     libemlrt:libemlrt.dll
 0002:00000320       __imp_mexCallMATLAB_800    000000018007c320     libmex:libmex.dll
 0002:00000328       __imp_mexWarnMsgTxt_800    000000018007c328     libmex:libmex.dll
 0002:00000330       __imp_mexErrMsgTxt_800     000000018007c330     libmex:libmex.dll
 0002:00000338       __imp_mexLock_800          000000018007c338     libmex:libmex.dll
 0002:00000340       __imp_mexUnlock_800        000000018007c340     libmex:libmex.dll
 0002:00000348       __imp_mexMakeArrayPersistent_800 000000018007c348     libmex:libmex.dll
 0002:00000350       __imp_mexIsLocked_800      000000018007c350     libmex:libmex.dll
 0002:00000358       \177libmex_NULL_THUNK_DATA 000000018007c358     libmex:libmex.dll
 0002:00000360       __imp_muDoubleScalarIsInf  000000018007c360     libmwmathutil:libmwmathutil.dll
 0002:00000368       __imp_muDoubleScalarRem    000000018007c368     libmwmathutil:libmwmathutil.dll
 0002:00000370       __imp_muDoubleScalarFloor  000000018007c370     libmwmathutil:libmwmathutil.dll
 0002:00000378       __imp_muIntScalarMax_sint32 000000018007c378     libmwmathutil:libmwmathutil.dll
 0002:00000380       __imp_muDoubleScalarMin    000000018007c380     libmwmathutil:libmwmathutil.dll
 0002:00000388       __imp_muDoubleScalarRound  000000018007c388     libmwmathutil:libmwmathutil.dll
 0002:00000390       __imp_muDoubleScalarIsNaN  000000018007c390     libmwmathutil:libmwmathutil.dll
 0002:00000398       \177libmwmathutil_NULL_THUNK_DATA 000000018007c398     libmwmathutil:libmwmathutil.dll
 0002:000003a0       __imp_mxDestroyArray_800   000000018007c3a0     libmx:libmx.dll
 0002:000003a8       __imp_mxGetScalar_800      000000018007c3a8     libmx:libmx.dll
 0002:000003b0       __imp_mxGetPr_800          000000018007c3b0     libmx:libmx.dll
 0002:000003b8       __imp_mxIsChar_800         000000018007c3b8     libmx:libmx.dll
 0002:000003c0       __imp_mxCreateDoubleMatrix_800 000000018007c3c0     libmx:libmx.dll
 0002:000003c8       __imp_mxCreateDoubleScalar_800 000000018007c3c8     libmx:libmx.dll
 0002:000003d0       __imp_mxGetN_800           000000018007c3d0     libmx:libmx.dll
 0002:000003d8       __imp_mxIsComplex_800      000000018007c3d8     libmx:libmx.dll
 0002:000003e0       __imp_mxIsNumeric_800      000000018007c3e0     libmx:libmx.dll
 0002:000003e8       __imp_mxGetClassID_800     000000018007c3e8     libmx:libmx.dll
 0002:000003f0       __imp_mxGetM_800           000000018007c3f0     libmx:libmx.dll
 0002:000003f8       __imp_mxCalloc_800         000000018007c3f8     libmx:libmx.dll
 0002:00000400       __imp_mxGetInf_800         000000018007c400     libmx:libmx.dll
 0002:00000408       __imp_mxCreateStructMatrix_800 000000018007c408     libmx:libmx.dll
 0002:00000410       __imp_mxCreateCellMatrix_800 000000018007c410     libmx:libmx.dll
 0002:00000418       __imp_mxCreateString_800   000000018007c418     libmx:libmx.dll
 0002:00000420       __imp_mxSetField_800       000000018007c420     libmx:libmx.dll
 0002:00000428       __imp_mxSetCell_800        000000018007c428     libmx:libmx.dll
 0002:00000430       __imp_mxDuplicateArray_800 000000018007c430     libmx:libmx.dll
 0002:00000438       __imp_mxGetString_800      000000018007c438     libmx:libmx.dll
 0002:00000440       \177libmx_NULL_THUNK_DATA  000000018007c440     libmx:libmx.dll
 0002:00000448       __imp_utMalloc             000000018007c448     libut:libut.dll
 0002:00000450       __imp_utFree               000000018007c450     libut:libut.dll
 0002:00000458       \177libut_NULL_THUNK_DATA  000000018007c458     libut:libut.dll
 0002:00000460       __imp_sf_mex_error_direct_call 000000018007c460     sf_runtime:sf_runtime.dll
 0002:00000468       __imp_call_sf_machine_global_method_dispatcher 000000018007c468     sf_runtime:sf_runtime.dll
 0002:00000470       __imp_callMdlMethodAndReportError 000000018007c470     sf_runtime:sf_runtime.dll
 0002:00000478       __imp_sf_get_hasSeparateUpdateOutputs 000000018007c478     sf_runtime:sf_runtime.dll
 0002:00000480       __imp_sf_get_ChartInfoStruct_CodeGen 000000018007c480     sf_runtime:sf_runtime.dll
 0002:00000488       __imp_getRuntimeInstanceInfoAsVoid 000000018007c488     sf_runtime:sf_runtime.dll
 0002:00000490       __imp_sf_clear_error_manager_info 000000018007c490     sf_runtime:sf_runtime.dll
 0002:00000498       __imp_ssGetInputPortSignal_wrapper 000000018007c498     sf_runtime:sf_runtime.dll
 0002:000004a0       __imp_sf_mex_get_dimension 000000018007c4a0     sf_runtime:sf_runtime.dll
 0002:000004a8       __imp_sf_mex_import_vs     000000018007c4a8     sf_runtime:sf_runtime.dll
 0002:000004b0       __imp_sf_mex_import        000000018007c4b0     sf_runtime:sf_runtime.dll
 0002:000004b8       __imp_sf_mex_destroy       000000018007c4b8     sf_runtime:sf_runtime.dll
 0002:000004c0       __imp_sf_mex_dup           000000018007c4c0     sf_runtime:sf_runtime.dll
 0002:000004c8       __imp_sf_mex_assign        000000018007c4c8     sf_runtime:sf_runtime.dll
 0002:000004d0       __imp_sf_mex_getcell       000000018007c4d0     sf_runtime:sf_runtime.dll
 0002:000004d8       __imp_sf_mex_setcell       000000018007c4d8     sf_runtime:sf_runtime.dll
 0002:000004e0       __imp_sf_mex_createcellmatrix 000000018007c4e0     sf_runtime:sf_runtime.dll
 0002:000004e8       __imp_sf_mex_create        000000018007c4e8     sf_runtime:sf_runtime.dll
 0002:000004f0       __imp_sf_mex_convert_to_redirect_source 000000018007c4f0     sf_runtime:sf_runtime.dll
 0002:000004f8       __imp_sf_mex_set_all_properties 000000018007c4f8     sf_runtime:sf_runtime.dll
 0002:00000500       __imp_sf_mex_create_class_instance 000000018007c500     sf_runtime:sf_runtime.dll
 0002:00000508       __imp_sf_mex_error_message 000000018007c508     sf_runtime:sf_runtime.dll
 0002:00000510       __imp_sf_mex_call          000000018007c510     sf_runtime:sf_runtime.dll
 0002:00000518       __imp_sfListenerInitializeRuntimeVars 000000018007c518     sf_runtime:sf_runtime.dll
 0002:00000520       __imp_sfListenerLightTerminate 000000018007c520     sf_runtime:sf_runtime.dll
 0002:00000528       __imp_sfListenerCacheSimStruct 000000018007c528     sf_runtime:sf_runtime.dll
 0002:00000530       __imp_sf_set_work_widths   000000018007c530     sf_runtime:sf_runtime.dll
 0002:00000538       __imp_sf_warn_if_symbolic_dimension_param_changed 000000018007c538     sf_runtime:sf_runtime.dll
 0002:00000540       __imp_setDebuggerFlag      000000018007c540     sf_runtime:sf_runtime.dll
 0002:00000548       __imp_setDataBrowseFcn     000000018007c548     sf_runtime:sf_runtime.dll
 0002:00000550       __imp_sfDoAnimationWrapper 000000018007c550     sf_runtime:sf_runtime.dll
 0002:00000558       __imp_sf_get_time          000000018007c558     sf_runtime:sf_runtime.dll
 0002:00000560       __imp_sf_clear_rtw_identifier 000000018007c560     sf_runtime:sf_runtime.dll
 0002:00000568       __imp_sim_mode_is_external 000000018007c568     sf_runtime:sf_runtime.dll
 0002:00000570       __imp_sim_mode_is_rtw_gen  000000018007c570     sf_runtime:sf_runtime.dll
 0002:00000578       __imp_sf_get_chart_instance_ptr 000000018007c578     sf_runtime:sf_runtime.dll
 0002:00000580       __imp_sfrtGetCovrtInstance 000000018007c580     sf_runtime:sf_runtime.dll
 0002:00000588       __imp_sfrtGetEmlrtCtx      000000018007c588     sf_runtime:sf_runtime.dll
 0002:00000590       __imp_sf_reset_warnings_ChartRunTimeInfo 000000018007c590     sf_runtime:sf_runtime.dll
 0002:00000598       __imp_sf_free_ChartRunTimeInfo 000000018007c598     sf_runtime:sf_runtime.dll
 0002:000005a0       __imp_sf_init_ChartRunTimeInfo 000000018007c5a0     sf_runtime:sf_runtime.dll
 0002:000005a8       __imp_sf_mex_decode        000000018007c5a8     sf_runtime:sf_runtime.dll
 0002:000005b0       __imp_sf_load_rtw_optimization_info 000000018007c5b0     sf_runtime:sf_runtime.dll
 0002:000005b8       __imp_ssGetOutputPortSignal_wrapper 000000018007c5b8     sf_runtime:sf_runtime.dll
 0002:000005c0       \177sf_runtime_NULL_THUNK_DATA 000000018007c5c0     sf_runtime:sf_runtime.dll
 0002:000005c8       __guard_check_icall_fptr   000000018007c5c8     MSVCRT:guard_support.obj
 0002:000005d0       __guard_xfg_check_icall_fptr 000000018007c5d0     MSVCRT:guard_support.obj
 0002:000005d8       __guard_dispatch_icall_fptr 000000018007c5d8     MSVCRT:guard_support.obj
 0002:000005e0       __guard_xfg_dispatch_icall_fptr 000000018007c5e0     MSVCRT:guard_support.obj
 0002:000005e8       __guard_xfg_table_dispatch_icall_fptr 000000018007c5e8     MSVCRT:guard_support.obj
 0002:000005f0       __xc_a                     000000018007c5f0     MSVCRT:initializers.obj
 0002:000005f8       __xc_z                     000000018007c5f8     MSVCRT:initializers.obj
 0002:00000600       __xi_a                     000000018007c600     MSVCRT:initializers.obj
 0002:00000608       __xi_z                     000000018007c608     MSVCRT:initializers.obj
 0002:00000610       __xp_a                     000000018007c610     MSVCRT:initializers.obj
 0002:00000618       __xp_z                     000000018007c618     MSVCRT:initializers.obj
 0002:00000620       __xt_a                     000000018007c620     MSVCRT:initializers.obj
 0002:00000628       __xt_z                     000000018007c628     MSVCRT:initializers.obj
 0002:00000630       __real@41cebe7443800000    000000018007c630     wwtp3_sfun.obj
 0002:00000638       __real@41d0daa001000000    000000018007c638     wwtp3_sfun.obj
 0002:00000640       __real@41e23748cd600000    000000018007c640     wwtp3_sfun.obj
 0002:00000648       __real@41e5dcbd47400000    000000018007c648     wwtp3_sfun.obj
 0002:00000650       __real@41e625cf12000000    000000018007c650     wwtp3_sfun.obj
 0002:00000658       __real@41e85b21b2000000    000000018007c658     wwtp3_sfun.obj
 0002:00000660       __real@41e9ff1bb2200000    000000018007c660     wwtp3_sfun.obj
 0002:00000668       __real@41eba5ed82800000    000000018007c668     wwtp3_sfun.obj
 0002:00000670       __real@41ec040f54a00000    000000018007c670     wwtp3_sfun.obj
 0002:00000678       __real@41ec1a1e0de00000    000000018007c678     wwtp3_sfun.obj
 0002:00000680       __real@41ecfca157800000    000000018007c680     wwtp3_sfun.obj
 0002:00000688       __real@41ed865f7e400000    000000018007c688     wwtp3_sfun.obj
 0002:00000698       __real@0000000000000000    000000018007c698     c2_wwtp3.obj
 0002:000006a0       __real@3f60624dd2f1a9fc    000000018007c6a0     c2_wwtp3.obj
 0002:000006a8       __real@3f747ae147ae147b    000000018007c6a8     c2_wwtp3.obj
 0002:000006b0       __real@3f847ae147ae147b    000000018007c6b0     c2_wwtp3.obj
 0002:000006b8       __real@3ff0000000000000    000000018007c6b8     c2_wwtp3.obj
 0002:000006c0       __real@4000000000000000    000000018007c6c0     c2_wwtp3.obj
 0002:000006c8       __real@4008000000000000    000000018007c6c8     c2_wwtp3.obj
 0002:000006d0       __real@4010000000000000    000000018007c6d0     c2_wwtp3.obj
 0002:000006d8       __real@4014000000000000    000000018007c6d8     c2_wwtp3.obj
 0002:000006e0       __real@4018000000000000    000000018007c6e0     c2_wwtp3.obj
 0002:000006e8       __real@401c000000000000    000000018007c6e8     c2_wwtp3.obj
 0002:000006f0       __real@4020000000000000    000000018007c6f0     c2_wwtp3.obj
 0002:000006f8       __real@4022000000000000    000000018007c6f8     c2_wwtp3.obj
 0002:00000700       __real@4024000000000000    000000018007c700     c2_wwtp3.obj
 0002:00000708       __real@4026000000000000    000000018007c708     c2_wwtp3.obj
 0002:00000710       __real@4028000000000000    000000018007c710     c2_wwtp3.obj
 0002:00000718       __real@402a000000000000    000000018007c718     c2_wwtp3.obj
 0002:00000720       __real@4054000000000000    000000018007c720     c2_wwtp3.obj
 0002:00000728       __real@405f400000000000    000000018007c728     c2_wwtp3.obj
 0002:00000730       __real@405fc00000000000    000000018007c730     c2_wwtp3.obj
 0002:00000738       __real@4070000000000000    000000018007c738     c2_wwtp3.obj
 0002:00000740       __real@40b39c0000000000    000000018007c740     c2_wwtp3.obj
 0002:00000748       __real@40efffe000000000    000000018007c748     c2_wwtp3.obj
 0002:00000750       __real@40f0000000000000    000000018007c750     c2_wwtp3.obj
 0002:00000758       __real@4199efd9b8000000    000000018007c758     c2_wwtp3.obj
 0002:00000760       __real@41c918abeb000000    000000018007c760     c2_wwtp3.obj
 0002:00000768       __real@41cdcd6500000000    000000018007c768     c2_wwtp3.obj
 0002:00000770       __real@41d7912f6cc00000    000000018007c770     c2_wwtp3.obj
 0002:00000778       __real@41dfffffffc00000    000000018007c778     c2_wwtp3.obj
 0002:00000780       __real@41e206f9a6a00000    000000018007c780     c2_wwtp3.obj
 0002:00000788       __real@41f0000000000000    000000018007c788     c2_wwtp3.obj
 0002:00000790       __real@43e0000000000000    000000018007c790     c2_wwtp3.obj
 0002:00000798       __real@bff0000000000000    000000018007c798     c2_wwtp3.obj
 0002:000007a0       __real@c1e0000000000000    000000018007c7a0     c2_wwtp3.obj
 0002:000007b0       __real@402e000000000000    000000018007c7b0     c4_wwtp3.obj
 0002:000007b8       __real@41ccba4469800000    000000018007c7b8     c4_wwtp3.obj
 0002:000007c0       __real@41d70646a2000000    000000018007c7c0     c4_wwtp3.obj
 0002:000007c8       __real@41d9cb97a2400000    000000018007c7c8     c4_wwtp3.obj
 0002:000007d0       __real@41db059f12800000    000000018007c7d0     c4_wwtp3.obj
 0002:000007d8       DYNAMIC_DIMENSION_DEF      000000018007c7d8     wwtp3_sfun_registry.obj
 0002:000007f0       __real@41602cbca0000000    000000018007c7f0     wwtp3_sfun_registry.obj
 0002:000007f8       __real@77800000            000000018007c7f8     half_type.obj
 0002:00000810       _pRawDllMain               000000018007c810     MSVCRT:dll_dllmain.obj
 0002:00000810       _pDefaultRawDllMain        000000018007c810     MSVCRT:dll_dllmain.obj
 0002:00000820       __xmm@ffffffffffffffffffffffffffffffff 000000018007c820     MSVCRT:utility.obj
 0002:00000850       _load_config_used          000000018007c850     MSVCRT:loadcfg.obj
 0002:00000a00       __CastGuardVftablesStart   000000018007ca00     MSVCRT:guard_support.obj
 0002:00000a08       __CastGuardVftablesEnd     000000018007ca08     MSVCRT:guard_support.obj
 0002:00000c70       __rtc_iaa                  000000018007cc70     MSVCRT:initsect.obj
 0002:00000c78       __rtc_izz                  000000018007cc78     MSVCRT:initsect.obj
 0002:00000c80       __rtc_taa                  000000018007cc80     MSVCRT:initsect.obj
 0002:00000c88       __rtc_tzz                  000000018007cc88     MSVCRT:initsect.obj
 0002:000023c4       __IMPORT_DESCRIPTOR_asynciocoder 000000018007e3c4     asynciocoder:asynciocoder.dll
 0002:000023d8       __IMPORT_DESCRIPTOR_sf_runtime 000000018007e3d8     sf_runtime:sf_runtime.dll
 0002:000023ec       __IMPORT_DESCRIPTOR_libmx  000000018007e3ec     libmx:libmx.dll
 0002:00002400       __IMPORT_DESCRIPTOR_libmex 000000018007e400     libmex:libmex.dll
 0002:00002414       __IMPORT_DESCRIPTOR_libut  000000018007e414     libut:libut.dll
 0002:00002428       __IMPORT_DESCRIPTOR_libmwmathutil 000000018007e428     libmwmathutil:libmwmathutil.dll
 0002:0000243c       __IMPORT_DESCRIPTOR_libemlrt 000000018007e43c     libemlrt:libemlrt.dll
 0002:00002450       __IMPORT_DESCRIPTOR_libcovrt 000000018007e450     libcovrt:libcovrt.dll
 0002:00002464       __IMPORT_DESCRIPTOR_KERNEL32 000000018007e464     kernel32:KERNEL32.dll
 0002:00002478       __IMPORT_DESCRIPTOR_VCRUNTIME140 000000018007e478     vcruntime:VCRUNTIME140.dll
 0002:0000248c       __IMPORT_DESCRIPTOR_api-ms-win-crt-string-l1-1-0 000000018007e48c     ucrt:api-ms-win-crt-string-l1-1-0.dll
 0002:000024a0       __IMPORT_DESCRIPTOR_api-ms-win-crt-stdio-l1-1-0 000000018007e4a0     ucrt:api-ms-win-crt-stdio-l1-1-0.dll
 0002:000024b4       __IMPORT_DESCRIPTOR_api-ms-win-crt-heap-l1-1-0 000000018007e4b4     ucrt:api-ms-win-crt-heap-l1-1-0.dll
 0002:000024c8       __IMPORT_DESCRIPTOR_api-ms-win-crt-runtime-l1-1-0 000000018007e4c8     ucrt:api-ms-win-crt-runtime-l1-1-0.dll
 0002:000024dc       __NULL_IMPORT_DESCRIPTOR   000000018007e4dc     asynciocoder:asynciocoder.dll
 0003:000287e0       DYNAMIC_DIMENSION          00000001800a87e0     wwtp3_sfun_registry.obj
 0003:0002ad90       __security_cookie_complement 00000001800aad90     MSVCRT:gs_cookie.obj
 0003:0002ad98       __security_cookie          00000001800aad98     MSVCRT:gs_cookie.obj
 0003:0002ada0       _fltused                   00000001800aada0     MSVCRT:fltused.obj
 0003:0002adb0       __scrt_native_dllmain_reason 00000001800aadb0     MSVCRT:utility.obj
 0003:0002adb8       __isa_available            00000001800aadb8     MSVCRT:cpu_disp.obj
 0003:0002adbc       __isa_enabled              00000001800aadbc     MSVCRT:cpu_disp.obj
 0003:0002adc0       __memcpy_nt_iters          00000001800aadc0     MSVCRT:cpu_disp.obj
 0003:0002adc8       __memset_nt_iters          00000001800aadc8     MSVCRT:cpu_disp.obj
 0003:0002add0       __scrt_ucrt_dll_is_in_use  00000001800aadd0     MSVCRT:ucrt_stubs.obj
 0003:0002bfc0       ?__type_info_root_node@@3U__type_info_node@@A 00000001800abfc0     MSVCRT:tncleanup.obj
 0003:0002bfd0       ?_OptionsStorage@?1??__local_stdio_printf_options@@9@4_KA 00000001800abfd0     MSVCRT:default_local_stdio_options.obj
 0003:0002bfd8       ?_OptionsStorage@?1??__local_stdio_scanf_options@@9@4_KA 00000001800abfd8     MSVCRT:default_local_stdio_options.obj
 0003:0002bfe0       __scrt_current_native_startup_state 00000001800abfe0     MSVCRT:utility.obj
 0003:0002bfe8       __scrt_native_startup_lock 00000001800abfe8     MSVCRT:utility.obj
 0003:0002c028       __scrt_debugger_hook_flag  00000001800ac028     MSVCRT:utility_desktop.obj
 0003:0002c030       __castguard_check_failure_os_handled_fptr 00000001800ac030     MSVCRT:guard_support.obj
 0003:0002c038       __favor                    00000001800ac038     MSVCRT:cpu_disp.obj
 0003:0002c040       ?_OptionsStorage@?1??__local_stdio_printf_options@@9@9 00000001800ac040     <common>
 0003:0002c048       __dyn_tls_init_callback    00000001800ac048     <common>

 entry point at        0001:000793b8

 Static symbols

 0000:00000000       .debug$S                   0000000180000000     wwtp3_sfun.exp
 0002:fff84000       __guard_ehcont_?dllmain_dispatch@@YAHQEAUHINSTANCE__@@KQEAX@Z 0000000180000000     MSVCRT:dll_dllmain.obj
 0002:fff84000       __guard_fids_?dllmain_dispatch@@YAHQEAUHINSTANCE__@@KQEAX@Z 0000000180000000     MSVCRT:dll_dllmain.obj
 0002:fff84000       __guard_fids__             0000000180000000     MSVCRT:guard_support.obj
 0002:fff84000       __guard_fids__             0000000180000000     MSVCRT:guard_support.obj
 0002:fff84000       __guard_fids__guard_icall_checks_enforced 0000000180000000     MSVCRT:guard_support.obj
 0002:fff84000       __guard_ehcont___scrt_is_nonwritable_in_current_image 0000000180000000     MSVCRT:utility.obj
 0002:fff84000       __guard_fids___scrt_set_unhandled_exception_filter 0000000180000000     MSVCRT:utility_desktop.obj
 0000:00000000       .debug$S                   0000000180000000     vcruntime:VCRUNTIME140.dll
 0000:00000000       .debug$S                   0000000180000000     vcruntime:VCRUNTIME140.dll
 0000:00000000       .debug$S                   0000000180000000     vcruntime:VCRUNTIME140.dll
 0000:00000000       .debug$S                   0000000180000000     vcruntime:VCRUNTIME140.dll
 0000:00000000       .debug$S                   0000000180000000     vcruntime:VCRUNTIME140.dll
 0000:00000000       .debug$S                   0000000180000000     vcruntime:VCRUNTIME140.dll
 0000:00000000       .debug$S                   0000000180000000     ucrt:api-ms-win-crt-heap-l1-1-0.dll
 0000:00000000       .debug$S                   0000000180000000     ucrt:api-ms-win-crt-heap-l1-1-0.dll
 0000:00000000       .debug$S                   0000000180000000     ucrt:api-ms-win-crt-runtime-l1-1-0.dll
 0000:00000000       .debug$S                   0000000180000000     ucrt:api-ms-win-crt-runtime-l1-1-0.dll
 0000:00000000       .debug$S                   0000000180000000     ucrt:api-ms-win-crt-runtime-l1-1-0.dll
 0000:00000000       .debug$S                   0000000180000000     ucrt:api-ms-win-crt-runtime-l1-1-0.dll
 0000:00000000       .debug$S                   0000000180000000     ucrt:api-ms-win-crt-runtime-l1-1-0.dll
 0000:00000000       .debug$S                   0000000180000000     ucrt:api-ms-win-crt-runtime-l1-1-0.dll
 0000:00000000       .debug$S                   0000000180000000     ucrt:api-ms-win-crt-runtime-l1-1-0.dll
 0000:00000000       .debug$S                   0000000180000000     ucrt:api-ms-win-crt-runtime-l1-1-0.dll
 0000:00000000       .debug$S                   0000000180000000     ucrt:api-ms-win-crt-runtime-l1-1-0.dll
 0000:00000000       .debug$S                   0000000180000000     ucrt:api-ms-win-crt-runtime-l1-1-0.dll
 0000:00000000       .debug$S                   0000000180000000     ucrt:api-ms-win-crt-runtime-l1-1-0.dll
 0000:00000000       .debug$S                   0000000180000000     ucrt:api-ms-win-crt-runtime-l1-1-0.dll
 0000:00000000       .debug$S                   0000000180000000     ucrt:api-ms-win-crt-stdio-l1-1-0.dll
 0000:00000000       .debug$S                   0000000180000000     ucrt:api-ms-win-crt-string-l1-1-0.dll
 0000:00000000       .debug$S                   0000000180000000     ucrt:api-ms-win-crt-string-l1-1-0.dll
 0000:00000000       .debug$S                   0000000180000000     ucrt:api-ms-win-crt-string-l1-1-0.dll
 0000:00000000       .debug$S                   0000000180000000     kernel32:KERNEL32.dll
 0000:00000000       .debug$S                   0000000180000000     kernel32:KERNEL32.dll
 0000:00000000       .debug$S                   0000000180000000     kernel32:KERNEL32.dll
 0000:00000000       .debug$S                   0000000180000000     kernel32:KERNEL32.dll
 0000:00000000       .debug$S                   0000000180000000     kernel32:KERNEL32.dll
 0000:00000000       .debug$S                   0000000180000000     kernel32:KERNEL32.dll
 0000:00000000       .debug$S                   0000000180000000     kernel32:KERNEL32.dll
 0000:00000000       .debug$S                   0000000180000000     kernel32:KERNEL32.dll
 0000:00000000       .debug$S                   0000000180000000     kernel32:KERNEL32.dll
 0000:00000000       .debug$S                   0000000180000000     kernel32:KERNEL32.dll
 0000:00000000       .debug$S                   0000000180000000     kernel32:KERNEL32.dll
 0000:00000000       .debug$S                   0000000180000000     kernel32:KERNEL32.dll
 0000:00000000       .debug$S                   0000000180000000     kernel32:KERNEL32.dll
 0000:00000000       .debug$S                   0000000180000000     kernel32:KERNEL32.dll
 0000:00000000       .debug$S                   0000000180000000     kernel32:KERNEL32.dll
 0000:00000000       .debug$S                   0000000180000000     kernel32:KERNEL32.dll
 0000:00000000       .debug$S                   0000000180000000     kernel32:KERNEL32.dll
 0000:00000000       .debug$S                   0000000180000000     asynciocoder:asynciocoder.dll
 0000:00000000       .debug$S                   0000000180000000     asynciocoder:asynciocoder.dll
 0000:00000000       .debug$S                   0000000180000000     asynciocoder:asynciocoder.dll
 0000:00000000       .debug$S                   0000000180000000     asynciocoder:asynciocoder.dll
 0000:00000000       .debug$S                   0000000180000000     asynciocoder:asynciocoder.dll
 0000:00000000       .debug$S                   0000000180000000     asynciocoder:asynciocoder.dll
 0000:00000000       .debug$S                   0000000180000000     asynciocoder:asynciocoder.dll
 0000:00000000       .debug$S                   0000000180000000     asynciocoder:asynciocoder.dll
 0000:00000000       .debug$S                   0000000180000000     asynciocoder:asynciocoder.dll
 0000:00000000       .debug$S                   0000000180000000     asynciocoder:asynciocoder.dll
 0000:00000000       .debug$S                   0000000180000000     asynciocoder:asynciocoder.dll
 0000:00000000       .debug$S                   0000000180000000     asynciocoder:asynciocoder.dll
 0000:00000000       .debug$S                   0000000180000000     asynciocoder:asynciocoder.dll
 0000:00000000       .debug$S                   0000000180000000     asynciocoder:asynciocoder.dll
 0000:00000000       .debug$S                   0000000180000000     asynciocoder:asynciocoder.dll
 0000:00000000       .debug$S                   0000000180000000     asynciocoder:asynciocoder.dll
 0000:00000000       .debug$S                   0000000180000000     asynciocoder:asynciocoder.dll
 0000:00000000       .debug$S                   0000000180000000     asynciocoder:asynciocoder.dll
 0000:00000000       .debug$S                   0000000180000000     asynciocoder:asynciocoder.dll
 0000:00000000       .debug$S                   0000000180000000     asynciocoder:asynciocoder.dll
 0000:00000000       .debug$S                   0000000180000000     asynciocoder:asynciocoder.dll
 0000:00000000       .debug$S                   0000000180000000     asynciocoder:asynciocoder.dll
 0000:00000000       .debug$S                   0000000180000000     asynciocoder:asynciocoder.dll
 0000:00000000       .debug$S                   0000000180000000     asynciocoder:asynciocoder.dll
 0000:00000000       .debug$S                   0000000180000000     asynciocoder:asynciocoder.dll
 0000:00000000       .debug$S                   0000000180000000     libcovrt:libcovrt.dll
 0000:00000000       .debug$S                   0000000180000000     libcovrt:libcovrt.dll
 0000:00000000       .debug$S                   0000000180000000     libcovrt:libcovrt.dll
 0000:00000000       .debug$S                   0000000180000000     libcovrt:libcovrt.dll
 0000:00000000       .debug$S                   0000000180000000     libcovrt:libcovrt.dll
 0000:00000000       .debug$S                   0000000180000000     libcovrt:libcovrt.dll
 0000:00000000       .debug$S                   0000000180000000     libcovrt:libcovrt.dll
 0000:00000000       .debug$S                   0000000180000000     libcovrt:libcovrt.dll
 0000:00000000       .debug$S                   0000000180000000     libcovrt:libcovrt.dll
 0000:00000000       .debug$S                   0000000180000000     libcovrt:libcovrt.dll
 0000:00000000       .debug$S                   0000000180000000     libcovrt:libcovrt.dll
 0000:00000000       .debug$S                   0000000180000000     libemlrt:libemlrt.dll
 0000:00000000       .debug$S                   0000000180000000     libemlrt:libemlrt.dll
 0000:00000000       .debug$S                   0000000180000000     libemlrt:libemlrt.dll
 0000:00000000       .debug$S                   0000000180000000     libemlrt:libemlrt.dll
 0000:00000000       .debug$S                   0000000180000000     libemlrt:libemlrt.dll
 0000:00000000       .debug$S                   0000000180000000     libemlrt:libemlrt.dll
 0000:00000000       .debug$S                   0000000180000000     libemlrt:libemlrt.dll
 0000:00000000       .debug$S                   0000000180000000     libemlrt:libemlrt.dll
 0000:00000000       .debug$S                   0000000180000000     libemlrt:libemlrt.dll
 0000:00000000       .debug$S                   0000000180000000     libemlrt:libemlrt.dll
 0000:00000000       .debug$S                   0000000180000000     libemlrt:libemlrt.dll
 0000:00000000       .debug$S                   0000000180000000     libemlrt:libemlrt.dll
 0000:00000000       .debug$S                   0000000180000000     libemlrt:libemlrt.dll
 0000:00000000       .debug$S                   0000000180000000     libemlrt:libemlrt.dll
 0000:00000000       .debug$S                   0000000180000000     libmex:libmex.dll
 0000:00000000       .debug$S                   0000000180000000     libmex:libmex.dll
 0000:00000000       .debug$S                   0000000180000000     libmex:libmex.dll
 0000:00000000       .debug$S                   0000000180000000     libmex:libmex.dll
 0000:00000000       .debug$S                   0000000180000000     libmex:libmex.dll
 0000:00000000       .debug$S                   0000000180000000     libmex:libmex.dll
 0000:00000000       .debug$S                   0000000180000000     libmex:libmex.dll
 0000:00000000       .debug$S                   0000000180000000     libmwmathutil:libmwmathutil.dll
 0000:00000000       .debug$S                   0000000180000000     libmwmathutil:libmwmathutil.dll
 0000:00000000       .debug$S                   0000000180000000     libmwmathutil:libmwmathutil.dll
 0000:00000000       .debug$S                   0000000180000000     libmwmathutil:libmwmathutil.dll
 0000:00000000       .debug$S                   0000000180000000     libmwmathutil:libmwmathutil.dll
 0000:00000000       .debug$S                   0000000180000000     libmwmathutil:libmwmathutil.dll
 0000:00000000       .debug$S                   0000000180000000     libmwmathutil:libmwmathutil.dll
 0000:00000000       .debug$S                   0000000180000000     libmx:libmx.dll
 0000:00000000       .debug$S                   0000000180000000     libmx:libmx.dll
 0000:00000000       .debug$S                   0000000180000000     libmx:libmx.dll
 0000:00000000       .debug$S                   0000000180000000     libmx:libmx.dll
 0000:00000000       .debug$S                   0000000180000000     libmx:libmx.dll
 0000:00000000       .debug$S                   0000000180000000     libmx:libmx.dll
 0000:00000000       .debug$S                   0000000180000000     libmx:libmx.dll
 0000:00000000       .debug$S                   0000000180000000     libmx:libmx.dll
 0000:00000000       .debug$S                   0000000180000000     libmx:libmx.dll
 0000:00000000       .debug$S                   0000000180000000     libmx:libmx.dll
 0000:00000000       .debug$S                   0000000180000000     libmx:libmx.dll
 0000:00000000       .debug$S                   0000000180000000     libmx:libmx.dll
 0000:00000000       .debug$S                   0000000180000000     libmx:libmx.dll
 0000:00000000       .debug$S                   0000000180000000     libmx:libmx.dll
 0000:00000000       .debug$S                   0000000180000000     libmx:libmx.dll
 0000:00000000       .debug$S                   0000000180000000     libmx:libmx.dll
 0000:00000000       .debug$S                   0000000180000000     libmx:libmx.dll
 0000:00000000       .debug$S                   0000000180000000     libmx:libmx.dll
 0000:00000000       .debug$S                   0000000180000000     libmx:libmx.dll
 0000:00000000       .debug$S                   0000000180000000     libmx:libmx.dll
 0000:00000000       .debug$S                   0000000180000000     libut:libut.dll
 0000:00000000       .debug$S                   0000000180000000     libut:libut.dll
 0000:00000000       .debug$S                   0000000180000000     sf_runtime:sf_runtime.dll
 0000:00000000       .debug$S                   0000000180000000     sf_runtime:sf_runtime.dll
 0000:00000000       .debug$S                   0000000180000000     sf_runtime:sf_runtime.dll
 0000:00000000       .debug$S                   0000000180000000     sf_runtime:sf_runtime.dll
 0000:00000000       .debug$S                   0000000180000000     sf_runtime:sf_runtime.dll
 0000:00000000       .debug$S                   0000000180000000     sf_runtime:sf_runtime.dll
 0000:00000000       .debug$S                   0000000180000000     sf_runtime:sf_runtime.dll
 0000:00000000       .debug$S                   0000000180000000     sf_runtime:sf_runtime.dll
 0000:00000000       .debug$S                   0000000180000000     sf_runtime:sf_runtime.dll
 0000:00000000       .debug$S                   0000000180000000     sf_runtime:sf_runtime.dll
 0000:00000000       .debug$S                   0000000180000000     sf_runtime:sf_runtime.dll
 0000:00000000       .debug$S                   0000000180000000     sf_runtime:sf_runtime.dll
 0000:00000000       .debug$S                   0000000180000000     sf_runtime:sf_runtime.dll
 0000:00000000       .debug$S                   0000000180000000     sf_runtime:sf_runtime.dll
 0000:00000000       .debug$S                   0000000180000000     sf_runtime:sf_runtime.dll
 0000:00000000       .debug$S                   0000000180000000     sf_runtime:sf_runtime.dll
 0000:00000000       .debug$S                   0000000180000000     sf_runtime:sf_runtime.dll
 0000:00000000       .debug$S                   0000000180000000     sf_runtime:sf_runtime.dll
 0000:00000000       .debug$S                   0000000180000000     sf_runtime:sf_runtime.dll
 0000:00000000       .debug$S                   0000000180000000     sf_runtime:sf_runtime.dll
 0000:00000000       .debug$S                   0000000180000000     sf_runtime:sf_runtime.dll
 0000:00000000       .debug$S                   0000000180000000     sf_runtime:sf_runtime.dll
 0000:00000000       .debug$S                   0000000180000000     sf_runtime:sf_runtime.dll
 0000:00000000       .debug$S                   0000000180000000     sf_runtime:sf_runtime.dll
 0000:00000000       .debug$S                   0000000180000000     sf_runtime:sf_runtime.dll
 0000:00000000       .debug$S                   0000000180000000     sf_runtime:sf_runtime.dll
 0000:00000000       .debug$S                   0000000180000000     sf_runtime:sf_runtime.dll
 0000:00000000       .debug$S                   0000000180000000     sf_runtime:sf_runtime.dll
 0000:00000000       .debug$S                   0000000180000000     sf_runtime:sf_runtime.dll
 0000:00000000       .debug$S                   0000000180000000     sf_runtime:sf_runtime.dll
 0000:00000000       .debug$S                   0000000180000000     sf_runtime:sf_runtime.dll
 0000:00000000       .debug$S                   0000000180000000     sf_runtime:sf_runtime.dll
 0000:00000000       .debug$S                   0000000180000000     sf_runtime:sf_runtime.dll
 0000:00000000       .debug$S                   0000000180000000     sf_runtime:sf_runtime.dll
 0000:00000000       .debug$S                   0000000180000000     sf_runtime:sf_runtime.dll
 0000:00000000       .debug$S                   0000000180000000     sf_runtime:sf_runtime.dll
 0000:00000000       .debug$S                   0000000180000000     sf_runtime:sf_runtime.dll
 0000:00000000       .debug$S                   0000000180000000     sf_runtime:sf_runtime.dll
 0000:00000000       .debug$S                   0000000180000000     sf_runtime:sf_runtime.dll
 0000:00000000       .debug$S                   0000000180000000     sf_runtime:sf_runtime.dll
 0000:00000000       .debug$S                   0000000180000000     sf_runtime:sf_runtime.dll
 0000:00000000       .debug$S                   0000000180000000     sf_runtime:sf_runtime.dll
 0000:00000000       .debug$S                   0000000180000000     sf_runtime:sf_runtime.dll
 0000:00000000       .debug$S                   0000000180000000     sf_runtime:sf_runtime.dll
 0001:000012c0       initialize_c2_wwtp3        00000001800022c0 f   c2_wwtp3.obj
 0001:00001360       initialize_params_c2_wwtp3 0000000180002360 f   c2_wwtp3.obj
 0001:00001370       mdl_start_c2_wwtp3         0000000180002370 f   c2_wwtp3.obj
 0001:000013a0       mdl_terminate_c2_wwtp3     00000001800023a0 f   c2_wwtp3.obj
 0001:000013b0       mdl_setup_runtime_resources_c2_wwtp3 00000001800023b0 f   c2_wwtp3.obj
 0001:00001640       mdl_cleanup_runtime_resources_c2_wwtp3 0000000180002640 f   c2_wwtp3.obj
 0001:00001680       enable_c2_wwtp3            0000000180002680 f   c2_wwtp3.obj
 0001:000016b0       disable_c2_wwtp3           00000001800026b0 f   c2_wwtp3.obj
 0001:000016e0       sf_gateway_c2_wwtp3        00000001800026e0 f   c2_wwtp3.obj
 0001:00005580       c2_do_animation_call_c2_wwtp3 0000000180006580 f   c2_wwtp3.obj
 0001:000055c0       get_sim_state_c2_wwtp3     00000001800065c0 f   c2_wwtp3.obj
 0001:00005800       set_sim_state_c2_wwtp3     0000000180006800 f   c2_wwtp3.obj
 0001:00005930       initSubchartIOPointersc2_wwtp3 0000000180006930 f   c2_wwtp3.obj
 0001:00005940       c2_vectorAny               0000000180006940 f   c2_wwtp3.obj
 0001:00005a10       c2_modbus                  0000000180006a10 f   c2_wwtp3.obj
 0001:00008d00       c2_TCPClient_initializeChannel 0000000180009d00 f   c2_wwtp3.obj
 0001:0000d170       c2_sprintf                 000000018000e170 f   c2_wwtp3.obj
 0001:0000d440       c2_API_dispatchInternalError 000000018000e440 f   c2_wwtp3.obj
 0001:000104d4       $LN208                     00000001800114d4     c2_wwtp3.obj
 0001:00010520       c2_API_trimString          0000000180011520 f   c2_wwtp3.obj
 0001:000106b0       c2_strcmp                  00000001800116b0 f   c2_wwtp3.obj
 0001:000108a0       c2_b_strcmp                00000001800118a0 f   c2_wwtp3.obj
 0001:00010a90       c2_c_strcmp                0000000180011a90 f   c2_wwtp3.obj
 0001:00010c80       c2_d_strcmp                0000000180011c80 f   c2_wwtp3.obj
 0001:00010e70       c2_API_channelErrorIfFailed 0000000180011e70 f   c2_wwtp3.obj
 0001:000112b0       c2_InputStream_InputStream 00000001800122b0 f   c2_wwtp3.obj
 0001:000116b0       c2_InputStream_clearPartialPacket 00000001800126b0 f   c2_wwtp3.obj
 0001:00011ae0       c2_OutputStream_OutputStream 0000000180012ae0 f   c2_wwtp3.obj
 0001:00011da0       c2_TCPClient_connect       0000000180012da0 f   c2_wwtp3.obj
 0001:00013480       c2_e_strcmp                0000000180014480 f   c2_wwtp3.obj
 0001:000140c0       c2_DataConverter_word2bytes 00000001800150c0 f   c2_wwtp3.obj
 0001:00014440       c2_TCPClient_validateConnected 0000000180015440 f   c2_wwtp3.obj
 0001:000147f0       c2_b_API_channelErrorIfFailed 00000001800157f0 f   c2_wwtp3.obj
 0001:00014c10       c2_Stream_wait             0000000180015c10 f   c2_wwtp3.obj
 0001:000156a0       c2_tic                     00000001800166a0 f   c2_wwtp3.obj
 0001:00015720       c2_getTime                 0000000180016720 f   c2_wwtp3.obj
 0001:00015ab0       c2_toc                     0000000180016ab0 f   c2_wwtp3.obj
 0001:00015ba0       c2_f_strcmp                0000000180016ba0 f   c2_wwtp3.obj
 0001:00016930       c2_g_strcmp                0000000180017930 f   c2_wwtp3.obj
 0001:000176c0       c2_OutputStream_drain      00000001800186c0 f   c2_wwtp3.obj
 0001:00019160       c2_h_strcmp                000000018001a160 f   c2_wwtp3.obj
 0001:00019ef0       c2_Modbus_getReadResponse  000000018001aef0 f   c2_wwtp3.obj
 0001:0001e710       c2_TCPClient_get_NumBytesAvailable 000000018001f710 f   c2_wwtp3.obj
 0001:0001e970       c2_BufferChannel_get_NumElementsAvailable 000000018001f970 f   c2_wwtp3.obj
 0001:0001eb60       c2_AsyncIOTransportChannel_get_StructData 000000018001fb60 f   c2_wwtp3.obj
 0001:0001f9e0       c2_AsyncIOTransportChannel_readRaw 00000001800209e0 f   c2_wwtp3.obj
 0001:00020be0       c2_AsyncIOTransportChannel_getUnreadData 0000000180021be0 f   c2_wwtp3.obj
 0001:00021060       c2_BufferChannel_readRaw   0000000180022060 f   c2_wwtp3.obj
 0001:000246f0       c2_BufferChannel_extractFromPacket 00000001800256f0 f   c2_wwtp3.obj
 0001:00024f30       c2_indexShapeCheck         0000000180025f30 f   c2_wwtp3.obj
 0001:000252b0       c2_InputStream_read        00000001800262b0 f   c2_wwtp3.obj
 0001:000268b0       c2_InputStream_readPartialPacket 00000001800278b0 f   c2_wwtp3.obj
 0001:00026eb0       c2_Stream_extractFromPacket 0000000180027eb0 f   c2_wwtp3.obj
 0001:00027650       c2_b_Stream_extractFromPacket 0000000180028650 f   c2_wwtp3.obj
 0001:00027cf0       c2_b_Stream_wait           0000000180028cf0 f   c2_wwtp3.obj
 0001:00028780       c2_InputStream_readPackets 0000000180029780 f   c2_wwtp3.obj
 0001:0002a740       c2_cat                     000000018002b740 f   c2_wwtp3.obj
 0001:0002b030       c2_check_forloop_overflow_error 000000018002c030 f   c2_wwtp3.obj
 0001:0002b240       c2_b_InputStream_read      000000018002c240 f   c2_wwtp3.obj
 0001:0002c940       c2_BufferChannel_write     000000018002d940 f   c2_wwtp3.obj
 0001:0002dd50       c2_i_strcmp                000000018002ed50 f   c2_wwtp3.obj
 0001:0002e980       c2_b_indexShapeCheck       000000018002f980 f   c2_wwtp3.obj
 0001:0002ec40       c2_all_in_integer_range    000000018002fc40 f   c2_wwtp3.obj
 0001:0002ed20       c2_Modbus_flushIO          000000018002fd20 f   c2_wwtp3.obj
 0001:0002f090       c2_BufferChannel_flush     0000000180030090 f   c2_wwtp3.obj
 0001:0002f3e0       c2_Modbus_isReadFunction   00000001800303e0 f   c2_wwtp3.obj
 0001:0002f730       c2_DataConverter_convertReadValues 0000000180030730 f   c2_wwtp3.obj
 0001:00031900       c2_handle_matlabCodegenDestructor 0000000180032900 f   c2_wwtp3.obj
 0001:00031ca0       c2_b_handle_matlabCodegenDestructor 0000000180032ca0 f   c2_wwtp3.obj
 0001:00031ec0       c2_c_handle_matlabCodegenDestructor 0000000180032ec0 f   c2_wwtp3.obj
 0001:00032230       c2_warning                 0000000180033230 f   c2_wwtp3.obj
 0001:000323f0       c2_d_handle_matlabCodegenDestructor 00000001800333f0 f   c2_wwtp3.obj
 0001:000324a0       c2_e_handle_matlabCodegenDestructor 00000001800334a0 f   c2_wwtp3.obj
 0001:000327d0       c2_Channel_close           00000001800337d0 f   c2_wwtp3.obj
 0001:00032990       c2_f_handle_matlabCodegenDestructor 0000000180033990 f   c2_wwtp3.obj
 0001:000329c0       c2_g_handle_matlabCodegenDestructor 00000001800339c0 f   c2_wwtp3.obj
 0001:000329f0       c2_emlrt_marshallIn        00000001800339f0 f   c2_wwtp3.obj
 0001:00032a60       c2_b_emlrt_marshallIn      0000000180033a60 f   c2_wwtp3.obj
 0001:00032af0       c2_c_emlrt_marshallIn      0000000180033af0 f   c2_wwtp3.obj
 0001:00032b70       c2_d_emlrt_marshallIn      0000000180033b70 f   c2_wwtp3.obj
 0001:00032e80       c2_e_emlrt_marshallIn      0000000180033e80 f   c2_wwtp3.obj
 0001:00032f00       c2_f_emlrt_marshallIn      0000000180033f00 f   c2_wwtp3.obj
 0001:00033100       c2_g_emlrt_marshallIn      0000000180034100 f   c2_wwtp3.obj
 0001:00033170       c2_h_emlrt_marshallIn      0000000180034170 f   c2_wwtp3.obj
 0001:00033200       c2_i_emlrt_marshallIn      0000000180034200 f   c2_wwtp3.obj
 0001:00033270       c2_j_emlrt_marshallIn      0000000180034270 f   c2_wwtp3.obj
 0001:00033300       c2_chart_data_browse_helper 0000000180034300 f   c2_wwtp3.obj
 0001:00033500       c2_feval                   0000000180034500 f   c2_wwtp3.obj
 0001:00033600       c2_length                  0000000180034600 f   c2_wwtp3.obj
 0001:00033690       c2_ver                     0000000180034690 f   c2_wwtp3.obj
 0001:00033720       c2_getfield                0000000180034720 f   c2_wwtp3.obj
 0001:000337f0       c2_matlabroot              00000001800347f0 f   c2_wwtp3.obj
 0001:00033860       c2_j_strcmp                0000000180034860 f   c2_wwtp3.obj
 0001:00033930       c2_coder_internal_ifWhileCondExtrinsic 0000000180034930 f   c2_wwtp3.obj
 0001:000339c0       c2_exist                   00000001800349c0 f   c2_wwtp3.obj
 0001:00033a90       c2_b_coder_internal_ifWhileCondExtrinsic 0000000180034a90 f   c2_wwtp3.obj
 0001:00033b20       c2_b_exist                 0000000180034b20 f   c2_wwtp3.obj
 0001:00033bf0       c2_c_coder_internal_ifWhileCondExtrinsic 0000000180034bf0 f   c2_wwtp3.obj
 0001:00033c80       c2_b_ver                   0000000180034c80 f   c2_wwtp3.obj
 0001:00033d10       c2_b_getfield              0000000180034d10 f   c2_wwtp3.obj
 0001:00033de0       c2_b_matlabroot            0000000180034de0 f   c2_wwtp3.obj
 0001:00033e50       c2_k_strcmp                0000000180034e50 f   c2_wwtp3.obj
 0001:00033f20       c2_d_coder_internal_ifWhileCondExtrinsic 0000000180034f20 f   c2_wwtp3.obj
 0001:00033fb0       c2_c_exist                 0000000180034fb0 f   c2_wwtp3.obj
 0001:00034080       c2_e_coder_internal_ifWhileCondExtrinsic 0000000180035080 f   c2_wwtp3.obj
 0001:00034110       c2_d_exist                 0000000180035110 f   c2_wwtp3.obj
 0001:000341e0       c2_f_coder_internal_ifWhileCondExtrinsic 00000001800351e0 f   c2_wwtp3.obj
 0001:00034270       c2_matlab_internal_language_TimerSuspender 0000000180035270 f   c2_wwtp3.obj
 0001:000342d0       c2_b_feval                 00000001800352d0 f   c2_wwtp3.obj
 0001:00034370       c2_c_feval                 0000000180035370 f   c2_wwtp3.obj
 0001:00034440       c2_d_feval                 0000000180035440 f   c2_wwtp3.obj
 0001:000344e0       c2_emxEnsureCapacity_uint8_T 00000001800354e0 f   c2_wwtp3.obj
 0001:00034650       c2_emxEnsureCapacity_char_T 0000000180035650 f   c2_wwtp3.obj
 0001:000347c0       c2_emxFree_uint8_T         00000001800357c0 f   c2_wwtp3.obj
 0001:00034840       c2_emxFreeStruct_cell_wrap_31 0000000180035840 f   c2_wwtp3.obj
 0001:00034870       c2_emxTrim_cell_wrap_31_1x1 0000000180035870 f   c2_wwtp3.obj
 0001:000348d0       c2_emxInitStruct_cell_wrap_31 00000001800358d0 f   c2_wwtp3.obj
 0001:00034920       c2_emxInit_uint8_T         0000000180035920 f   c2_wwtp3.obj
 0001:00034a20       c2_emxExpand_cell_wrap_31_1x1 0000000180035a20 f   c2_wwtp3.obj
 0001:00034a90       c2_emxEnsureCapacity_cell_wrap_31 0000000180035a90 f   c2_wwtp3.obj
 0001:00034b50       c2_emxCopyStruct_cell_wrap_31 0000000180035b50 f   c2_wwtp3.obj
 0001:00034ba0       c2_emxCopy_uint8_T         0000000180035ba0 f   c2_wwtp3.obj
 0001:00034d00       c2_emxTrim_cell_wrap_31_1  0000000180035d00 f   c2_wwtp3.obj
 0001:00034d60       c2_emxExpand_cell_wrap_31_1 0000000180035d60 f   c2_wwtp3.obj
 0001:00034dd0       c2_emxEnsureCapacity_cell_wrap_311 0000000180035dd0 f   c2_wwtp3.obj
 0001:00034e80       c2_emxInitStruct_icomm_interface_m 0000000180035e80 f   c2_wwtp3.obj
 0001:00034ef0       c2_emxInitStruct_icomm_interface_c 0000000180035ef0 f   c2_wwtp3.obj
 0001:00034f70       c2_emxInit_char_T          0000000180035f70 f   c2_wwtp3.obj
 0001:00035070       c2_emxInitStruct_matlabshared_netw 0000000180036070 f   c2_wwtp3.obj
 0001:00035160       c2_emxInitStruct_matlabshared_tran 0000000180036160 f   c2_wwtp3.obj
 0001:00035230       c2_emxInitStruct_matlabshared_asyn 0000000180036230 f   c2_wwtp3.obj
 0001:000352a0       c2_b_emxInitStruct_matlabshared_asyn 00000001800362a0 f   c2_wwtp3.obj
 0001:00035320       c2_c_emxInitStruct_matlabshared_asyn 0000000180036320 f   c2_wwtp3.obj
 0001:00035370       c2_emxInitStruct_s_n2xUWXvqAPN0Osm 0000000180036370 f   c2_wwtp3.obj
 0001:000353c0       c2_emxInitStruct_cell_33   00000001800363c0 f   c2_wwtp3.obj
 0001:00035410       c2_emxInit_cell_wrap_31_1x1 0000000180036410 f   c2_wwtp3.obj
 0001:00035460       c2_emxFree_cell_wrap_31_1x1 0000000180036460 f   c2_wwtp3.obj
 0001:00035500       c2_emxInit_cell_wrap_31_1  0000000180036500 f   c2_wwtp3.obj
 0001:00035550       c2_emxFree_cell_wrap_31_1  0000000180036550 f   c2_wwtp3.obj
 0001:000355f0       c2_emxFree_char_T          00000001800365f0 f   c2_wwtp3.obj
 0001:00035670       c2_emxFreeStruct_icomm_interface_c 0000000180036670 f   c2_wwtp3.obj
 0001:000356c0       c2_emxFreeStruct_icomm_interface_m 00000001800366c0 f   c2_wwtp3.obj
 0001:00035710       c2_emxFreeStruct_matlabshared_netw 0000000180036710 f   c2_wwtp3.obj
 0001:000357a0       c2_emxFreeStruct_matlabshared_asyn 00000001800367a0 f   c2_wwtp3.obj
 0001:000357f0       c2_b_emxFreeStruct_matlabshared_asyn 00000001800367f0 f   c2_wwtp3.obj
 0001:00035840       c2_emxFreeStruct_matlabshared_tran 0000000180036840 f   c2_wwtp3.obj
 0001:000358c0       c2_c_emxFreeStruct_matlabshared_asyn 00000001800368c0 f   c2_wwtp3.obj
 0001:000358f0       c2_emxFreeStruct_s_n2xUWXvqAPN0Osm 00000001800368f0 f   c2_wwtp3.obj
 0001:00035920       c2_emxFreeStruct_cell_33   0000000180036920 f   c2_wwtp3.obj
 0001:00035950       c2_emxInitStruct_s_puOqsSoDdBk28aK 0000000180036950 f   c2_wwtp3.obj
 0001:000359a0       c2_emxInitStruct_cell_11   00000001800369a0 f   c2_wwtp3.obj
 0001:000359f0       c2_emxFreeStruct_s_puOqsSoDdBk28aK 00000001800369f0 f   c2_wwtp3.obj
 0001:00035a20       c2_emxFreeStruct_cell_11   0000000180036a20 f   c2_wwtp3.obj
 0001:00035a50       c2_emxInitStruct_s_IiVysWyVj7T2O9P 0000000180036a50 f   c2_wwtp3.obj
 0001:00035aa0       c2_emxInitStruct_cell_17   0000000180036aa0 f   c2_wwtp3.obj
 0001:00035af0       c2_emxFreeStruct_s_IiVysWyVj7T2O9P 0000000180036af0 f   c2_wwtp3.obj
 0001:00035b20       c2_emxFreeStruct_cell_17   0000000180036b20 f   c2_wwtp3.obj
 0001:00035b50       c2_emxInitMatrix_cell_wrap_37 0000000180036b50 f   c2_wwtp3.obj
 0001:00035bc0       c2_emxInitStruct_cell_wrap_37 0000000180036bc0 f   c2_wwtp3.obj
 0001:00035c10       c2_emxFreeMatrix_cell_wrap_37 0000000180036c10 f   c2_wwtp3.obj
 0001:00035c70       c2_emxFreeStruct_cell_wrap_37 0000000180036c70 f   c2_wwtp3.obj
 0001:00035ca0       c2_emxInit_cell_wrap_31    0000000180036ca0 f   c2_wwtp3.obj
 0001:00035da0       c2_emxFree_cell_wrap_31    0000000180036da0 f   c2_wwtp3.obj
 0001:00035ec0       c2_emxTrim_cell_wrap_31    0000000180036ec0 f   c2_wwtp3.obj
 0001:00035f30       c2_emxExpand_cell_wrap_31  0000000180036f30 f   c2_wwtp3.obj
 0001:00035fa0       c2_emxEnsureCapacity_cell_wrap_312 0000000180036fa0 f   c2_wwtp3.obj
 0001:00036180       c2_emxEnsureCapacity_boolean_T 0000000180037180 f   c2_wwtp3.obj
 0001:000362f0       c2_emxInit_boolean_T       00000001800372f0 f   c2_wwtp3.obj
 0001:000363f0       c2_emxFree_boolean_T       00000001800373f0 f   c2_wwtp3.obj
 0001:00036470       c2_emxTrim_cell_wrap_37_1x1 0000000180037470 f   c2_wwtp3.obj
 0001:000364d0       c2_emxExpand_cell_wrap_37_1x1 00000001800374d0 f   c2_wwtp3.obj
 0001:00036540       c2_emxEnsureCapacity_cell_wrap_37 0000000180037540 f   c2_wwtp3.obj
 0001:00036600       c2_emxCopyStruct_cell_wrap_37 0000000180037600 f   c2_wwtp3.obj
 0001:00036650       c2_emxTrim_cell_wrap_37_1  0000000180037650 f   c2_wwtp3.obj
 0001:000366b0       c2_emxExpand_cell_wrap_37_1 00000001800376b0 f   c2_wwtp3.obj
 0001:00036720       c2_emxEnsureCapacity_cell_wrap_371 0000000180037720 f   c2_wwtp3.obj
 0001:000367d0       c2_emxInit_cell_wrap_37_1x1 00000001800377d0 f   c2_wwtp3.obj
 0001:00036820       c2_emxFree_cell_wrap_37_1x1 0000000180037820 f   c2_wwtp3.obj
 0001:000368c0       c2_emxInit_cell_wrap_37_1  00000001800378c0 f   c2_wwtp3.obj
 0001:00036910       c2_emxFree_cell_wrap_37_1  0000000180037910 f   c2_wwtp3.obj
 0001:000369b0       init_dsm_address_info      00000001800379b0 f   c2_wwtp3.obj
 0001:000369c0       init_simulink_io_address   00000001800379c0 f   c2_wwtp3.obj
 0001:00036ce0       sf_get_sim_state_info_c2_wwtp3 0000000180037ce0 f   c2_wwtp3.obj
 0001:00036da0       sf_opaque_initialize_c2_wwtp3 0000000180037da0 f   c2_wwtp3.obj
 0001:00036dd0       sf_opaque_enable_c2_wwtp3  0000000180037dd0 f   c2_wwtp3.obj
 0001:00036df0       sf_opaque_disable_c2_wwtp3 0000000180037df0 f   c2_wwtp3.obj
 0001:00036e10       sf_opaque_gateway_c2_wwtp3 0000000180037e10 f   c2_wwtp3.obj
 0001:00036e30       sf_opaque_get_sim_state_c2_wwtp3 0000000180037e30 f   c2_wwtp3.obj
 0001:00036e60       sf_opaque_set_sim_state_c2_wwtp3 0000000180037e60 f   c2_wwtp3.obj
 0001:00036e90       sf_opaque_cleanup_runtime_resources_c2_wwtp3 0000000180037e90 f   c2_wwtp3.obj
 0001:00036f30       sf_opaque_mdl_start_c2_wwtp3 0000000180037f30 f   c2_wwtp3.obj
 0001:00036f70       sf_opaque_mdl_terminate_c2_wwtp3 0000000180037f70 f   c2_wwtp3.obj
 0001:00036f90       mdlProcessParameters_c2_wwtp3 0000000180037f90 f   c2_wwtp3.obj
 0001:00037240       mdlSetWorkWidths_c2_wwtp3  0000000180038240 f   c2_wwtp3.obj
 0001:000372d0       mdlRTW_c2_wwtp3            00000001800382d0 f   c2_wwtp3.obj
 0001:00037310       mdlSetupRuntimeResources_c2_wwtp3 0000000180038310 f   c2_wwtp3.obj
 0001:00037740       initialize_c4_wwtp3        0000000180038740 f   c4_wwtp3.obj
 0001:000377e0       initialize_params_c4_wwtp3 00000001800387e0 f   c4_wwtp3.obj
 0001:000377f0       mdl_start_c4_wwtp3         00000001800387f0 f   c4_wwtp3.obj
 0001:00037820       mdl_terminate_c4_wwtp3     0000000180038820 f   c4_wwtp3.obj
 0001:00037830       mdl_setup_runtime_resources_c4_wwtp3 0000000180038830 f   c4_wwtp3.obj
 0001:00037ac0       mdl_cleanup_runtime_resources_c4_wwtp3 0000000180038ac0 f   c4_wwtp3.obj
 0001:00037b00       enable_c4_wwtp3            0000000180038b00 f   c4_wwtp3.obj
 0001:00037b30       disable_c4_wwtp3           0000000180038b30 f   c4_wwtp3.obj
 0001:00037b60       sf_gateway_c4_wwtp3        0000000180038b60 f   c4_wwtp3.obj
 0001:0003af30       c4_do_animation_call_c4_wwtp3 000000018003bf30 f   c4_wwtp3.obj
 0001:0003af70       get_sim_state_c4_wwtp3     000000018003bf70 f   c4_wwtp3.obj
 0001:0003b050       set_sim_state_c4_wwtp3     000000018003c050 f   c4_wwtp3.obj
 0001:0003b0d0       initSubchartIOPointersc4_wwtp3 000000018003c0d0 f   c4_wwtp3.obj
 0001:0003b0e0       c4_vectorAny               000000018003c0e0 f   c4_wwtp3.obj
 0001:0003b1b0       c4_modbus                  000000018003c1b0 f   c4_wwtp3.obj
 0001:0003e4a0       c4_TCPClient_initializeChannel 000000018003f4a0 f   c4_wwtp3.obj
 0001:00042910       c4_sprintf                 0000000180043910 f   c4_wwtp3.obj
 0001:00042be0       c4_API_dispatchInternalError 0000000180043be0 f   c4_wwtp3.obj
 0001:00045c74       $LN208                     0000000180046c74     c4_wwtp3.obj
 0001:00045cc0       c4_API_trimString          0000000180046cc0 f   c4_wwtp3.obj
 0001:00045e50       c4_strcmp                  0000000180046e50 f   c4_wwtp3.obj
 0001:00046040       c4_b_strcmp                0000000180047040 f   c4_wwtp3.obj
 0001:00046230       c4_c_strcmp                0000000180047230 f   c4_wwtp3.obj
 0001:00046420       c4_d_strcmp                0000000180047420 f   c4_wwtp3.obj
 0001:00046610       c4_API_channelErrorIfFailed 0000000180047610 f   c4_wwtp3.obj
 0001:00046a50       c4_InputStream_InputStream 0000000180047a50 f   c4_wwtp3.obj
 0001:00046e50       c4_InputStream_clearPartialPacket 0000000180047e50 f   c4_wwtp3.obj
 0001:00047280       c4_OutputStream_OutputStream 0000000180048280 f   c4_wwtp3.obj
 0001:00047540       c4_TCPClient_connect       0000000180048540 f   c4_wwtp3.obj
 0001:00048c20       c4_DataConverter_word2bytes 0000000180049c20 f   c4_wwtp3.obj
 0001:000490b0       c4_e_strcmp                000000018004a0b0 f   c4_wwtp3.obj
 0001:00049cf0       c4_b_DataConverter_word2bytes 000000018004acf0 f   c4_wwtp3.obj
 0001:0004a070       c4_Modbus_executeWrite     000000018004b070 f   c4_wwtp3.obj
 0001:0004c3a0       c4_TCPClient_validateConnected 000000018004d3a0 f   c4_wwtp3.obj
 0001:0004c750       c4_b_API_channelErrorIfFailed 000000018004d750 f   c4_wwtp3.obj
 0001:0004cb70       c4_Stream_wait             000000018004db70 f   c4_wwtp3.obj
 0001:0004d600       c4_tic                     000000018004e600 f   c4_wwtp3.obj
 0001:0004d680       c4_getTime                 000000018004e680 f   c4_wwtp3.obj
 0001:0004da10       c4_toc                     000000018004ea10 f   c4_wwtp3.obj
 0001:0004db00       c4_f_strcmp                000000018004eb00 f   c4_wwtp3.obj
 0001:0004e890       c4_g_strcmp                000000018004f890 f   c4_wwtp3.obj
 0001:0004f620       c4_OutputStream_drain      0000000180050620 f   c4_wwtp3.obj
 0001:000510c0       c4_h_strcmp                00000001800520c0 f   c4_wwtp3.obj
 0001:00051e50       c4_Modbus_getWriteResponse 0000000180052e50 f   c4_wwtp3.obj
 0001:00055d80       c4_TCPClient_get_NumBytesAvailable 0000000180056d80 f   c4_wwtp3.obj
 0001:00055fe0       c4_BufferChannel_get_NumElementsAvailable 0000000180056fe0 f   c4_wwtp3.obj
 0001:000561d0       c4_AsyncIOTransportChannel_get_StructData 00000001800571d0 f   c4_wwtp3.obj
 0001:00057050       c4_AsyncIOTransportChannel_readRaw 0000000180058050 f   c4_wwtp3.obj
 0001:00058250       c4_AsyncIOTransportChannel_getUnreadData 0000000180059250 f   c4_wwtp3.obj
 0001:000586d0       c4_BufferChannel_readRaw   00000001800596d0 f   c4_wwtp3.obj
 0001:0005bd60       c4_BufferChannel_extractFromPacket 000000018005cd60 f   c4_wwtp3.obj
 0001:0005c5a0       c4_indexShapeCheck         000000018005d5a0 f   c4_wwtp3.obj
 0001:0005c920       c4_InputStream_read        000000018005d920 f   c4_wwtp3.obj
 0001:0005df20       c4_InputStream_readPartialPacket 000000018005ef20 f   c4_wwtp3.obj
 0001:0005e520       c4_Stream_extractFromPacket 000000018005f520 f   c4_wwtp3.obj
 0001:0005ecc0       c4_b_Stream_extractFromPacket 000000018005fcc0 f   c4_wwtp3.obj
 0001:0005f360       c4_b_Stream_wait           0000000180060360 f   c4_wwtp3.obj
 0001:0005fdf0       c4_InputStream_readPackets 0000000180060df0 f   c4_wwtp3.obj
 0001:00061db0       c4_cat                     0000000180062db0 f   c4_wwtp3.obj
 0001:000626a0       c4_check_forloop_overflow_error 00000001800636a0 f   c4_wwtp3.obj
 0001:000628b0       c4_b_InputStream_read      00000001800638b0 f   c4_wwtp3.obj
 0001:00063fb0       c4_BufferChannel_write     0000000180064fb0 f   c4_wwtp3.obj
 0001:000653c0       c4_i_strcmp                00000001800663c0 f   c4_wwtp3.obj
 0001:00065ff0       c4_b_indexShapeCheck       0000000180066ff0 f   c4_wwtp3.obj
 0001:000662b0       c4_all_in_integer_range    00000001800672b0 f   c4_wwtp3.obj
 0001:00066390       c4_Modbus_flushIO          0000000180067390 f   c4_wwtp3.obj
 0001:00066700       c4_BufferChannel_flush     0000000180067700 f   c4_wwtp3.obj
 0001:00066a50       c4_Modbus_translateandGenerateServerError 0000000180067a50 f   c4_wwtp3.obj
 0001:00067b60       c4_Modbus_isReadFunction   0000000180068b60 f   c4_wwtp3.obj
 0001:00067eb0       c4_handle_matlabCodegenDestructor 0000000180068eb0 f   c4_wwtp3.obj
 0001:00068250       c4_b_handle_matlabCodegenDestructor 0000000180069250 f   c4_wwtp3.obj
 0001:00068470       c4_c_handle_matlabCodegenDestructor 0000000180069470 f   c4_wwtp3.obj
 0001:000687e0       c4_warning                 00000001800697e0 f   c4_wwtp3.obj
 0001:000689a0       c4_d_handle_matlabCodegenDestructor 00000001800699a0 f   c4_wwtp3.obj
 0001:00068a50       c4_e_handle_matlabCodegenDestructor 0000000180069a50 f   c4_wwtp3.obj
 0001:00068d80       c4_Channel_close           0000000180069d80 f   c4_wwtp3.obj
 0001:00068f40       c4_f_handle_matlabCodegenDestructor 0000000180069f40 f   c4_wwtp3.obj
 0001:00068f70       c4_g_handle_matlabCodegenDestructor 0000000180069f70 f   c4_wwtp3.obj
 0001:00068fa0       c4_emlrt_marshallIn        0000000180069fa0 f   c4_wwtp3.obj
 0001:00069010       c4_b_emlrt_marshallIn      000000018006a010 f   c4_wwtp3.obj
 0001:000690a0       c4_c_emlrt_marshallIn      000000018006a0a0 f   c4_wwtp3.obj
 0001:00069120       c4_d_emlrt_marshallIn      000000018006a120 f   c4_wwtp3.obj
 0001:00069430       c4_e_emlrt_marshallIn      000000018006a430 f   c4_wwtp3.obj
 0001:000694b0       c4_f_emlrt_marshallIn      000000018006a4b0 f   c4_wwtp3.obj
 0001:000696b0       c4_g_emlrt_marshallIn      000000018006a6b0 f   c4_wwtp3.obj
 0001:00069720       c4_h_emlrt_marshallIn      000000018006a720 f   c4_wwtp3.obj
 0001:000697b0       c4_i_emlrt_marshallIn      000000018006a7b0 f   c4_wwtp3.obj
 0001:00069820       c4_j_emlrt_marshallIn      000000018006a820 f   c4_wwtp3.obj
 0001:000698b0       c4_chart_data_browse_helper 000000018006a8b0 f   c4_wwtp3.obj
 0001:00069ac0       c4_feval                   000000018006aac0 f   c4_wwtp3.obj
 0001:00069bc0       c4_length                  000000018006abc0 f   c4_wwtp3.obj
 0001:00069c50       c4_ver                     000000018006ac50 f   c4_wwtp3.obj
 0001:00069ce0       c4_getfield                000000018006ace0 f   c4_wwtp3.obj
 0001:00069db0       c4_matlabroot              000000018006adb0 f   c4_wwtp3.obj
 0001:00069e20       c4_j_strcmp                000000018006ae20 f   c4_wwtp3.obj
 0001:00069ef0       c4_coder_internal_ifWhileCondExtrinsic 000000018006aef0 f   c4_wwtp3.obj
 0001:00069f80       c4_exist                   000000018006af80 f   c4_wwtp3.obj
 0001:0006a050       c4_b_coder_internal_ifWhileCondExtrinsic 000000018006b050 f   c4_wwtp3.obj
 0001:0006a0e0       c4_b_exist                 000000018006b0e0 f   c4_wwtp3.obj
 0001:0006a1b0       c4_c_coder_internal_ifWhileCondExtrinsic 000000018006b1b0 f   c4_wwtp3.obj
 0001:0006a240       c4_b_ver                   000000018006b240 f   c4_wwtp3.obj
 0001:0006a2d0       c4_b_getfield              000000018006b2d0 f   c4_wwtp3.obj
 0001:0006a3a0       c4_b_matlabroot            000000018006b3a0 f   c4_wwtp3.obj
 0001:0006a410       c4_k_strcmp                000000018006b410 f   c4_wwtp3.obj
 0001:0006a4e0       c4_d_coder_internal_ifWhileCondExtrinsic 000000018006b4e0 f   c4_wwtp3.obj
 0001:0006a570       c4_c_exist                 000000018006b570 f   c4_wwtp3.obj
 0001:0006a640       c4_e_coder_internal_ifWhileCondExtrinsic 000000018006b640 f   c4_wwtp3.obj
 0001:0006a6d0       c4_d_exist                 000000018006b6d0 f   c4_wwtp3.obj
 0001:0006a7a0       c4_f_coder_internal_ifWhileCondExtrinsic 000000018006b7a0 f   c4_wwtp3.obj
 0001:0006a830       c4_matlab_internal_language_TimerSuspender 000000018006b830 f   c4_wwtp3.obj
 0001:0006a890       c4_b_feval                 000000018006b890 f   c4_wwtp3.obj
 0001:0006a930       c4_c_feval                 000000018006b930 f   c4_wwtp3.obj
 0001:0006aa00       c4_d_feval                 000000018006ba00 f   c4_wwtp3.obj
 0001:0006aaa0       c4_emxEnsureCapacity_uint8_T 000000018006baa0 f   c4_wwtp3.obj
 0001:0006ac10       c4_emxEnsureCapacity_char_T 000000018006bc10 f   c4_wwtp3.obj
 0001:0006ad80       c4_emxInitStruct_icomm_interface_m 000000018006bd80 f   c4_wwtp3.obj
 0001:0006adf0       c4_emxInitStruct_icomm_interface_c 000000018006bdf0 f   c4_wwtp3.obj
 0001:0006ae70       c4_emxInit_char_T          000000018006be70 f   c4_wwtp3.obj
 0001:0006af70       c4_emxInitStruct_matlabshared_netw 000000018006bf70 f   c4_wwtp3.obj
 0001:0006b060       c4_emxInitStruct_matlabshared_tran 000000018006c060 f   c4_wwtp3.obj
 0001:0006b130       c4_emxInitStruct_matlabshared_asyn 000000018006c130 f   c4_wwtp3.obj
 0001:0006b1a0       c4_b_emxInitStruct_matlabshared_asyn 000000018006c1a0 f   c4_wwtp3.obj
 0001:0006b220       c4_emxInit_uint8_T         000000018006c220 f   c4_wwtp3.obj
 0001:0006b320       c4_c_emxInitStruct_matlabshared_asyn 000000018006c320 f   c4_wwtp3.obj
 0001:0006b370       c4_emxFree_char_T          000000018006c370 f   c4_wwtp3.obj
 0001:0006b3f0       c4_emxFreeStruct_icomm_interface_c 000000018006c3f0 f   c4_wwtp3.obj
 0001:0006b440       c4_emxFreeStruct_icomm_interface_m 000000018006c440 f   c4_wwtp3.obj
 0001:0006b490       c4_emxFreeStruct_matlabshared_netw 000000018006c490 f   c4_wwtp3.obj
 0001:0006b520       c4_emxFree_uint8_T         000000018006c520 f   c4_wwtp3.obj
 0001:0006b5a0       c4_emxFreeStruct_matlabshared_asyn 000000018006c5a0 f   c4_wwtp3.obj
 0001:0006b5f0       c4_b_emxFreeStruct_matlabshared_asyn 000000018006c5f0 f   c4_wwtp3.obj
 0001:0006b640       c4_emxFreeStruct_matlabshared_tran 000000018006c640 f   c4_wwtp3.obj
 0001:0006b6c0       c4_c_emxFreeStruct_matlabshared_asyn 000000018006c6c0 f   c4_wwtp3.obj
 0001:0006b6f0       c4_emxInitStruct_s_puOqsSoDdBk28aK 000000018006c6f0 f   c4_wwtp3.obj
 0001:0006b740       c4_emxInitStruct_cell_11   000000018006c740 f   c4_wwtp3.obj
 0001:0006b790       c4_emxFreeStruct_s_puOqsSoDdBk28aK 000000018006c790 f   c4_wwtp3.obj
 0001:0006b7c0       c4_emxFreeStruct_cell_11   000000018006c7c0 f   c4_wwtp3.obj
 0001:0006b7f0       c4_emxInitStruct_s_IiVysWyVj7T2O9P 000000018006c7f0 f   c4_wwtp3.obj
 0001:0006b840       c4_emxInitStruct_cell_17   000000018006c840 f   c4_wwtp3.obj
 0001:0006b890       c4_emxFreeStruct_s_IiVysWyVj7T2O9P 000000018006c890 f   c4_wwtp3.obj
 0001:0006b8c0       c4_emxFreeStruct_cell_17   000000018006c8c0 f   c4_wwtp3.obj
 0001:0006b8f0       c4_emxFreeStruct_cell_wrap_33 000000018006c8f0 f   c4_wwtp3.obj
 0001:0006b920       c4_emxTrim_cell_wrap_33_1x1 000000018006c920 f   c4_wwtp3.obj
 0001:0006b980       c4_emxInitStruct_cell_wrap_33 000000018006c980 f   c4_wwtp3.obj
 0001:0006b9d0       c4_emxExpand_cell_wrap_33_1x1 000000018006c9d0 f   c4_wwtp3.obj
 0001:0006ba40       c4_emxEnsureCapacity_cell_wrap_33 000000018006ca40 f   c4_wwtp3.obj
 0001:0006bb00       c4_emxCopyStruct_cell_wrap_33 000000018006cb00 f   c4_wwtp3.obj
 0001:0006bb50       c4_emxCopy_uint8_T         000000018006cb50 f   c4_wwtp3.obj
 0001:0006bcb0       c4_emxTrim_cell_wrap_33_1  000000018006ccb0 f   c4_wwtp3.obj
 0001:0006bd10       c4_emxExpand_cell_wrap_33_1 000000018006cd10 f   c4_wwtp3.obj
 0001:0006bd80       c4_emxEnsureCapacity_cell_wrap_331 000000018006cd80 f   c4_wwtp3.obj
 0001:0006be30       c4_emxInitStruct_s_n2xUWXvqAPN0Osm 000000018006ce30 f   c4_wwtp3.obj
 0001:0006be80       c4_emxInitStruct_cell_35   000000018006ce80 f   c4_wwtp3.obj
 0001:0006bed0       c4_emxInit_cell_wrap_33_1x1 000000018006ced0 f   c4_wwtp3.obj
 0001:0006bf20       c4_emxFree_cell_wrap_33_1x1 000000018006cf20 f   c4_wwtp3.obj
 0001:0006bfc0       c4_emxInit_cell_wrap_33_1  000000018006cfc0 f   c4_wwtp3.obj
 0001:0006c010       c4_emxFree_cell_wrap_33_1  000000018006d010 f   c4_wwtp3.obj
 0001:0006c0b0       c4_emxFreeStruct_s_n2xUWXvqAPN0Osm 000000018006d0b0 f   c4_wwtp3.obj
 0001:0006c0e0       c4_emxFreeStruct_cell_35   000000018006d0e0 f   c4_wwtp3.obj
 0001:0006c110       c4_emxInitMatrix_cell_wrap_38 000000018006d110 f   c4_wwtp3.obj
 0001:0006c180       c4_emxInitStruct_cell_wrap_38 000000018006d180 f   c4_wwtp3.obj
 0001:0006c1d0       c4_emxFreeMatrix_cell_wrap_38 000000018006d1d0 f   c4_wwtp3.obj
 0001:0006c230       c4_emxFreeStruct_cell_wrap_38 000000018006d230 f   c4_wwtp3.obj
 0001:0006c260       c4_emxInit_cell_wrap_33    000000018006d260 f   c4_wwtp3.obj
 0001:0006c360       c4_emxFree_cell_wrap_33    000000018006d360 f   c4_wwtp3.obj
 0001:0006c480       c4_emxTrim_cell_wrap_33    000000018006d480 f   c4_wwtp3.obj
 0001:0006c4f0       c4_emxExpand_cell_wrap_33  000000018006d4f0 f   c4_wwtp3.obj
 0001:0006c560       c4_emxEnsureCapacity_cell_wrap_332 000000018006d560 f   c4_wwtp3.obj
 0001:0006c740       c4_emxEnsureCapacity_boolean_T 000000018006d740 f   c4_wwtp3.obj
 0001:0006c8b0       c4_emxInit_boolean_T       000000018006d8b0 f   c4_wwtp3.obj
 0001:0006c9b0       c4_emxFree_boolean_T       000000018006d9b0 f   c4_wwtp3.obj
 0001:0006ca30       c4_emxTrim_cell_wrap_38_1x1 000000018006da30 f   c4_wwtp3.obj
 0001:0006ca90       c4_emxExpand_cell_wrap_38_1x1 000000018006da90 f   c4_wwtp3.obj
 0001:0006cb00       c4_emxEnsureCapacity_cell_wrap_38 000000018006db00 f   c4_wwtp3.obj
 0001:0006cbc0       c4_emxCopyStruct_cell_wrap_38 000000018006dbc0 f   c4_wwtp3.obj
 0001:0006cc10       c4_emxTrim_cell_wrap_38_1  000000018006dc10 f   c4_wwtp3.obj
 0001:0006cc70       c4_emxExpand_cell_wrap_38_1 000000018006dc70 f   c4_wwtp3.obj
 0001:0006cce0       c4_emxEnsureCapacity_cell_wrap_381 000000018006dce0 f   c4_wwtp3.obj
 0001:0006cd90       c4_emxInit_cell_wrap_38_1x1 000000018006dd90 f   c4_wwtp3.obj
 0001:0006cde0       c4_emxFree_cell_wrap_38_1x1 000000018006dde0 f   c4_wwtp3.obj
 0001:0006ce80       c4_emxInit_cell_wrap_38_1  000000018006de80 f   c4_wwtp3.obj
 0001:0006ced0       c4_emxFree_cell_wrap_38_1  000000018006ded0 f   c4_wwtp3.obj
 0001:0006cf70       init_dsm_address_info      000000018006df70 f   c4_wwtp3.obj
 0001:0006cf80       init_simulink_io_address   000000018006df80 f   c4_wwtp3.obj
 0001:0006d2a0       sf_get_sim_state_info_c4_wwtp3 000000018006e2a0 f   c4_wwtp3.obj
 0001:0006d360       sf_opaque_initialize_c4_wwtp3 000000018006e360 f   c4_wwtp3.obj
 0001:0006d390       sf_opaque_enable_c4_wwtp3  000000018006e390 f   c4_wwtp3.obj
 0001:0006d3b0       sf_opaque_disable_c4_wwtp3 000000018006e3b0 f   c4_wwtp3.obj
 0001:0006d3d0       sf_opaque_gateway_c4_wwtp3 000000018006e3d0 f   c4_wwtp3.obj
 0001:0006d3f0       sf_opaque_get_sim_state_c4_wwtp3 000000018006e3f0 f   c4_wwtp3.obj
 0001:0006d420       sf_opaque_set_sim_state_c4_wwtp3 000000018006e420 f   c4_wwtp3.obj
 0001:0006d450       sf_opaque_cleanup_runtime_resources_c4_wwtp3 000000018006e450 f   c4_wwtp3.obj
 0001:0006d4f0       sf_opaque_mdl_start_c4_wwtp3 000000018006e4f0 f   c4_wwtp3.obj
 0001:0006d530       sf_opaque_mdl_terminate_c4_wwtp3 000000018006e530 f   c4_wwtp3.obj
 0001:0006d550       mdlProcessParameters_c4_wwtp3 000000018006e550 f   c4_wwtp3.obj
 0001:0006d7f0       mdlSetWorkWidths_c4_wwtp3  000000018006e7f0 f   c4_wwtp3.obj
 0001:0006d880       mdlRTW_c4_wwtp3            000000018006e880 f   c4_wwtp3.obj
 0001:0006d8c0       mdlSetupRuntimeResources_c4_wwtp3 000000018006e8c0 f   c4_wwtp3.obj
 0001:00070314       $LN197                     0000000180071314     wwtp3_sfun_registry.obj
 0001:00071174       $LN22                      0000000180072174     wwtp3_sfun_registry.obj
 0001:00071874       $LN26                      0000000180072874     wwtp3_sfun_registry.obj
 0001:00071f54       $LN24                      0000000180072f54     wwtp3_sfun_registry.obj
 0001:00072c8c       $LN30                      0000000180073c8c     wwtp3_sfun_registry.obj
 0001:000762a0       ProcessMexSfunctionCmdLineCall 00000001800772a0 f   wwtp3_sfun_registry.obj
 0001:000765b0       mdlSetWorkWidths           00000001800775b0 f   wwtp3_sfun_registry.obj
 0001:00076600       mdlProcessParameters       0000000180077600 f   wwtp3_sfun_registry.obj
 0001:00076630       mdl_setup_runtime_resources_processing 0000000180077630 f   wwtp3_sfun_registry.obj
 0001:00076690       mdlSetupRuntimeResources   0000000180077690 f   wwtp3_sfun_registry.obj
 0001:000766c0       mdl_cleanup_runtime_resources_processing 00000001800776c0 f   wwtp3_sfun_registry.obj
 0001:00076780       mdlCleanupRuntimeResources 0000000180077780 f   wwtp3_sfun_registry.obj
 0001:000767b0       mdl_start_processing       00000001800777b0 f   wwtp3_sfun_registry.obj
 0001:000767f0       mdlStart                   00000001800777f0 f   wwtp3_sfun_registry.obj
 0001:00076820       mdl_terminate_processing   0000000180077820 f   wwtp3_sfun_registry.obj
 0001:00076860       mdlTerminate               0000000180077860 f   wwtp3_sfun_registry.obj
 0001:00076890       mdlInitializeSizes         0000000180077890 f   wwtp3_sfun_registry.obj
 0001:000768c0       mdlInitializeSampleTimes   00000001800778c0 f   wwtp3_sfun_registry.obj
 0001:000768f0       mdl_outputs_continuous_legacy 00000001800778f0 f   wwtp3_sfun_registry.obj
 0001:000769f0       mdl_outputs_processing     00000001800779f0 f   wwtp3_sfun_registry.obj
 0001:00076b30       mdl_zeroCrossings_processing 0000000180077b30 f   wwtp3_sfun_registry.obj
 0001:00076b70       mdlZeroCrossings           0000000180077b70 f   wwtp3_sfun_registry.obj
 0001:00076ba0       mdl_derivatives_processing 0000000180077ba0 f   wwtp3_sfun_registry.obj
 0001:00076bf0       mdlDerivatives             0000000180077bf0 f   wwtp3_sfun_registry.obj
 0001:00076c20       mdl_initialize_conditions_processing 0000000180077c20 f   wwtp3_sfun_registry.obj
 0001:00076c70       mdlInitializeConditions    0000000180077c70 f   wwtp3_sfun_registry.obj
 0001:00076ca0       mdl_ext_mode_exec_processing 0000000180077ca0 f   wwtp3_sfun_registry.obj
 0001:00076ce0       mdlExtModeExec             0000000180077ce0 f   wwtp3_sfun_registry.obj
 0001:00076d10       mdlRTW                     0000000180077d10 f   wwtp3_sfun_registry.obj
 0001:00076d50       mdl_enable_processing      0000000180077d50 f   wwtp3_sfun_registry.obj
 0001:00076d90       mdlEnable                  0000000180077d90 f   wwtp3_sfun_registry.obj
 0001:00076dc0       mdl_disable_processing     0000000180077dc0 f   wwtp3_sfun_registry.obj
 0001:00076e00       mdlDisable                 0000000180077e00 f   wwtp3_sfun_registry.obj
 0001:00076e30       mdlOutputs                 0000000180077e30 f   wwtp3_sfun_registry.obj
 0001:00076e60       mdl_update_processing      0000000180077e60 f   wwtp3_sfun_registry.obj
 0001:00076eb0       mdlUpdate                  0000000180077eb0 f   wwtp3_sfun_registry.obj
 0001:000770a0       mdlGetTimeOfNextVarHit     00000001800780a0 f   wwtp3_sfun_registry.obj
 0001:000770f0       _RegNumInputPortsCB        00000001800780f0 f   wwtp3_sfun_registry.obj
 0001:00077170       _RegNumOutputPortsCB       0000000180078170 f   wwtp3_sfun_registry.obj
 0001:000771f0       _CreateSimStruct           00000001800781f0 f   wwtp3_sfun_registry.obj
 0001:00077420       _ProcessMexSfunctionCmdLineCall 0000000180078420 f   wwtp3_sfun_registry.obj
 0001:00077e90       ReportIndexOutOfBoundsError 0000000180078e90 f   wwtp3_sfun_registry.obj
 0001:00078e70       capture_current_context    0000000180079e70 f   MSVCRT:gs_report.obj
 0001:00078ee0       capture_previous_context   0000000180079ee0 f   MSVCRT:gs_report.obj
 0001:00078fd0       $$000000                   0000000180079fd0     MSVCRT:amdsecgs.obj
 0001:00079010       $$000000                   000000018007a010     MSVCRT:chkstk.obj
 0001:00079074       ?dllmain_crt_dispatch@@YAHQEAUHINSTANCE__@@KQEAX@Z 000000018007a074 f   MSVCRT:dll_dllmain.obj
 0001:000790c4       ?dllmain_crt_process_attach@@YAHQEAUHINSTANCE__@@QEAX@Z 000000018007a0c4 f   MSVCRT:dll_dllmain.obj
 0001:000791dc       ?dllmain_crt_process_detach@@YAH_N@Z 000000018007a1dc f   MSVCRT:dll_dllmain.obj
 0001:00079260       ?dllmain_dispatch@@YAHQEAUHINSTANCE__@@KQEAX@Z 000000018007a260 f   MSVCRT:dll_dllmain.obj
 0001:00079394       ?dllmain_raw@@YAHQEAUHINSTANCE__@@KQEAX@Z 000000018007a394 f   MSVCRT:dll_dllmain.obj
 0001:000793f8       __get_entropy              000000018007a3f8 f   MSVCRT:gs_support.obj
 0001:00079588       ?find_pe_section@@YAPEAU_IMAGE_SECTION_HEADER@@QEAE_K@Z 000000018007a588 f   MSVCRT:utility.obj
 0001:000795dc       ?is_potentially_valid_image_base@@YA_NQEAX@Z 000000018007a5dc f   MSVCRT:utility.obj
 0001:00079d28       __castguard_compat_check   000000018007ad28 f   MSVCRT:guard_support.obj
 0001:00079e14       __castguard_slow_path_compat_check 000000018007ae14 f   MSVCRT:guard_support.obj
 0001:0007a120       $$000000                   000000018007b120     MSVCRT:guard_dispatch.obj
 0001:0007a140       $$000000                   000000018007b140     MSVCRT:guard_xfg_dispatch.obj
 0001:0007a156       ?fin$0@?0??dllmain_crt_process_attach@@YAHQEAUHINSTANCE__@@QEAX@Z@4HA 000000018007b156 f   MSVCRT:dll_dllmain.obj
 0001:0007a16d       ?fin$0@?0??dllmain_crt_process_detach@@YAH_N@Z@4HA 000000018007b16d f   MSVCRT:dll_dllmain.obj
 0001:0007a186       ?fin$1@?0??dllmain_crt_process_detach@@YAH_N@Z@4HA 000000018007b186 f   MSVCRT:dll_dllmain.obj
 0001:0007a19a       ?filt$0@?0??dllmain_dispatch@@YAHQEAUHINSTANCE__@@KQEAX@Z@4HA 000000018007b19a f   MSVCRT:dll_dllmain.obj
 0001:0007a1d0       __scrt_is_nonwritable_in_current_image$filt$0 000000018007b1d0 f   MSVCRT:utility.obj
 0002:00000690       ?c2_decisionTxtEndIdx@?1??mdl_setup_runtime_resources_c2_wwtp3@@9@9 000000018007c690     c2_wwtp3.obj
 0002:00000694       ?c2_decisionTxtStartIdx@?1??mdl_setup_runtime_resources_c2_wwtp3@@9@9 000000018007c694     c2_wwtp3.obj
 0002:000007a8       ?c4_decisionTxtEndIdx@?1??mdl_setup_runtime_resources_c4_wwtp3@@9@9 000000018007c7a8     c4_wwtp3.obj
 0002:000007ac       ?c4_decisionTxtStartIdx@?1??mdl_setup_runtime_resources_c4_wwtp3@@9@9 000000018007c7ac     c4_wwtp3.obj
 0002:00000800       GS_ExceptionPointers       000000018007c800     MSVCRT:gs_report.obj
 0002:00000c90       $unwind$load_wwtp3_optimization_info 000000018007cc90     wwtp3_sfun.obj
 0002:00000c98       $unwind$unload_wwtp3_optimization_info 000000018007cc98     wwtp3_sfun.obj
 0002:00000ca0       $unwind$sf_wwtp3_method_dispatcher 000000018007cca0     wwtp3_sfun.obj
 0002:00000ca8       $unwind$sf_wwtp3_process_check_sum_call 000000018007cca8     wwtp3_sfun.obj
 0002:00000cb8       $unwind$sf_wwtp3_get_eml_resolved_functions_info 000000018007ccb8     wwtp3_sfun.obj
 0002:00000cc8       $unwind$sf_wwtp3_third_party_uses_info 000000018007ccc8     wwtp3_sfun.obj
 0002:00000cd8       $unwind$sf_wwtp3_jit_fallback_info 000000018007ccd8     wwtp3_sfun.obj
 0002:00000ce8       $unwind$sf_wwtp3_get_post_codegen_info 000000018007cce8     wwtp3_sfun.obj
 0002:00000cf8       $unwind$sf_wwtp3_updateBuildInfo_args_info 000000018007ccf8     wwtp3_sfun.obj
 0002:00000d08       $unwind$sf_c2_wwtp3_get_eml_resolved_functions_info 000000018007cd08     c2_wwtp3.obj
 0002:00000d10       $unwind$sf_c2_wwtp3_get_check_sum 000000018007cd10     c2_wwtp3.obj
 0002:00000d18       $unwind$c2_wwtp3_method_dispatcher 000000018007cd18     c2_wwtp3.obj
 0002:00000d20       $unwind$initialize_c2_wwtp3 000000018007cd20     c2_wwtp3.obj
 0002:00000d28       $unwind$mdl_start_c2_wwtp3 000000018007cd28     c2_wwtp3.obj
 0002:00000d30       $unwind$mdl_setup_runtime_resources_c2_wwtp3 000000018007cd30     c2_wwtp3.obj
 0002:00000d38       $unwind$mdl_cleanup_runtime_resources_c2_wwtp3 000000018007cd38     c2_wwtp3.obj
 0002:00000d40       $unwind$enable_c2_wwtp3    000000018007cd40     c2_wwtp3.obj
 0002:00000d48       $unwind$disable_c2_wwtp3   000000018007cd48     c2_wwtp3.obj
 0002:00000d50       $unwind$sf_gateway_c2_wwtp3 000000018007cd50     c2_wwtp3.obj
 0002:00000d60       $unwind$c2_do_animation_call_c2_wwtp3 000000018007cd60     c2_wwtp3.obj
 0002:00000d68       $unwind$get_sim_state_c2_wwtp3 000000018007cd68     c2_wwtp3.obj
 0002:00000d70       $unwind$set_sim_state_c2_wwtp3 000000018007cd70     c2_wwtp3.obj
 0002:00000d78       $unwind$c2_vectorAny       000000018007cd78     c2_wwtp3.obj
 0002:00000d80       $unwind$c2_modbus          000000018007cd80     c2_wwtp3.obj
 0002:00000d94       $unwind$c2_TCPClient_initializeChannel 000000018007cd94     c2_wwtp3.obj
 0002:00000da8       $unwind$c2_sprintf         000000018007cda8     c2_wwtp3.obj
 0002:00000db0       $unwind$c2_API_dispatchInternalError 000000018007cdb0     c2_wwtp3.obj
 0002:00000dc0       $unwind$c2_API_trimString  000000018007cdc0     c2_wwtp3.obj
 0002:00000dc8       $unwind$c2_strcmp          000000018007cdc8     c2_wwtp3.obj
 0002:00000dd0       $unwind$c2_b_strcmp        000000018007cdd0     c2_wwtp3.obj
 0002:00000dd8       $unwind$c2_c_strcmp        000000018007cdd8     c2_wwtp3.obj
 0002:00000de0       $unwind$c2_d_strcmp        000000018007cde0     c2_wwtp3.obj
 0002:00000de8       $unwind$c2_API_channelErrorIfFailed 000000018007cde8     c2_wwtp3.obj
 0002:00000df8       $unwind$c2_InputStream_InputStream 000000018007cdf8     c2_wwtp3.obj
 0002:00000e00       $unwind$c2_InputStream_clearPartialPacket 000000018007ce00     c2_wwtp3.obj
 0002:00000e08       $unwind$c2_OutputStream_OutputStream 000000018007ce08     c2_wwtp3.obj
 0002:00000e10       $unwind$c2_TCPClient_connect 000000018007ce10     c2_wwtp3.obj
 0002:00000e24       $unwind$c2_e_strcmp        000000018007ce24     c2_wwtp3.obj
 0002:00000e2c       $unwind$c2_DataConverter_word2bytes 000000018007ce2c     c2_wwtp3.obj
 0002:00000e3c       $unwind$c2_TCPClient_validateConnected 000000018007ce3c     c2_wwtp3.obj
 0002:00000e44       $unwind$c2_b_API_channelErrorIfFailed 000000018007ce44     c2_wwtp3.obj
 0002:00000e54       $unwind$c2_Stream_wait     000000018007ce54     c2_wwtp3.obj
 0002:00000e68       $unwind$c2_tic             000000018007ce68     c2_wwtp3.obj
 0002:00000e74       $unwind$c2_getTime         000000018007ce74     c2_wwtp3.obj
 0002:00000e88       $unwind$c2_toc             000000018007ce88     c2_wwtp3.obj
 0002:00000e9c       $unwind$c2_f_strcmp        000000018007ce9c     c2_wwtp3.obj
 0002:00000ea4       $unwind$c2_g_strcmp        000000018007cea4     c2_wwtp3.obj
 0002:00000eac       $unwind$c2_OutputStream_drain 000000018007ceac     c2_wwtp3.obj
 0002:00000ec0       $unwind$c2_h_strcmp        000000018007cec0     c2_wwtp3.obj
 0002:00000ec8       $unwind$c2_Modbus_getReadResponse 000000018007cec8     c2_wwtp3.obj
 0002:00000edc       $unwind$c2_TCPClient_get_NumBytesAvailable 000000018007cedc     c2_wwtp3.obj
 0002:00000ee4       $unwind$c2_BufferChannel_get_NumElementsAvailable 000000018007cee4     c2_wwtp3.obj
 0002:00000eec       $unwind$c2_AsyncIOTransportChannel_get_StructData 000000018007ceec     c2_wwtp3.obj
 0002:00000ef4       $unwind$c2_AsyncIOTransportChannel_readRaw 000000018007cef4     c2_wwtp3.obj
 0002:00000f08       $unwind$c2_AsyncIOTransportChannel_getUnreadData 000000018007cf08     c2_wwtp3.obj
 0002:00000f10       $unwind$c2_BufferChannel_readRaw 000000018007cf10     c2_wwtp3.obj
 0002:00000f18       $unwind$c2_BufferChannel_extractFromPacket 000000018007cf18     c2_wwtp3.obj
 0002:00000f20       $unwind$c2_indexShapeCheck 000000018007cf20     c2_wwtp3.obj
 0002:00000f28       $unwind$c2_InputStream_read 000000018007cf28     c2_wwtp3.obj
 0002:00000f38       $unwind$c2_InputStream_readPartialPacket 000000018007cf38     c2_wwtp3.obj
 0002:00000f40       $unwind$c2_Stream_extractFromPacket 000000018007cf40     c2_wwtp3.obj
 0002:00000f48       $unwind$c2_b_Stream_extractFromPacket 000000018007cf48     c2_wwtp3.obj
 0002:00000f50       $unwind$c2_b_Stream_wait   000000018007cf50     c2_wwtp3.obj
 0002:00000f64       $unwind$c2_InputStream_readPackets 000000018007cf64     c2_wwtp3.obj
 0002:00000f74       $unwind$c2_cat             000000018007cf74     c2_wwtp3.obj
 0002:00000f7c       $unwind$c2_check_forloop_overflow_error 000000018007cf7c     c2_wwtp3.obj
 0002:00000f84       $unwind$c2_b_InputStream_read 000000018007cf84     c2_wwtp3.obj
 0002:00000f94       $unwind$c2_BufferChannel_write 000000018007cf94     c2_wwtp3.obj
 0002:00000fa4       $unwind$c2_i_strcmp        000000018007cfa4     c2_wwtp3.obj
 0002:00000fac       $unwind$c2_b_indexShapeCheck 000000018007cfac     c2_wwtp3.obj
 0002:00000fb4       $unwind$c2_all_in_integer_range 000000018007cfb4     c2_wwtp3.obj
 0002:00000fbc       $unwind$c2_Modbus_flushIO  000000018007cfbc     c2_wwtp3.obj
 0002:00000fc4       $unwind$c2_BufferChannel_flush 000000018007cfc4     c2_wwtp3.obj
 0002:00000fcc       $unwind$c2_Modbus_isReadFunction 000000018007cfcc     c2_wwtp3.obj
 0002:00000fd4       $unwind$c2_DataConverter_convertReadValues 000000018007cfd4     c2_wwtp3.obj
 0002:00000fe4       $unwind$c2_handle_matlabCodegenDestructor 000000018007cfe4     c2_wwtp3.obj
 0002:00000fec       $unwind$c2_b_handle_matlabCodegenDestructor 000000018007cfec     c2_wwtp3.obj
 0002:00000ff4       $unwind$c2_c_handle_matlabCodegenDestructor 000000018007cff4     c2_wwtp3.obj
 0002:00000ffc       $unwind$c2_warning         000000018007cffc     c2_wwtp3.obj
 0002:00001004       $unwind$c2_d_handle_matlabCodegenDestructor 000000018007d004     c2_wwtp3.obj
 0002:0000100c       $unwind$c2_e_handle_matlabCodegenDestructor 000000018007d00c     c2_wwtp3.obj
 0002:00001014       $unwind$c2_Channel_close   000000018007d014     c2_wwtp3.obj
 0002:0000101c       $unwind$c2_emlrt_marshallIn 000000018007d01c     c2_wwtp3.obj
 0002:00001024       $unwind$c2_b_emlrt_marshallIn 000000018007d024     c2_wwtp3.obj
 0002:0000102c       $unwind$c2_c_emlrt_marshallIn 000000018007d02c     c2_wwtp3.obj
 0002:00001034       $unwind$c2_d_emlrt_marshallIn 000000018007d034     c2_wwtp3.obj
 0002:0000103c       $unwind$c2_e_emlrt_marshallIn 000000018007d03c     c2_wwtp3.obj
 0002:00001044       $unwind$c2_f_emlrt_marshallIn 000000018007d044     c2_wwtp3.obj
 0002:00001054       $unwind$c2_g_emlrt_marshallIn 000000018007d054     c2_wwtp3.obj
 0002:0000105c       $unwind$c2_h_emlrt_marshallIn 000000018007d05c     c2_wwtp3.obj
 0002:00001064       $unwind$c2_i_emlrt_marshallIn 000000018007d064     c2_wwtp3.obj
 0002:0000106c       $unwind$c2_j_emlrt_marshallIn 000000018007d06c     c2_wwtp3.obj
 0002:00001074       $unwind$c2_chart_data_browse_helper 000000018007d074     c2_wwtp3.obj
 0002:0000107c       $unwind$c2_feval           000000018007d07c     c2_wwtp3.obj
 0002:00001084       $unwind$c2_length          000000018007d084     c2_wwtp3.obj
 0002:0000108c       $unwind$c2_ver             000000018007d08c     c2_wwtp3.obj
 0002:00001094       $unwind$c2_getfield        000000018007d094     c2_wwtp3.obj
 0002:0000109c       $unwind$c2_matlabroot      000000018007d09c     c2_wwtp3.obj
 0002:000010a4       $unwind$c2_j_strcmp        000000018007d0a4     c2_wwtp3.obj
 0002:000010ac       $unwind$c2_coder_internal_ifWhileCondExtrinsic 000000018007d0ac     c2_wwtp3.obj
 0002:000010b4       $unwind$c2_exist           000000018007d0b4     c2_wwtp3.obj
 0002:000010bc       $unwind$c2_b_coder_internal_ifWhileCondExtrinsic 000000018007d0bc     c2_wwtp3.obj
 0002:000010c4       $unwind$c2_b_exist         000000018007d0c4     c2_wwtp3.obj
 0002:000010cc       $unwind$c2_c_coder_internal_ifWhileCondExtrinsic 000000018007d0cc     c2_wwtp3.obj
 0002:000010d4       $unwind$c2_b_ver           000000018007d0d4     c2_wwtp3.obj
 0002:000010dc       $unwind$c2_b_getfield      000000018007d0dc     c2_wwtp3.obj
 0002:000010e4       $unwind$c2_b_matlabroot    000000018007d0e4     c2_wwtp3.obj
 0002:000010ec       $unwind$c2_k_strcmp        000000018007d0ec     c2_wwtp3.obj
 0002:000010f4       $unwind$c2_d_coder_internal_ifWhileCondExtrinsic 000000018007d0f4     c2_wwtp3.obj
 0002:000010fc       $unwind$c2_c_exist         000000018007d0fc     c2_wwtp3.obj
 0002:00001104       $unwind$c2_e_coder_internal_ifWhileCondExtrinsic 000000018007d104     c2_wwtp3.obj
 0002:0000110c       $unwind$c2_d_exist         000000018007d10c     c2_wwtp3.obj
 0002:00001114       $unwind$c2_f_coder_internal_ifWhileCondExtrinsic 000000018007d114     c2_wwtp3.obj
 0002:0000111c       $unwind$c2_matlab_internal_language_TimerSuspender 000000018007d11c     c2_wwtp3.obj
 0002:00001124       $unwind$c2_b_feval         000000018007d124     c2_wwtp3.obj
 0002:0000112c       $unwind$c2_c_feval         000000018007d12c     c2_wwtp3.obj
 0002:00001134       $unwind$c2_d_feval         000000018007d134     c2_wwtp3.obj
 0002:0000113c       $unwind$c2_emxEnsureCapacity_uint8_T 000000018007d13c     c2_wwtp3.obj
 0002:00001144       $unwind$c2_emxEnsureCapacity_char_T 000000018007d144     c2_wwtp3.obj
 0002:0000114c       $unwind$c2_emxFree_uint8_T 000000018007d14c     c2_wwtp3.obj
 0002:00001154       $unwind$c2_emxFreeStruct_cell_wrap_31 000000018007d154     c2_wwtp3.obj
 0002:0000115c       $unwind$c2_emxTrim_cell_wrap_31_1x1 000000018007d15c     c2_wwtp3.obj
 0002:00001164       $unwind$c2_emxInitStruct_cell_wrap_31 000000018007d164     c2_wwtp3.obj
 0002:0000116c       $unwind$c2_emxInit_uint8_T 000000018007d16c     c2_wwtp3.obj
 0002:00001174       $unwind$c2_emxExpand_cell_wrap_31_1x1 000000018007d174     c2_wwtp3.obj
 0002:0000117c       $unwind$c2_emxEnsureCapacity_cell_wrap_31 000000018007d17c     c2_wwtp3.obj
 0002:00001184       $unwind$c2_emxCopyStruct_cell_wrap_31 000000018007d184     c2_wwtp3.obj
 0002:0000118c       $unwind$c2_emxCopy_uint8_T 000000018007d18c     c2_wwtp3.obj
 0002:00001194       $unwind$c2_emxTrim_cell_wrap_31_1 000000018007d194     c2_wwtp3.obj
 0002:0000119c       $unwind$c2_emxExpand_cell_wrap_31_1 000000018007d19c     c2_wwtp3.obj
 0002:000011a4       $unwind$c2_emxEnsureCapacity_cell_wrap_311 000000018007d1a4     c2_wwtp3.obj
 0002:000011ac       $unwind$c2_emxInitStruct_icomm_interface_m 000000018007d1ac     c2_wwtp3.obj
 0002:000011b4       $unwind$c2_emxInitStruct_icomm_interface_c 000000018007d1b4     c2_wwtp3.obj
 0002:000011bc       $unwind$c2_emxInit_char_T  000000018007d1bc     c2_wwtp3.obj
 0002:000011c4       $unwind$c2_emxInitStruct_matlabshared_netw 000000018007d1c4     c2_wwtp3.obj
 0002:000011cc       $unwind$c2_emxInitStruct_matlabshared_tran 000000018007d1cc     c2_wwtp3.obj
 0002:000011d4       $unwind$c2_emxInitStruct_matlabshared_asyn 000000018007d1d4     c2_wwtp3.obj
 0002:000011dc       $unwind$c2_b_emxInitStruct_matlabshared_asyn 000000018007d1dc     c2_wwtp3.obj
 0002:000011e4       $unwind$c2_c_emxInitStruct_matlabshared_asyn 000000018007d1e4     c2_wwtp3.obj
 0002:000011ec       $unwind$c2_emxInitStruct_s_n2xUWXvqAPN0Osm 000000018007d1ec     c2_wwtp3.obj
 0002:000011f4       $unwind$c2_emxInitStruct_cell_33 000000018007d1f4     c2_wwtp3.obj
 0002:000011fc       $unwind$c2_emxInit_cell_wrap_31_1x1 000000018007d1fc     c2_wwtp3.obj
 0002:00001204       $unwind$c2_emxFree_cell_wrap_31_1x1 000000018007d204     c2_wwtp3.obj
 0002:0000120c       $unwind$c2_emxInit_cell_wrap_31_1 000000018007d20c     c2_wwtp3.obj
 0002:00001214       $unwind$c2_emxFree_cell_wrap_31_1 000000018007d214     c2_wwtp3.obj
 0002:0000121c       $unwind$c2_emxFree_char_T  000000018007d21c     c2_wwtp3.obj
 0002:00001224       $unwind$c2_emxFreeStruct_icomm_interface_c 000000018007d224     c2_wwtp3.obj
 0002:0000122c       $unwind$c2_emxFreeStruct_icomm_interface_m 000000018007d22c     c2_wwtp3.obj
 0002:00001234       $unwind$c2_emxFreeStruct_matlabshared_netw 000000018007d234     c2_wwtp3.obj
 0002:0000123c       $unwind$c2_emxFreeStruct_matlabshared_asyn 000000018007d23c     c2_wwtp3.obj
 0002:00001244       $unwind$c2_b_emxFreeStruct_matlabshared_asyn 000000018007d244     c2_wwtp3.obj
 0002:0000124c       $unwind$c2_emxFreeStruct_matlabshared_tran 000000018007d24c     c2_wwtp3.obj
 0002:00001254       $unwind$c2_c_emxFreeStruct_matlabshared_asyn 000000018007d254     c2_wwtp3.obj
 0002:0000125c       $unwind$c2_emxFreeStruct_s_n2xUWXvqAPN0Osm 000000018007d25c     c2_wwtp3.obj
 0002:00001264       $unwind$c2_emxFreeStruct_cell_33 000000018007d264     c2_wwtp3.obj
 0002:0000126c       $unwind$c2_emxInitStruct_s_puOqsSoDdBk28aK 000000018007d26c     c2_wwtp3.obj
 0002:00001274       $unwind$c2_emxInitStruct_cell_11 000000018007d274     c2_wwtp3.obj
 0002:0000127c       $unwind$c2_emxFreeStruct_s_puOqsSoDdBk28aK 000000018007d27c     c2_wwtp3.obj
 0002:00001284       $unwind$c2_emxFreeStruct_cell_11 000000018007d284     c2_wwtp3.obj
 0002:0000128c       $unwind$c2_emxInitStruct_s_IiVysWyVj7T2O9P 000000018007d28c     c2_wwtp3.obj
 0002:00001294       $unwind$c2_emxInitStruct_cell_17 000000018007d294     c2_wwtp3.obj
 0002:0000129c       $unwind$c2_emxFreeStruct_s_IiVysWyVj7T2O9P 000000018007d29c     c2_wwtp3.obj
 0002:000012a4       $unwind$c2_emxFreeStruct_cell_17 000000018007d2a4     c2_wwtp3.obj
 0002:000012ac       $unwind$c2_emxInitMatrix_cell_wrap_37 000000018007d2ac     c2_wwtp3.obj
 0002:000012b4       $unwind$c2_emxInitStruct_cell_wrap_37 000000018007d2b4     c2_wwtp3.obj
 0002:000012bc       $unwind$c2_emxFreeMatrix_cell_wrap_37 000000018007d2bc     c2_wwtp3.obj
 0002:000012c4       $unwind$c2_emxFreeStruct_cell_wrap_37 000000018007d2c4     c2_wwtp3.obj
 0002:000012cc       $unwind$c2_emxInit_cell_wrap_31 000000018007d2cc     c2_wwtp3.obj
 0002:000012d4       $unwind$c2_emxFree_cell_wrap_31 000000018007d2d4     c2_wwtp3.obj
 0002:000012dc       $unwind$c2_emxTrim_cell_wrap_31 000000018007d2dc     c2_wwtp3.obj
 0002:000012e4       $unwind$c2_emxExpand_cell_wrap_31 000000018007d2e4     c2_wwtp3.obj
 0002:000012ec       $unwind$c2_emxEnsureCapacity_cell_wrap_312 000000018007d2ec     c2_wwtp3.obj
 0002:000012f4       $unwind$c2_emxEnsureCapacity_boolean_T 000000018007d2f4     c2_wwtp3.obj
 0002:000012fc       $unwind$c2_emxInit_boolean_T 000000018007d2fc     c2_wwtp3.obj
 0002:00001304       $unwind$c2_emxFree_boolean_T 000000018007d304     c2_wwtp3.obj
 0002:0000130c       $unwind$c2_emxTrim_cell_wrap_37_1x1 000000018007d30c     c2_wwtp3.obj
 0002:00001314       $unwind$c2_emxExpand_cell_wrap_37_1x1 000000018007d314     c2_wwtp3.obj
 0002:0000131c       $unwind$c2_emxEnsureCapacity_cell_wrap_37 000000018007d31c     c2_wwtp3.obj
 0002:00001324       $unwind$c2_emxCopyStruct_cell_wrap_37 000000018007d324     c2_wwtp3.obj
 0002:0000132c       $unwind$c2_emxTrim_cell_wrap_37_1 000000018007d32c     c2_wwtp3.obj
 0002:00001334       $unwind$c2_emxExpand_cell_wrap_37_1 000000018007d334     c2_wwtp3.obj
 0002:0000133c       $unwind$c2_emxEnsureCapacity_cell_wrap_371 000000018007d33c     c2_wwtp3.obj
 0002:00001344       $unwind$c2_emxInit_cell_wrap_37_1x1 000000018007d344     c2_wwtp3.obj
 0002:0000134c       $unwind$c2_emxFree_cell_wrap_37_1x1 000000018007d34c     c2_wwtp3.obj
 0002:00001354       $unwind$c2_emxInit_cell_wrap_37_1 000000018007d354     c2_wwtp3.obj
 0002:0000135c       $unwind$c2_emxFree_cell_wrap_37_1 000000018007d35c     c2_wwtp3.obj
 0002:00001364       $unwind$init_simulink_io_address 000000018007d364     c2_wwtp3.obj
 0002:0000136c       $unwind$sf_c2_wwtp3_third_party_uses_info 000000018007d36c     c2_wwtp3.obj
 0002:00001374       $unwind$sf_c2_wwtp3_jit_fallback_info 000000018007d374     c2_wwtp3.obj
 0002:00001384       $unwind$sf_c2_wwtp3_updateBuildInfo_args_info 000000018007d384     c2_wwtp3.obj
 0002:0000138c       $unwind$sf_get_sim_state_info_c2_wwtp3 000000018007d38c     c2_wwtp3.obj
 0002:00001394       $unwind$sf_opaque_initialize_c2_wwtp3 000000018007d394     c2_wwtp3.obj
 0002:0000139c       $unwind$sf_opaque_enable_c2_wwtp3 000000018007d39c     c2_wwtp3.obj
 0002:000013a4       $unwind$sf_opaque_disable_c2_wwtp3 000000018007d3a4     c2_wwtp3.obj
 0002:000013ac       $unwind$sf_opaque_gateway_c2_wwtp3 000000018007d3ac     c2_wwtp3.obj
 0002:000013b4       $unwind$sf_opaque_get_sim_state_c2_wwtp3 000000018007d3b4     c2_wwtp3.obj
 0002:000013bc       $unwind$sf_opaque_set_sim_state_c2_wwtp3 000000018007d3bc     c2_wwtp3.obj
 0002:000013c4       $unwind$sf_opaque_cleanup_runtime_resources_c2_wwtp3 000000018007d3c4     c2_wwtp3.obj
 0002:000013cc       $unwind$sf_opaque_mdl_start_c2_wwtp3 000000018007d3cc     c2_wwtp3.obj
 0002:000013d4       $unwind$sf_opaque_mdl_terminate_c2_wwtp3 000000018007d3d4     c2_wwtp3.obj
 0002:000013dc       $unwind$mdlProcessParameters_c2_wwtp3 000000018007d3dc     c2_wwtp3.obj
 0002:000013e4       $unwind$sf_c2_wwtp3_get_post_codegen_info 000000018007d3e4     c2_wwtp3.obj
 0002:000013f4       $unwind$mdlSetWorkWidths_c2_wwtp3 000000018007d3f4     c2_wwtp3.obj
 0002:000013fc       $unwind$mdlRTW_c2_wwtp3    000000018007d3fc     c2_wwtp3.obj
 0002:00001404       $unwind$mdlSetupRuntimeResources_c2_wwtp3 000000018007d404     c2_wwtp3.obj
 0002:0000140c       $unwind$sf_c4_wwtp3_get_eml_resolved_functions_info 000000018007d40c     c4_wwtp3.obj
 0002:00001414       $unwind$sf_c4_wwtp3_get_check_sum 000000018007d414     c4_wwtp3.obj
 0002:0000141c       $unwind$c4_wwtp3_method_dispatcher 000000018007d41c     c4_wwtp3.obj
 0002:00001424       $unwind$initialize_c4_wwtp3 000000018007d424     c4_wwtp3.obj
 0002:0000142c       $unwind$mdl_start_c4_wwtp3 000000018007d42c     c4_wwtp3.obj
 0002:00001434       $unwind$mdl_setup_runtime_resources_c4_wwtp3 000000018007d434     c4_wwtp3.obj
 0002:0000143c       $unwind$mdl_cleanup_runtime_resources_c4_wwtp3 000000018007d43c     c4_wwtp3.obj
 0002:00001444       $unwind$enable_c4_wwtp3    000000018007d444     c4_wwtp3.obj
 0002:0000144c       $unwind$disable_c4_wwtp3   000000018007d44c     c4_wwtp3.obj
 0002:00001454       $unwind$sf_gateway_c4_wwtp3 000000018007d454     c4_wwtp3.obj
 0002:00001464       $unwind$c4_do_animation_call_c4_wwtp3 000000018007d464     c4_wwtp3.obj
 0002:0000146c       $unwind$get_sim_state_c4_wwtp3 000000018007d46c     c4_wwtp3.obj
 0002:00001474       $unwind$set_sim_state_c4_wwtp3 000000018007d474     c4_wwtp3.obj
 0002:0000147c       $unwind$c4_vectorAny       000000018007d47c     c4_wwtp3.obj
 0002:00001484       $unwind$c4_modbus          000000018007d484     c4_wwtp3.obj
 0002:00001498       $unwind$c4_TCPClient_initializeChannel 000000018007d498     c4_wwtp3.obj
 0002:000014ac       $unwind$c4_sprintf         000000018007d4ac     c4_wwtp3.obj
 0002:000014b4       $unwind$c4_API_dispatchInternalError 000000018007d4b4     c4_wwtp3.obj
 0002:000014c4       $unwind$c4_API_trimString  000000018007d4c4     c4_wwtp3.obj
 0002:000014cc       $unwind$c4_strcmp          000000018007d4cc     c4_wwtp3.obj
 0002:000014d4       $unwind$c4_b_strcmp        000000018007d4d4     c4_wwtp3.obj
 0002:000014dc       $unwind$c4_c_strcmp        000000018007d4dc     c4_wwtp3.obj
 0002:000014e4       $unwind$c4_d_strcmp        000000018007d4e4     c4_wwtp3.obj
 0002:000014ec       $unwind$c4_API_channelErrorIfFailed 000000018007d4ec     c4_wwtp3.obj
 0002:000014fc       $unwind$c4_InputStream_InputStream 000000018007d4fc     c4_wwtp3.obj
 0002:00001504       $unwind$c4_InputStream_clearPartialPacket 000000018007d504     c4_wwtp3.obj
 0002:0000150c       $unwind$c4_OutputStream_OutputStream 000000018007d50c     c4_wwtp3.obj
 0002:00001514       $unwind$c4_TCPClient_connect 000000018007d514     c4_wwtp3.obj
 0002:00001528       $unwind$c4_DataConverter_word2bytes 000000018007d528     c4_wwtp3.obj
 0002:00001538       $unwind$c4_e_strcmp        000000018007d538     c4_wwtp3.obj
 0002:00001540       $unwind$c4_b_DataConverter_word2bytes 000000018007d540     c4_wwtp3.obj
 0002:00001550       $unwind$c4_Modbus_executeWrite 000000018007d550     c4_wwtp3.obj
 0002:00001560       $unwind$c4_TCPClient_validateConnected 000000018007d560     c4_wwtp3.obj
 0002:00001568       $unwind$c4_b_API_channelErrorIfFailed 000000018007d568     c4_wwtp3.obj
 0002:00001578       $unwind$c4_Stream_wait     000000018007d578     c4_wwtp3.obj
 0002:0000158c       $unwind$c4_tic             000000018007d58c     c4_wwtp3.obj
 0002:00001598       $unwind$c4_getTime         000000018007d598     c4_wwtp3.obj
 0002:000015ac       $unwind$c4_toc             000000018007d5ac     c4_wwtp3.obj
 0002:000015c0       $unwind$c4_f_strcmp        000000018007d5c0     c4_wwtp3.obj
 0002:000015c8       $unwind$c4_g_strcmp        000000018007d5c8     c4_wwtp3.obj
 0002:000015d0       $unwind$c4_OutputStream_drain 000000018007d5d0     c4_wwtp3.obj
 0002:000015e4       $unwind$c4_h_strcmp        000000018007d5e4     c4_wwtp3.obj
 0002:000015ec       $unwind$c4_Modbus_getWriteResponse 000000018007d5ec     c4_wwtp3.obj
 0002:00001600       $unwind$c4_TCPClient_get_NumBytesAvailable 000000018007d600     c4_wwtp3.obj
 0002:00001608       $unwind$c4_BufferChannel_get_NumElementsAvailable 000000018007d608     c4_wwtp3.obj
 0002:00001610       $unwind$c4_AsyncIOTransportChannel_get_StructData 000000018007d610     c4_wwtp3.obj
 0002:00001618       $unwind$c4_AsyncIOTransportChannel_readRaw 000000018007d618     c4_wwtp3.obj
 0002:0000162c       $unwind$c4_AsyncIOTransportChannel_getUnreadData 000000018007d62c     c4_wwtp3.obj
 0002:00001634       $unwind$c4_BufferChannel_readRaw 000000018007d634     c4_wwtp3.obj
 0002:0000163c       $unwind$c4_BufferChannel_extractFromPacket 000000018007d63c     c4_wwtp3.obj
 0002:00001644       $unwind$c4_indexShapeCheck 000000018007d644     c4_wwtp3.obj
 0002:0000164c       $unwind$c4_InputStream_read 000000018007d64c     c4_wwtp3.obj
 0002:0000165c       $unwind$c4_InputStream_readPartialPacket 000000018007d65c     c4_wwtp3.obj
 0002:00001664       $unwind$c4_Stream_extractFromPacket 000000018007d664     c4_wwtp3.obj
 0002:0000166c       $unwind$c4_b_Stream_extractFromPacket 000000018007d66c     c4_wwtp3.obj
 0002:00001674       $unwind$c4_b_Stream_wait   000000018007d674     c4_wwtp3.obj
 0002:00001688       $unwind$c4_InputStream_readPackets 000000018007d688     c4_wwtp3.obj
 0002:00001698       $unwind$c4_cat             000000018007d698     c4_wwtp3.obj
 0002:000016a0       $unwind$c4_check_forloop_overflow_error 000000018007d6a0     c4_wwtp3.obj
 0002:000016a8       $unwind$c4_b_InputStream_read 000000018007d6a8     c4_wwtp3.obj
 0002:000016b8       $unwind$c4_BufferChannel_write 000000018007d6b8     c4_wwtp3.obj
 0002:000016c8       $unwind$c4_i_strcmp        000000018007d6c8     c4_wwtp3.obj
 0002:000016d0       $unwind$c4_b_indexShapeCheck 000000018007d6d0     c4_wwtp3.obj
 0002:000016d8       $unwind$c4_all_in_integer_range 000000018007d6d8     c4_wwtp3.obj
 0002:000016e0       $unwind$c4_Modbus_flushIO  000000018007d6e0     c4_wwtp3.obj
 0002:000016e8       $unwind$c4_BufferChannel_flush 000000018007d6e8     c4_wwtp3.obj
 0002:000016f0       $unwind$c4_Modbus_translateandGenerateServerError 000000018007d6f0     c4_wwtp3.obj
 0002:000016f8       $unwind$c4_Modbus_isReadFunction 000000018007d6f8     c4_wwtp3.obj
 0002:00001700       $unwind$c4_handle_matlabCodegenDestructor 000000018007d700     c4_wwtp3.obj
 0002:00001708       $unwind$c4_b_handle_matlabCodegenDestructor 000000018007d708     c4_wwtp3.obj
 0002:00001710       $unwind$c4_c_handle_matlabCodegenDestructor 000000018007d710     c4_wwtp3.obj
 0002:00001718       $unwind$c4_warning         000000018007d718     c4_wwtp3.obj
 0002:00001720       $unwind$c4_d_handle_matlabCodegenDestructor 000000018007d720     c4_wwtp3.obj
 0002:00001728       $unwind$c4_e_handle_matlabCodegenDestructor 000000018007d728     c4_wwtp3.obj
 0002:00001730       $unwind$c4_Channel_close   000000018007d730     c4_wwtp3.obj
 0002:00001738       $unwind$c4_emlrt_marshallIn 000000018007d738     c4_wwtp3.obj
 0002:00001740       $unwind$c4_b_emlrt_marshallIn 000000018007d740     c4_wwtp3.obj
 0002:00001748       $unwind$c4_c_emlrt_marshallIn 000000018007d748     c4_wwtp3.obj
 0002:00001750       $unwind$c4_d_emlrt_marshallIn 000000018007d750     c4_wwtp3.obj
 0002:00001758       $unwind$c4_e_emlrt_marshallIn 000000018007d758     c4_wwtp3.obj
 0002:00001760       $unwind$c4_f_emlrt_marshallIn 000000018007d760     c4_wwtp3.obj
 0002:00001770       $unwind$c4_g_emlrt_marshallIn 000000018007d770     c4_wwtp3.obj
 0002:00001778       $unwind$c4_h_emlrt_marshallIn 000000018007d778     c4_wwtp3.obj
 0002:00001780       $unwind$c4_i_emlrt_marshallIn 000000018007d780     c4_wwtp3.obj
 0002:00001788       $unwind$c4_j_emlrt_marshallIn 000000018007d788     c4_wwtp3.obj
 0002:00001790       $unwind$c4_chart_data_browse_helper 000000018007d790     c4_wwtp3.obj
 0002:00001798       $unwind$c4_feval           000000018007d798     c4_wwtp3.obj
 0002:000017a0       $unwind$c4_length          000000018007d7a0     c4_wwtp3.obj
 0002:000017a8       $unwind$c4_ver             000000018007d7a8     c4_wwtp3.obj
 0002:000017b0       $unwind$c4_getfield        000000018007d7b0     c4_wwtp3.obj
 0002:000017b8       $unwind$c4_matlabroot      000000018007d7b8     c4_wwtp3.obj
 0002:000017c0       $unwind$c4_j_strcmp        000000018007d7c0     c4_wwtp3.obj
 0002:000017c8       $unwind$c4_coder_internal_ifWhileCondExtrinsic 000000018007d7c8     c4_wwtp3.obj
 0002:000017d0       $unwind$c4_exist           000000018007d7d0     c4_wwtp3.obj
 0002:000017d8       $unwind$c4_b_coder_internal_ifWhileCondExtrinsic 000000018007d7d8     c4_wwtp3.obj
 0002:000017e0       $unwind$c4_b_exist         000000018007d7e0     c4_wwtp3.obj
 0002:000017e8       $unwind$c4_c_coder_internal_ifWhileCondExtrinsic 000000018007d7e8     c4_wwtp3.obj
 0002:000017f0       $unwind$c4_b_ver           000000018007d7f0     c4_wwtp3.obj
 0002:000017f8       $unwind$c4_b_getfield      000000018007d7f8     c4_wwtp3.obj
 0002:00001800       $unwind$c4_b_matlabroot    000000018007d800     c4_wwtp3.obj
 0002:00001808       $unwind$c4_k_strcmp        000000018007d808     c4_wwtp3.obj
 0002:00001810       $unwind$c4_d_coder_internal_ifWhileCondExtrinsic 000000018007d810     c4_wwtp3.obj
 0002:00001818       $unwind$c4_c_exist         000000018007d818     c4_wwtp3.obj
 0002:00001820       $unwind$c4_e_coder_internal_ifWhileCondExtrinsic 000000018007d820     c4_wwtp3.obj
 0002:00001828       $unwind$c4_d_exist         000000018007d828     c4_wwtp3.obj
 0002:00001830       $unwind$c4_f_coder_internal_ifWhileCondExtrinsic 000000018007d830     c4_wwtp3.obj
 0002:00001838       $unwind$c4_matlab_internal_language_TimerSuspender 000000018007d838     c4_wwtp3.obj
 0002:00001840       $unwind$c4_b_feval         000000018007d840     c4_wwtp3.obj
 0002:00001848       $unwind$c4_c_feval         000000018007d848     c4_wwtp3.obj
 0002:00001850       $unwind$c4_d_feval         000000018007d850     c4_wwtp3.obj
 0002:00001858       $unwind$c4_emxEnsureCapacity_uint8_T 000000018007d858     c4_wwtp3.obj
 0002:00001860       $unwind$c4_emxEnsureCapacity_char_T 000000018007d860     c4_wwtp3.obj
 0002:00001868       $unwind$c4_emxInitStruct_icomm_interface_m 000000018007d868     c4_wwtp3.obj
 0002:00001870       $unwind$c4_emxInitStruct_icomm_interface_c 000000018007d870     c4_wwtp3.obj
 0002:00001878       $unwind$c4_emxInit_char_T  000000018007d878     c4_wwtp3.obj
 0002:00001880       $unwind$c4_emxInitStruct_matlabshared_netw 000000018007d880     c4_wwtp3.obj
 0002:00001888       $unwind$c4_emxInitStruct_matlabshared_tran 000000018007d888     c4_wwtp3.obj
 0002:00001890       $unwind$c4_emxInitStruct_matlabshared_asyn 000000018007d890     c4_wwtp3.obj
 0002:00001898       $unwind$c4_b_emxInitStruct_matlabshared_asyn 000000018007d898     c4_wwtp3.obj
 0002:000018a0       $unwind$c4_emxInit_uint8_T 000000018007d8a0     c4_wwtp3.obj
 0002:000018a8       $unwind$c4_c_emxInitStruct_matlabshared_asyn 000000018007d8a8     c4_wwtp3.obj
 0002:000018b0       $unwind$c4_emxFree_char_T  000000018007d8b0     c4_wwtp3.obj
 0002:000018b8       $unwind$c4_emxFreeStruct_icomm_interface_c 000000018007d8b8     c4_wwtp3.obj
 0002:000018c0       $unwind$c4_emxFreeStruct_icomm_interface_m 000000018007d8c0     c4_wwtp3.obj
 0002:000018c8       $unwind$c4_emxFreeStruct_matlabshared_netw 000000018007d8c8     c4_wwtp3.obj
 0002:000018d0       $unwind$c4_emxFree_uint8_T 000000018007d8d0     c4_wwtp3.obj
 0002:000018d8       $unwind$c4_emxFreeStruct_matlabshared_asyn 000000018007d8d8     c4_wwtp3.obj
 0002:000018e0       $unwind$c4_b_emxFreeStruct_matlabshared_asyn 000000018007d8e0     c4_wwtp3.obj
 0002:000018e8       $unwind$c4_emxFreeStruct_matlabshared_tran 000000018007d8e8     c4_wwtp3.obj
 0002:000018f0       $unwind$c4_c_emxFreeStruct_matlabshared_asyn 000000018007d8f0     c4_wwtp3.obj
 0002:000018f8       $unwind$c4_emxInitStruct_s_puOqsSoDdBk28aK 000000018007d8f8     c4_wwtp3.obj
 0002:00001900       $unwind$c4_emxInitStruct_cell_11 000000018007d900     c4_wwtp3.obj
 0002:00001908       $unwind$c4_emxFreeStruct_s_puOqsSoDdBk28aK 000000018007d908     c4_wwtp3.obj
 0002:00001910       $unwind$c4_emxFreeStruct_cell_11 000000018007d910     c4_wwtp3.obj
 0002:00001918       $unwind$c4_emxInitStruct_s_IiVysWyVj7T2O9P 000000018007d918     c4_wwtp3.obj
 0002:00001920       $unwind$c4_emxInitStruct_cell_17 000000018007d920     c4_wwtp3.obj
 0002:00001928       $unwind$c4_emxFreeStruct_s_IiVysWyVj7T2O9P 000000018007d928     c4_wwtp3.obj
 0002:00001930       $unwind$c4_emxFreeStruct_cell_17 000000018007d930     c4_wwtp3.obj
 0002:00001938       $unwind$c4_emxFreeStruct_cell_wrap_33 000000018007d938     c4_wwtp3.obj
 0002:00001940       $unwind$c4_emxTrim_cell_wrap_33_1x1 000000018007d940     c4_wwtp3.obj
 0002:00001948       $unwind$c4_emxInitStruct_cell_wrap_33 000000018007d948     c4_wwtp3.obj
 0002:00001950       $unwind$c4_emxExpand_cell_wrap_33_1x1 000000018007d950     c4_wwtp3.obj
 0002:00001958       $unwind$c4_emxEnsureCapacity_cell_wrap_33 000000018007d958     c4_wwtp3.obj
 0002:00001960       $unwind$c4_emxCopyStruct_cell_wrap_33 000000018007d960     c4_wwtp3.obj
 0002:00001968       $unwind$c4_emxCopy_uint8_T 000000018007d968     c4_wwtp3.obj
 0002:00001970       $unwind$c4_emxTrim_cell_wrap_33_1 000000018007d970     c4_wwtp3.obj
 0002:00001978       $unwind$c4_emxExpand_cell_wrap_33_1 000000018007d978     c4_wwtp3.obj
 0002:00001980       $unwind$c4_emxEnsureCapacity_cell_wrap_331 000000018007d980     c4_wwtp3.obj
 0002:00001988       $unwind$c4_emxInitStruct_s_n2xUWXvqAPN0Osm 000000018007d988     c4_wwtp3.obj
 0002:00001990       $unwind$c4_emxInitStruct_cell_35 000000018007d990     c4_wwtp3.obj
 0002:00001998       $unwind$c4_emxInit_cell_wrap_33_1x1 000000018007d998     c4_wwtp3.obj
 0002:000019a0       $unwind$c4_emxFree_cell_wrap_33_1x1 000000018007d9a0     c4_wwtp3.obj
 0002:000019a8       $unwind$c4_emxInit_cell_wrap_33_1 000000018007d9a8     c4_wwtp3.obj
 0002:000019b0       $unwind$c4_emxFree_cell_wrap_33_1 000000018007d9b0     c4_wwtp3.obj
 0002:000019b8       $unwind$c4_emxFreeStruct_s_n2xUWXvqAPN0Osm 000000018007d9b8     c4_wwtp3.obj
 0002:000019c0       $unwind$c4_emxFreeStruct_cell_35 000000018007d9c0     c4_wwtp3.obj
 0002:000019c8       $unwind$c4_emxInitMatrix_cell_wrap_38 000000018007d9c8     c4_wwtp3.obj
 0002:000019d0       $unwind$c4_emxInitStruct_cell_wrap_38 000000018007d9d0     c4_wwtp3.obj
 0002:000019d8       $unwind$c4_emxFreeMatrix_cell_wrap_38 000000018007d9d8     c4_wwtp3.obj
 0002:000019e0       $unwind$c4_emxFreeStruct_cell_wrap_38 000000018007d9e0     c4_wwtp3.obj
 0002:000019e8       $unwind$c4_emxInit_cell_wrap_33 000000018007d9e8     c4_wwtp3.obj
 0002:000019f0       $unwind$c4_emxFree_cell_wrap_33 000000018007d9f0     c4_wwtp3.obj
 0002:000019f8       $unwind$c4_emxTrim_cell_wrap_33 000000018007d9f8     c4_wwtp3.obj
 0002:00001a00       $unwind$c4_emxExpand_cell_wrap_33 000000018007da00     c4_wwtp3.obj
 0002:00001a08       $unwind$c4_emxEnsureCapacity_cell_wrap_332 000000018007da08     c4_wwtp3.obj
 0002:00001a10       $unwind$c4_emxEnsureCapacity_boolean_T 000000018007da10     c4_wwtp3.obj
 0002:00001a18       $unwind$c4_emxInit_boolean_T 000000018007da18     c4_wwtp3.obj
 0002:00001a20       $unwind$c4_emxFree_boolean_T 000000018007da20     c4_wwtp3.obj
 0002:00001a28       $unwind$c4_emxTrim_cell_wrap_38_1x1 000000018007da28     c4_wwtp3.obj
 0002:00001a30       $unwind$c4_emxExpand_cell_wrap_38_1x1 000000018007da30     c4_wwtp3.obj
 0002:00001a38       $unwind$c4_emxEnsureCapacity_cell_wrap_38 000000018007da38     c4_wwtp3.obj
 0002:00001a40       $unwind$c4_emxCopyStruct_cell_wrap_38 000000018007da40     c4_wwtp3.obj
 0002:00001a48       $unwind$c4_emxTrim_cell_wrap_38_1 000000018007da48     c4_wwtp3.obj
 0002:00001a50       $unwind$c4_emxExpand_cell_wrap_38_1 000000018007da50     c4_wwtp3.obj
 0002:00001a58       $unwind$c4_emxEnsureCapacity_cell_wrap_381 000000018007da58     c4_wwtp3.obj
 0002:00001a60       $unwind$c4_emxInit_cell_wrap_38_1x1 000000018007da60     c4_wwtp3.obj
 0002:00001a68       $unwind$c4_emxFree_cell_wrap_38_1x1 000000018007da68     c4_wwtp3.obj
 0002:00001a70       $unwind$c4_emxInit_cell_wrap_38_1 000000018007da70     c4_wwtp3.obj
 0002:00001a78       $unwind$c4_emxFree_cell_wrap_38_1 000000018007da78     c4_wwtp3.obj
 0002:00001a80       $unwind$init_simulink_io_address 000000018007da80     c4_wwtp3.obj
 0002:00001a88       $unwind$sf_c4_wwtp3_third_party_uses_info 000000018007da88     c4_wwtp3.obj
 0002:00001a90       $unwind$sf_c4_wwtp3_jit_fallback_info 000000018007da90     c4_wwtp3.obj
 0002:00001aa0       $unwind$sf_c4_wwtp3_updateBuildInfo_args_info 000000018007daa0     c4_wwtp3.obj
 0002:00001aa8       $unwind$sf_get_sim_state_info_c4_wwtp3 000000018007daa8     c4_wwtp3.obj
 0002:00001ab0       $unwind$sf_opaque_initialize_c4_wwtp3 000000018007dab0     c4_wwtp3.obj
 0002:00001ab8       $unwind$sf_opaque_enable_c4_wwtp3 000000018007dab8     c4_wwtp3.obj
 0002:00001ac0       $unwind$sf_opaque_disable_c4_wwtp3 000000018007dac0     c4_wwtp3.obj
 0002:00001ac8       $unwind$sf_opaque_gateway_c4_wwtp3 000000018007dac8     c4_wwtp3.obj
 0002:00001ad0       $unwind$sf_opaque_get_sim_state_c4_wwtp3 000000018007dad0     c4_wwtp3.obj
 0002:00001ad8       $unwind$sf_opaque_set_sim_state_c4_wwtp3 000000018007dad8     c4_wwtp3.obj
 0002:00001ae0       $unwind$sf_opaque_cleanup_runtime_resources_c4_wwtp3 000000018007dae0     c4_wwtp3.obj
 0002:00001ae8       $unwind$sf_opaque_mdl_start_c4_wwtp3 000000018007dae8     c4_wwtp3.obj
 0002:00001af0       $unwind$sf_opaque_mdl_terminate_c4_wwtp3 000000018007daf0     c4_wwtp3.obj
 0002:00001af8       $unwind$mdlProcessParameters_c4_wwtp3 000000018007daf8     c4_wwtp3.obj
 0002:00001b00       $unwind$sf_c4_wwtp3_get_post_codegen_info 000000018007db00     c4_wwtp3.obj
 0002:00001b10       $unwind$mdlSetWorkWidths_c4_wwtp3 000000018007db10     c4_wwtp3.obj
 0002:00001b18       $unwind$mdlRTW_c4_wwtp3    000000018007db18     c4_wwtp3.obj
 0002:00001b20       $unwind$mdlSetupRuntimeResources_c4_wwtp3 000000018007db20     c4_wwtp3.obj
 0002:00001b28       $unwind$_vsnprintf_l       000000018007db28     wwtp3_sfun_registry.obj
 0002:00001b30       $unwind$_vsprintf_l        000000018007db30     wwtp3_sfun_registry.obj
 0002:00001b38       $unwind$sprintf            000000018007db38     wwtp3_sfun_registry.obj
 0002:00001b40       $unwind$mexFunction        000000018007db40     wwtp3_sfun_registry.obj
 0002:00001b50       $unwind$_ssSetInputPortDirectFeedThroughFcn 000000018007db50     wwtp3_sfun_registry.obj
 0002:00001b60       $unwind$_ssSetRWorkValueFcn 000000018007db60     wwtp3_sfun_registry.obj
 0002:00001b68       $unwind$_ssGetRWorkValueFcn 000000018007db68     wwtp3_sfun_registry.obj
 0002:00001b70       $unwind$_ssSetIWorkValueFcn 000000018007db70     wwtp3_sfun_registry.obj
 0002:00001b78       $unwind$_ssGetIWorkValueFcn 000000018007db78     wwtp3_sfun_registry.obj
 0002:00001b80       $unwind$_ssSetPWorkValueFcn 000000018007db80     wwtp3_sfun_registry.obj
 0002:00001b88       $unwind$_ssGetPWorkValueFcn 000000018007db88     wwtp3_sfun_registry.obj
 0002:00001b90       $unwind$_ssGetInputPortSignalFcn 000000018007db90     wwtp3_sfun_registry.obj
 0002:00001ba0       $unwind$_ssGetInputPortBufferDstPortFcn 000000018007dba0     wwtp3_sfun_registry.obj
 0002:00001ba8       $unwind$_ssGetInputPortSignalPtrsFcn 000000018007dba8     wwtp3_sfun_registry.obj
 0002:00001bb8       $unwind$ssGetParameterTuningCompliance 000000018007dbb8     wwtp3_sfun_registry.obj
 0002:00001bc0       $unwind$_ssReadInputStringFcn 000000018007dbc0     wwtp3_sfun_registry.obj
 0002:00001bc8       $unwind$ssGetDTypeIdFromMxArray 000000018007dbc8     wwtp3_sfun_registry.obj
 0002:00001bd0       $unwind$ssWriteRTWMx2dMatParam 000000018007dbd0     wwtp3_sfun_registry.obj
 0002:00001bd8       $unwind$ssWriteRTWMxVectParam 000000018007dbd8     wwtp3_sfun_registry.obj
 0002:00001be0       $unwind$ssWriteRTWParameters 000000018007dbe0     wwtp3_sfun_registry.obj
 0002:00001be8       $unwind$ssWriteRTWParamSettings 000000018007dbe8     wwtp3_sfun_registry.obj
 0002:00001bf0       $unwind$ssWriteRTWStr      000000018007dbf0     wwtp3_sfun_registry.obj
 0002:00001bf8       $unwind$ssWriteRTWWorkVect 000000018007dbf8     wwtp3_sfun_registry.obj
 0002:00001c0c       $unwind$ssWarning          000000018007dc0c     wwtp3_sfun_registry.obj
 0002:00001c20       $unwind$ssGetRootSS        000000018007dc20     wwtp3_sfun_registry.obj
 0002:00001c28       $unwind$ssGetParentSS      000000018007dc28     wwtp3_sfun_registry.obj
 0002:00001c30       $unwind$ssWriteRTWNameValuePair 000000018007dc30     wwtp3_sfun_registry.obj
 0002:00001c38       $unwind$_ssSetInputPortMatrixDimensions 000000018007dc38     wwtp3_sfun_registry.obj
 0002:00001c44       $unwind$_ssSetOutputPortMatrixDimensions 000000018007dc44     wwtp3_sfun_registry.obj
 0002:00001c50       $unwind$_ssSetInputPortVectorDimension 000000018007dc50     wwtp3_sfun_registry.obj
 0002:00001c5c       $unwind$_ssSetOutputPortVectorDimension 000000018007dc5c     wwtp3_sfun_registry.obj
 0002:00001c68       $unwind$ssIsRunTimeParamTunable 000000018007dc68     wwtp3_sfun_registry.obj
 0002:00001c70       $unwind$ssGetSFuncBlockHandle 000000018007dc70     wwtp3_sfun_registry.obj
 0002:00001c78       $unwind$_ssGetCallSystemNumFcnCallDestinations 000000018007dc78     wwtp3_sfun_registry.obj
 0002:00001c80       $unwind$_ssGetCurrentInputPortWidth 000000018007dc80     wwtp3_sfun_registry.obj
 0002:00001c88       $unwind$_ssGetCurrentOutputPortWidth 000000018007dc88     wwtp3_sfun_registry.obj
 0002:00001c90       $unwind$ssGetIsZeroCrossControlDisabled 000000018007dc90     wwtp3_sfun_registry.obj
 0002:00001c98       $unwind$ssSetIsInputPortUsedForContZcSignal 000000018007dc98     wwtp3_sfun_registry.obj
 0002:00001ca0       $unwind$ssSetZcSignalIsZcElementDisc 000000018007dca0     wwtp3_sfun_registry.obj
 0002:00001cb0       $unwind$ssSetZcSignalName  000000018007dcb0     wwtp3_sfun_registry.obj
 0002:00001cb8       $unwind$ssSetZcSignalWidth 000000018007dcb8     wwtp3_sfun_registry.obj
 0002:00001cc0       $unwind$ssSetZcSignalZcEventType 000000018007dcc0     wwtp3_sfun_registry.obj
 0002:00001cc8       $unwind$ssSetZcSignalType  000000018007dcc8     wwtp3_sfun_registry.obj
 0002:00001cd0       $unwind$ssSetZcSignalZcTol 000000018007dcd0     wwtp3_sfun_registry.obj
 0002:00001cd8       $unwind$ssSetZcSignalNeedsEventNotification 000000018007dcd8     wwtp3_sfun_registry.obj
 0002:00001ce0       $unwind$ssCreateAndAddZcSignalInfo 000000018007dce0     wwtp3_sfun_registry.obj
 0002:00001ce8       $unwind$ssCloneAndAddZcSignalInfo 000000018007dce8     wwtp3_sfun_registry.obj
 0002:00001cf0       $unwind$ssGetNumZcSignals  000000018007dcf0     wwtp3_sfun_registry.obj
 0002:00001cf8       $unwind$ssGetZcSignalVector 000000018007dcf8     wwtp3_sfun_registry.obj
 0002:00001d00       $unwind$ssGetZcSignalName  000000018007dd00     wwtp3_sfun_registry.obj
 0002:00001d08       $unwind$ssGetZcSignalWidth 000000018007dd08     wwtp3_sfun_registry.obj
 0002:00001d10       $unwind$ssGetZcSignalZcEventType 000000018007dd10     wwtp3_sfun_registry.obj
 0002:00001d18       $unwind$ssGetZcSignalZcEvents 000000018007dd18     wwtp3_sfun_registry.obj
 0002:00001d20       $unwind$ssGetZcSignalType  000000018007dd20     wwtp3_sfun_registry.obj
 0002:00001d28       $unwind$ssGetZcSignalZcTol 000000018007dd28     wwtp3_sfun_registry.obj
 0002:00001d30       $unwind$ssGetZcSignalNeedsEventNotification 000000018007dd30     wwtp3_sfun_registry.obj
 0002:00001d38       $unwind$ssGetZcSignalIsZcElementDisc 000000018007dd38     wwtp3_sfun_registry.obj
 0002:00001d48       $unwind$ssGetIsInputPortElementContinuous 000000018007dd48     wwtp3_sfun_registry.obj
 0002:00001d58       $unwind$_ssGetAbsTol       000000018007dd58     wwtp3_sfun_registry.obj
 0002:00001d60       $unwind$_ssSetInputPortReusableFcn 000000018007dd60     wwtp3_sfun_registry.obj
 0002:00001d68       $unwind$_ssSetOutputPortReusableFcn 000000018007dd68     wwtp3_sfun_registry.obj
 0002:00001d70       $unwind$_ssSetSymbolicDimsSupport 000000018007dd70     wwtp3_sfun_registry.obj
 0002:00001d78       $unwind$_ssRegisterSymbolicDimsExpr 000000018007dd78     wwtp3_sfun_registry.obj
 0002:00001d80       $unwind$_ssRegisterSymbolicDimsMATLABExpr 000000018007dd80     wwtp3_sfun_registry.obj
 0002:00001d88       $unwind$_ssRegisterSymbolicDims 000000018007dd88     wwtp3_sfun_registry.obj
 0002:00001d90       $unwind$_ssRegisterSymbolicDimsString 000000018007dd90     wwtp3_sfun_registry.obj
 0002:00001d98       $unwind$_ssRegisterSymbolicDimsIntValue 000000018007dd98     wwtp3_sfun_registry.obj
 0002:00001da0       $unwind$_ssRegisterSymbolicEqualRelation 000000018007dda0     wwtp3_sfun_registry.obj
 0002:00001da8       $unwind$_ssRegisterSymbolicEqualValue 000000018007dda8     wwtp3_sfun_registry.obj
 0002:00001db0       $unwind$_ssAmendLeadingSymbolicDims 000000018007ddb0     wwtp3_sfun_registry.obj
 0002:00001db8       $unwind$_ssAmendTrailingSymbolicDims 000000018007ddb8     wwtp3_sfun_registry.obj
 0002:00001dc0       $unwind$_ssRegisterSymbolicDimsPlus 000000018007ddc0     wwtp3_sfun_registry.obj
 0002:00001dc8       $unwind$_ssRegisterSymbolicDimsMinus 000000018007ddc8     wwtp3_sfun_registry.obj
 0002:00001dd0       $unwind$_ssRegisterSymbolicDimsMultiply 000000018007ddd0     wwtp3_sfun_registry.obj
 0002:00001dd8       $unwind$_ssRegisterSymbolicDimsDivide 000000018007ddd8     wwtp3_sfun_registry.obj
 0002:00001de0       $unwind$_ssGetNumSymbolicDims 000000018007dde0     wwtp3_sfun_registry.obj
 0002:00001de8       $unwind$_ssGetSymbolicDim  000000018007dde8     wwtp3_sfun_registry.obj
 0002:00001df0       $unwind$_ssSetInputPortSymbolicDimsId 000000018007ddf0     wwtp3_sfun_registry.obj
 0002:00001df8       $unwind$_ssGetCompInputPortSymbolicDimsId 000000018007ddf8     wwtp3_sfun_registry.obj
 0002:00001e00       $unwind$_ssSetCompInputPortSymbolicDimsId 000000018007de00     wwtp3_sfun_registry.obj
 0002:00001e08       $unwind$_ssSetOutputPortSymbolicDimsId 000000018007de08     wwtp3_sfun_registry.obj
 0002:00001e10       $unwind$_ssGetCompOutputPortSymbolicDimsId 000000018007de10     wwtp3_sfun_registry.obj
 0002:00001e18       $unwind$_ssSetCompOutputPortSymbolicDimsId 000000018007de18     wwtp3_sfun_registry.obj
 0002:00001e20       $unwind$_ssGetDWorkSymbolicDimsId 000000018007de20     wwtp3_sfun_registry.obj
 0002:00001e28       $unwind$_ssSetDWorkSymbolicDimsId 000000018007de28     wwtp3_sfun_registry.obj
 0002:00001e30       $unwind$_ssGetCompDWorkSymbolicDimsId 000000018007de30     wwtp3_sfun_registry.obj
 0002:00001e38       $unwind$_ssSetCompDWorkSymbolicDimsId 000000018007de38     wwtp3_sfun_registry.obj
 0002:00001e40       $unwind$_ssCreateSLCGStringBuffer 000000018007de40     wwtp3_sfun_registry.obj
 0002:00001e48       $unwind$_ssAddToSLCGStringBuffer 000000018007de48     wwtp3_sfun_registry.obj
 0002:00001e50       $unwind$_ssGetPointerContainedData 000000018007de50     wwtp3_sfun_registry.obj
 0002:00001e58       $unwind$_ssGetPointerContainedDataWidth 000000018007de58     wwtp3_sfun_registry.obj
 0002:00001e60       $unwind$_ssRegisterDynamicArrayDataTypeFcn 000000018007de60     wwtp3_sfun_registry.obj
 0002:00001e68       $unwind$_ssGetDynamicArrayContainedDataCurrentWidthFcn 000000018007de68     wwtp3_sfun_registry.obj
 0002:00001e70       $unwind$_ssGetDynamicArrayContainedDataFcn 000000018007de70     wwtp3_sfun_registry.obj
 0002:00001e78       $unwind$_ssGetInputPortDynamicArrayDataFcn 000000018007de78     wwtp3_sfun_registry.obj
 0002:00001e80       $unwind$_ssGetOutputPortDynamicArrayDataFcn 000000018007de80     wwtp3_sfun_registry.obj
 0002:00001e88       $unwind$_ssGetInputPortDynamicArrayContainedDataFcn 000000018007de88     wwtp3_sfun_registry.obj
 0002:00001e90       $unwind$_ssGetOutputPortDynamicArrayContainedDataFcn 000000018007de90     wwtp3_sfun_registry.obj
 0002:00001e98       $unwind$_ssGetDynamicArrayDWorkContainedDataFcn 000000018007de98     wwtp3_sfun_registry.obj
 0002:00001ea0       $unwind$sf_process_check_sum_call 000000018007dea0     wwtp3_sfun_registry.obj
 0002:00001ea8       $unwind$sf_process_get_third_party_uses_info_call 000000018007dea8     wwtp3_sfun_registry.obj
 0002:00001eb8       $unwind$sf_process_get_jit_fallback_info_call 000000018007deb8     wwtp3_sfun_registry.obj
 0002:00001ec8       $unwind$sf_process_get_post_codegen_info_call 000000018007dec8     wwtp3_sfun_registry.obj
 0002:00001ed8       $unwind$sf_process_get_updateBuildInfo_args_info_call 000000018007ded8     wwtp3_sfun_registry.obj
 0002:00001ee8       $unwind$sf_process_get_eml_resolved_functions_info_call 000000018007dee8     wwtp3_sfun_registry.obj
 0002:00001ef8       $unwind$sf_mex_unlock_call 000000018007def8     wwtp3_sfun_registry.obj
 0002:00001f08       $unwind$ProcessMexSfunctionCmdLineCall 000000018007df08     wwtp3_sfun_registry.obj
 0002:00001f10       $unwind$sf_machine_global_initializer_called 000000018007df10     wwtp3_sfun_registry.obj
 0002:00001f18       $unwind$sf_machine_global_method_dispatcher 000000018007df18     wwtp3_sfun_registry.obj
 0002:00001f20       $unwind$sf_machine_global_terminator 000000018007df20     wwtp3_sfun_registry.obj
 0002:00001f28       $unwind$sf_register_machine_exported_symbols 000000018007df28     wwtp3_sfun_registry.obj
 0002:00001f30       $unwind$sf_machine_global_initializer 000000018007df30     wwtp3_sfun_registry.obj
 0002:00001f38       $unwind$mdlGetSimState     000000018007df38     wwtp3_sfun_registry.obj
 0002:00001f40       $unwind$mdlSetSimState     000000018007df40     wwtp3_sfun_registry.obj
 0002:00001f48       $unwind$mdlSetWorkWidths   000000018007df48     wwtp3_sfun_registry.obj
 0002:00001f50       $unwind$mdlProcessParameters 000000018007df50     wwtp3_sfun_registry.obj
 0002:00001f58       $unwind$mdl_setup_runtime_resources_processing 000000018007df58     wwtp3_sfun_registry.obj
 0002:00001f60       $unwind$mdlSetupRuntimeResources 000000018007df60     wwtp3_sfun_registry.obj
 0002:00001f68       $unwind$mdl_cleanup_runtime_resources_processing 000000018007df68     wwtp3_sfun_registry.obj
 0002:00001f70       $unwind$mdlCleanupRuntimeResources 000000018007df70     wwtp3_sfun_registry.obj
 0002:00001f78       $unwind$mdl_start_processing 000000018007df78     wwtp3_sfun_registry.obj
 0002:00001f80       $unwind$mdlStart           000000018007df80     wwtp3_sfun_registry.obj
 0002:00001f88       $unwind$mdl_terminate_processing 000000018007df88     wwtp3_sfun_registry.obj
 0002:00001f90       $unwind$mdlTerminate       000000018007df90     wwtp3_sfun_registry.obj
 0002:00001f98       $unwind$mdlInitializeSizes 000000018007df98     wwtp3_sfun_registry.obj
 0002:00001fa0       $unwind$mdlInitializeSampleTimes 000000018007dfa0     wwtp3_sfun_registry.obj
 0002:00001fa8       $unwind$mdl_outputs_continuous_legacy 000000018007dfa8     wwtp3_sfun_registry.obj
 0002:00001fb0       $unwind$mdl_outputs_processing 000000018007dfb0     wwtp3_sfun_registry.obj
 0002:00001fb8       $unwind$mdl_zeroCrossings_processing 000000018007dfb8     wwtp3_sfun_registry.obj
 0002:00001fc0       $unwind$mdlZeroCrossings   000000018007dfc0     wwtp3_sfun_registry.obj
 0002:00001fc8       $unwind$mdl_derivatives_processing 000000018007dfc8     wwtp3_sfun_registry.obj
 0002:00001fd0       $unwind$mdlDerivatives     000000018007dfd0     wwtp3_sfun_registry.obj
 0002:00001fd8       $unwind$mdl_initialize_conditions_processing 000000018007dfd8     wwtp3_sfun_registry.obj
 0002:00001fe0       $unwind$mdlInitializeConditions 000000018007dfe0     wwtp3_sfun_registry.obj
 0002:00001fe8       $unwind$mdl_ext_mode_exec_processing 000000018007dfe8     wwtp3_sfun_registry.obj
 0002:00001ff0       $unwind$mdlExtModeExec     000000018007dff0     wwtp3_sfun_registry.obj
 0002:00001ff8       $unwind$mdlRTW             000000018007dff8     wwtp3_sfun_registry.obj
 0002:00002000       $unwind$mdl_enable_processing 000000018007e000     wwtp3_sfun_registry.obj
 0002:00002008       $unwind$mdlEnable          000000018007e008     wwtp3_sfun_registry.obj
 0002:00002010       $unwind$mdl_disable_processing 000000018007e010     wwtp3_sfun_registry.obj
 0002:00002018       $unwind$mdlDisable         000000018007e018     wwtp3_sfun_registry.obj
 0002:00002020       $unwind$mdlOutputs         000000018007e020     wwtp3_sfun_registry.obj
 0002:00002028       $unwind$mdl_update_processing 000000018007e028     wwtp3_sfun_registry.obj
 0002:00002030       $unwind$mdlUpdate          000000018007e030     wwtp3_sfun_registry.obj
 0002:00002038       $unwind$ProcessMexSfunctionEveryCall 000000018007e038     wwtp3_sfun_registry.obj
 0002:00002040       $unwind$_RegNumInputPortsCB 000000018007e040     wwtp3_sfun_registry.obj
 0002:00002048       $unwind$_RegNumOutputPortsCB 000000018007e048     wwtp3_sfun_registry.obj
 0002:00002050       $unwind$_CreateSimStruct   000000018007e050     wwtp3_sfun_registry.obj
 0002:00002058       $unwind$_ProcessMexSfunctionCmdLineCall 000000018007e058     wwtp3_sfun_registry.obj
 0002:00002068       $unwind$ReportIndexOutOfBoundsError 000000018007e068     wwtp3_sfun_registry.obj
 0002:00002078       $unwind$getBitfieldFromFloat 000000018007e078     half_type.obj
 0002:00002080       $unwind$getFloatFromBitfield 000000018007e080     half_type.obj
 0002:00002088       $unwind$getHalfFromBitfield 000000018007e088     half_type.obj
 0002:00002090       $unwind$halfToFloat        000000018007e090     half_type.obj
 0002:00002098       $unwind$halfToDouble       000000018007e098     half_type.obj
 0002:000020a0       $unwind$floatToHalf        000000018007e0a0     half_type.obj
 0002:000020a8       $unwind$doubleToHalf       000000018007e0a8     half_type.obj
 0002:000020b0       $unwind$__report_securityfailure 000000018007e0b0     MSVCRT:gs_report.obj
 0002:000020b8       $unwind$__report_securityfailureEx 000000018007e0b8     MSVCRT:gs_report.obj
 0002:000020c0       $unwind$__report_rangecheckfailure 000000018007e0c0     MSVCRT:gs_report.obj
 0002:000020c8       $unwind$__report_gsfailure 000000018007e0c8     MSVCRT:gs_report.obj
 0002:000020d0       $unwind$capture_current_context 000000018007e0d0     MSVCRT:gs_report.obj
 0002:000020dc       $unwind$capture_previous_context 000000018007e0dc     MSVCRT:gs_report.obj
 0002:000020e8       $unwind$__raise_securityfailure 000000018007e0e8     MSVCRT:gs_report.obj
 0002:000020f0       $unwind$__GSHandlerCheckCommon 000000018007e0f0     MSVCRT:gshandler.obj
 0002:000020f8       $unwind$__GSHandlerCheck   000000018007e0f8     MSVCRT:gshandler.obj
 0002:00002100       $xdatasym                  000000018007e100     MSVCRT:amdsecgs.obj
 0002:00002108       $xdatasym                  000000018007e108     MSVCRT:chkstk.obj
 0002:00002110       $unwind$?dllmain_crt_process_attach@@YAHQEAUHINSTANCE__@@QEAX@Z 000000018007e110     MSVCRT:dll_dllmain.obj
 0002:0000214c       $unwind$?fin$0@?0??dllmain_crt_process_attach@@YAHQEAUHINSTANCE__@@QEAX@Z@4HA 000000018007e14c     MSVCRT:dll_dllmain.obj
 0002:00002154       $unwind$?dllmain_crt_process_detach@@YAH_N@Z 000000018007e154     MSVCRT:dll_dllmain.obj
 0002:000021a8       $unwind$?fin$0@?0??dllmain_crt_process_detach@@YAH_N@Z@4HA 000000018007e1a8     MSVCRT:dll_dllmain.obj
 0002:000021b0       $unwind$?fin$1@?0??dllmain_crt_process_detach@@YAH_N@Z@4HA 000000018007e1b0     MSVCRT:dll_dllmain.obj
 0002:000021b8       $unwind$?dllmain_crt_dispatch@@YAHQEAUHINSTANCE__@@KQEAX@Z 000000018007e1b8     MSVCRT:dll_dllmain.obj
 0002:000021c0       $unwind$?dllmain_dispatch@@YAHQEAUHINSTANCE__@@KQEAX@Z 000000018007e1c0     MSVCRT:dll_dllmain.obj
 0002:000021e8       $unwind$?filt$0@?0??dllmain_dispatch@@YAHQEAUHINSTANCE__@@KQEAX@Z@4HA 000000018007e1e8     MSVCRT:dll_dllmain.obj
 0002:000021f0       $unwind$_DllMainCRTStartup 000000018007e1f0     MSVCRT:dll_dllmain.obj
 0002:00002200       $unwind$__security_init_cookie 000000018007e200     MSVCRT:gs_support.obj
 0002:0000220c       $unwind$__get_entropy      000000018007e20c     MSVCRT:gs_support.obj
 0002:00002214       $unwind$DllMain            000000018007e214     MSVCRT:dll_dllmain_stub.obj
 0002:0000221c       $unwind$__scrt_initialize_default_local_stdio_options 000000018007e21c     MSVCRT:default_local_stdio_options.obj
 0002:00002224       $unwind$atexit             000000018007e224     MSVCRT:utility.obj
 0002:0000222c       $unwind$_onexit            000000018007e22c     MSVCRT:utility.obj
 0002:00002234       $unwind$__scrt_is_nonwritable_in_current_image 000000018007e234     MSVCRT:utility.obj
 0002:00002254       $unwind$__scrt_is_nonwritable_in_current_image$filt$0 000000018007e254     MSVCRT:utility.obj
 0002:0000225c       $unwind$__scrt_acquire_startup_lock 000000018007e25c     MSVCRT:utility.obj
 0002:00002264       $unwind$__scrt_release_startup_lock 000000018007e264     MSVCRT:utility.obj
 0002:0000226c       $unwind$__scrt_initialize_crt 000000018007e26c     MSVCRT:utility.obj
 0002:00002274       $unwind$__scrt_uninitialize_crt 000000018007e274     MSVCRT:utility.obj
 0002:0000227c       $unwind$__scrt_initialize_onexit_tables 000000018007e27c     MSVCRT:utility.obj
 0002:00002284       $unwind$__scrt_dllmain_exception_filter 000000018007e284     MSVCRT:utility.obj
 0002:00002298       $unwind$__scrt_dllmain_before_initialize_c 000000018007e298     MSVCRT:utility.obj
 0002:000022a0       $unwind$__scrt_dllmain_after_initialize_c 000000018007e2a0     MSVCRT:utility.obj
 0002:000022a8       $unwind$__scrt_dllmain_uninitialize_c 000000018007e2a8     MSVCRT:utility.obj
 0002:000022b0       $unwind$__scrt_dllmain_uninitialize_critical 000000018007e2b0     MSVCRT:utility.obj
 0002:000022b8       $unwind$__scrt_dllmain_crt_thread_attach 000000018007e2b8     MSVCRT:utility.obj
 0002:000022c0       $unwind$__scrt_dllmain_crt_thread_detach 000000018007e2c0     MSVCRT:utility.obj
 0002:000022c8       $unwind$?configure_argv@__scrt_narrow_argv_policy@@SAHXZ 000000018007e2c8     MSVCRT:utility.obj
 0002:000022d0       $unwind$__scrt_get_show_window_mode 000000018007e2d0     MSVCRT:utility_desktop.obj
 0002:000022d8       $unwind$__scrt_is_managed_app 000000018007e2d8     MSVCRT:utility_desktop.obj
 0002:000022e0       $unwind$__scrt_fastfail    000000018007e2e0     MSVCRT:utility_desktop.obj
 0002:000022f0       $unwind$__scrt_unhandled_exception_filter 000000018007e2f0     MSVCRT:utility_desktop.obj
 0002:000022fc       $unwind$_RTC_Initialize    000000018007e2fc     MSVCRT:initsect.obj
 0002:00002308       $unwind$_RTC_Terminate     000000018007e308     MSVCRT:initsect.obj
 0002:00002314       $unwind$__castguard_check_failure_os_handled 000000018007e314     MSVCRT:guard_support.obj
 0002:0000231c       $unwind$__castguard_slow_path_check_os_handled 000000018007e31c     MSVCRT:guard_support.obj
 0002:00002324       $unwind$__isa_available_init 000000018007e324     MSVCRT:cpu_disp.obj
 0002:00002338       $xdatasym                  000000018007e338     MSVCRT:guard_dispatch.obj
 0002:00002340       $xdatasym                  000000018007e340     MSVCRT:guard_xfg_dispatch.obj
 0002:00002350       .edata                     000000018007e350     wwtp3_sfun.exp
 0002:00002378       rgpv                       000000018007e378     wwtp3_sfun.exp
 0002:00002380       rgszName                   000000018007e380     wwtp3_sfun.exp
 0002:00002388       rgwOrd                     000000018007e388     wwtp3_sfun.exp
 0002:0000238c       szName                     000000018007e38c     wwtp3_sfun.exp
 0002:0000239e       $N00001                    000000018007e39e     wwtp3_sfun.exp
 0002:000023aa       $N00002                    000000018007e3aa     wwtp3_sfun.exp
 0002:00002d48       .idata$6                   000000018007ed48     asynciocoder:asynciocoder.dll
 0002:000031c8       .idata$6                   000000018007f1c8     sf_runtime:sf_runtime.dll
 0002:00003362       .idata$6                   000000018007f362     libmx:libmx.dll
 0002:000033f6       .idata$6                   000000018007f3f6     libmex:libmex.dll
 0002:00003418       .idata$6                   000000018007f418     libut:libut.dll
 0002:000034ba       .idata$6                   000000018007f4ba     libmwmathutil:libmwmathutil.dll
 0002:0000365c       .idata$6                   000000018007f65c     libemlrt:libemlrt.dll
 0002:00003774       .idata$6                   000000018007f774     libcovrt:libcovrt.dll
 0002:0000390e       .idata$6                   000000018007f90e     kernel32:KERNEL32.dll
 0002:0000399c       .idata$6                   000000018007f99c     vcruntime:VCRUNTIME140.dll
 0002:00003aea       .idata$6                   000000018007faea     ucrt:api-ms-win-crt-string-l1-1-0.dll
 0002:00003b0c       .idata$6                   000000018007fb0c     ucrt:api-ms-win-crt-stdio-l1-1-0.dll
 0002:00003b2c       .idata$6                   000000018007fb2c     ucrt:api-ms-win-crt-heap-l1-1-0.dll
 0002:00003b4c       .idata$6                   000000018007fb4c     ucrt:api-ms-win-crt-runtime-l1-1-0.dll
 0003:00000000       $SG27039                   0000000180080000     wwtp3_sfun.obj
 0003:00000018       $SG27044                   0000000180080018     wwtp3_sfun.obj
 0003:00000020       $SG27047                   0000000180080020     wwtp3_sfun.obj
 0003:00000028       $SG27053                   0000000180080028     wwtp3_sfun.obj
 0003:00000030       $SG27087                   0000000180080030     wwtp3_sfun.obj
 0003:00000050       $SG27090                   0000000180080050     wwtp3_sfun.obj
 0003:00000068       $SG27093                   0000000180080068     wwtp3_sfun.obj
 0003:00000080       $SG27124                   0000000180080080     wwtp3_sfun.obj
 0003:000000a0       $SG27127                   00000001800800a0     wwtp3_sfun.obj
 0003:000000b8       $SG27130                   00000001800800b8     wwtp3_sfun.obj
 0003:000000d0       $SG27161                   00000001800800d0     wwtp3_sfun.obj
 0003:000000e8       $SG27164                   00000001800800e8     wwtp3_sfun.obj
 0003:00000100       $SG27167                   0000000180080100     wwtp3_sfun.obj
 0003:00000118       $SG27200                   0000000180080118     wwtp3_sfun.obj
 0003:00000130       $SG27203                   0000000180080130     wwtp3_sfun.obj
 0003:00000148       $SG27206                   0000000180080148     wwtp3_sfun.obj
 0003:00000160       $SG27237                   0000000180080160     wwtp3_sfun.obj
 0003:00000180       $SG27240                   0000000180080180     wwtp3_sfun.obj
 0003:00000198       $SG27243                   0000000180080198     wwtp3_sfun.obj
 0003:000001b0       $SG27269                   00000001800801b0     wwtp3_sfun.obj
 0003:000001b8       $SG27270                   00000001800801b8     wwtp3_sfun.obj
 0003:000001c0       $SG26292                   00000001800801c0     c2_wwtp3.obj
 0003:000001d0       $SG26293                   00000001800801d0     c2_wwtp3.obj
 0003:00000228       $SG26295                   0000000180080228     c2_wwtp3.obj
 0003:00000238       $SG26298                   0000000180080238     c2_wwtp3.obj
 0003:00000250       $SG26296                   0000000180080250     c2_wwtp3.obj
 0003:000002a8       $SG26301                   00000001800802a8     c2_wwtp3.obj
 0003:000002b8       $SG26307                   00000001800802b8     c2_wwtp3.obj
 0003:000002c0       $SG26299                   00000001800802c0     c2_wwtp3.obj
 0003:00000320       $SG26302                   0000000180080320     c2_wwtp3.obj
 0003:0000037c       $SG26310                   000000018008037c     c2_wwtp3.obj
 0003:00000380       $SG26304                   0000000180080380     c2_wwtp3.obj
 0003:00000390       $SG26305                   0000000180080390     c2_wwtp3.obj
 0003:00000400       $SG26308                   0000000180080400     c2_wwtp3.obj
 0003:00000470       $SG26311                   0000000180080470     c2_wwtp3.obj
 0003:000004d8       $SG26313                   00000001800804d8     c2_wwtp3.obj
 0003:000004e0       $SG26314                   00000001800804e0     c2_wwtp3.obj
 0003:00000548       $SG26316                   0000000180080548     c2_wwtp3.obj
 0003:00000550       $SG26317                   0000000180080550     c2_wwtp3.obj
 0003:000005b8       $SG26319                   00000001800805b8     c2_wwtp3.obj
 0003:000005c0       $SG26320                   00000001800805c0     c2_wwtp3.obj
 0003:00000628       $SG26322                   0000000180080628     c2_wwtp3.obj
 0003:00000630       $SG26323                   0000000180080630     c2_wwtp3.obj
 0003:00000698       $SG26325                   0000000180080698     c2_wwtp3.obj
 0003:000006a0       $SG26326                   00000001800806a0     c2_wwtp3.obj
 0003:00000708       $SG26328                   0000000180080708     c2_wwtp3.obj
 0003:00000710       $SG26329                   0000000180080710     c2_wwtp3.obj
 0003:00000778       $SG26331                   0000000180080778     c2_wwtp3.obj
 0003:00000780       $SG26332                   0000000180080780     c2_wwtp3.obj
 0003:000007e8       $SG26334                   00000001800807e8     c2_wwtp3.obj
 0003:000007f0       $SG26335                   00000001800807f0     c2_wwtp3.obj
 0003:00000858       $SG26337                   0000000180080858     c2_wwtp3.obj
 0003:00000860       $SG26338                   0000000180080860     c2_wwtp3.obj
 0003:000008c8       $SG26340                   00000001800808c8     c2_wwtp3.obj
 0003:000008d0       $SG26341                   00000001800808d0     c2_wwtp3.obj
 0003:00000938       $SG26343                   0000000180080938     c2_wwtp3.obj
 0003:00000940       $SG26344                   0000000180080940     c2_wwtp3.obj
 0003:000009a8       $SG26346                   00000001800809a8     c2_wwtp3.obj
 0003:000009b0       $SG26347                   00000001800809b0     c2_wwtp3.obj
 0003:00000a18       $SG26349                   0000000180080a18     c2_wwtp3.obj
 0003:00000a20       $SG26350                   0000000180080a20     c2_wwtp3.obj
 0003:00000a88       $SG26352                   0000000180080a88     c2_wwtp3.obj
 0003:00000a90       $SG26353                   0000000180080a90     c2_wwtp3.obj
 0003:00000af8       $SG26355                   0000000180080af8     c2_wwtp3.obj
 0003:00000b00       $SG26356                   0000000180080b00     c2_wwtp3.obj
 0003:00000b68       $SG26358                   0000000180080b68     c2_wwtp3.obj
 0003:00000b70       $SG26359                   0000000180080b70     c2_wwtp3.obj
 0003:00000bd8       $SG26361                   0000000180080bd8     c2_wwtp3.obj
 0003:00000be0       $SG26362                   0000000180080be0     c2_wwtp3.obj
 0003:00000c28       $SG26364                   0000000180080c28     c2_wwtp3.obj
 0003:00000c30       $SG26365                   0000000180080c30     c2_wwtp3.obj
 0003:00000c98       $SG26367                   0000000180080c98     c2_wwtp3.obj
 0003:00000ca8       $SG26376                   0000000180080ca8     c2_wwtp3.obj
 0003:00000cb0       $SG26368                   0000000180080cb0     c2_wwtp3.obj
 0003:00000d34       $SG26391                   0000000180080d34     c2_wwtp3.obj
 0003:00000d3c       $SG26415                   0000000180080d3c     c2_wwtp3.obj
 0003:00000d40       $SG26370                   0000000180080d40     c2_wwtp3.obj
 0003:00000d50       $SG26371                   0000000180080d50     c2_wwtp3.obj
 0003:00000dd4       $SG26394                   0000000180080dd4     c2_wwtp3.obj
 0003:00000ddc       $SG26421                   0000000180080ddc     c2_wwtp3.obj
 0003:00000de0       $SG26373                   0000000180080de0     c2_wwtp3.obj
 0003:00000df0       $SG26374                   0000000180080df0     c2_wwtp3.obj
 0003:00000e78       $SG26379                   0000000180080e78     c2_wwtp3.obj
 0003:00000e90       $SG26377                   0000000180080e90     c2_wwtp3.obj
 0003:00000ef8       $SG26382                   0000000180080ef8     c2_wwtp3.obj
 0003:00000f10       $SG26380                   0000000180080f10     c2_wwtp3.obj
 0003:00000f68       $SG26409                   0000000180080f68     c2_wwtp3.obj
 0003:00000f80       $SG26383                   0000000180080f80     c2_wwtp3.obj
 0003:0000101c       $SG26553                   000000018008101c     c2_wwtp3.obj
 0003:00001020       $SG26385                   0000000180081020     c2_wwtp3.obj
 0003:00001030       $SG26386                   0000000180081030     c2_wwtp3.obj
 0003:00001094       $SG26556                   0000000180081094     c2_wwtp3.obj
 0003:00001098       $SG26388                   0000000180081098     c2_wwtp3.obj
 0003:000010a8       $SG26397                   00000001800810a8     c2_wwtp3.obj
 0003:000010b8       $SG26400                   00000001800810b8     c2_wwtp3.obj
 0003:000010c8       $SG26412                   00000001800810c8     c2_wwtp3.obj
 0003:000010e0       $SG26389                   00000001800810e0     c2_wwtp3.obj
 0003:00001150       $SG26392                   0000000180081150     c2_wwtp3.obj
 0003:000011c0       $SG26395                   00000001800811c0     c2_wwtp3.obj
 0003:00001230       $SG26398                   0000000180081230     c2_wwtp3.obj
 0003:000012b8       $SG26403                   00000001800812b8     c2_wwtp3.obj
 0003:000012c4       $SG26433                   00000001800812c4     c2_wwtp3.obj
 0003:000012d0       $SG26401                   00000001800812d0     c2_wwtp3.obj
 0003:00001328       $SG26406                   0000000180081328     c2_wwtp3.obj
 0003:00001334       $SG26436                   0000000180081334     c2_wwtp3.obj
 0003:00001340       $SG26404                   0000000180081340     c2_wwtp3.obj
 0003:000013b0       $SG26407                   00000001800813b0     c2_wwtp3.obj
 0003:00001420       $SG26410                   0000000180081420     c2_wwtp3.obj
 0003:00001478       $SG26418                   0000000180081478     c2_wwtp3.obj
 0003:00001498       $SG26424                   0000000180081498     c2_wwtp3.obj
 0003:000014b0       $SG26413                   00000001800814b0     c2_wwtp3.obj
 0003:00001508       $SG26427                   0000000180081508     c2_wwtp3.obj
 0003:00001518       $SG26430                   0000000180081518     c2_wwtp3.obj
 0003:00001530       $SG26416                   0000000180081530     c2_wwtp3.obj
 0003:00001574       $SG26439                   0000000180081574     c2_wwtp3.obj
 0003:00001580       $SG26419                   0000000180081580     c2_wwtp3.obj
 0003:000015e0       $SG26422                   00000001800815e0     c2_wwtp3.obj
 0003:00001628       $SG26442                   0000000180081628     c2_wwtp3.obj
 0003:00001630       $SG26425                   0000000180081630     c2_wwtp3.obj
 0003:00001690       $SG26428                   0000000180081690     c2_wwtp3.obj
 0003:000016f0       $SG26431                   00000001800816f0     c2_wwtp3.obj
 0003:00001748       $SG26445                   0000000180081748     c2_wwtp3.obj
 0003:00001750       $SG26434                   0000000180081750     c2_wwtp3.obj
 0003:00001794       $SG26448                   0000000180081794     c2_wwtp3.obj
 0003:000017a0       $SG26437                   00000001800817a0     c2_wwtp3.obj
 0003:000017e4       $SG26451                   00000001800817e4     c2_wwtp3.obj
 0003:000017f0       $SG26440                   00000001800817f0     c2_wwtp3.obj
 0003:00001858       $SG26454                   0000000180081858     c2_wwtp3.obj
 0003:00001860       $SG26443                   0000000180081860     c2_wwtp3.obj
 0003:000018c8       $SG26457                   00000001800818c8     c2_wwtp3.obj
 0003:000018d0       $SG26446                   00000001800818d0     c2_wwtp3.obj
 0003:00001938       $SG26460                   0000000180081938     c2_wwtp3.obj
 0003:00001940       $SG26449                   0000000180081940     c2_wwtp3.obj
 0003:000019a8       $SG26466                   00000001800819a8     c2_wwtp3.obj
 0003:000019c0       $SG26452                   00000001800819c0     c2_wwtp3.obj
 0003:00001a28       $SG26469                   0000000180081a28     c2_wwtp3.obj
 0003:00001a40       $SG26455                   0000000180081a40     c2_wwtp3.obj
 0003:00001aa8       $SG26472                   0000000180081aa8     c2_wwtp3.obj
 0003:00001ac0       $SG26458                   0000000180081ac0     c2_wwtp3.obj
 0003:00001b28       $SG26475                   0000000180081b28     c2_wwtp3.obj
 0003:00001b30       $SG26461                   0000000180081b30     c2_wwtp3.obj
 0003:00001b98       $SG26463                   0000000180081b98     c2_wwtp3.obj
 0003:00001ba4       $SG26478                   0000000180081ba4     c2_wwtp3.obj
 0003:00001bb0       $SG26464                   0000000180081bb0     c2_wwtp3.obj
 0003:00001c00       $SG26467                   0000000180081c00     c2_wwtp3.obj
 0003:00001c54       $SG26481                   0000000180081c54     c2_wwtp3.obj
 0003:00001c60       $SG26470                   0000000180081c60     c2_wwtp3.obj
 0003:00001cb4       $SG26484                   0000000180081cb4     c2_wwtp3.obj
 0003:00001cc0       $SG26473                   0000000180081cc0     c2_wwtp3.obj
 0003:00001d14       $SG26487                   0000000180081d14     c2_wwtp3.obj
 0003:00001d20       $SG26476                   0000000180081d20     c2_wwtp3.obj
 0003:00001d64       $SG26490                   0000000180081d64     c2_wwtp3.obj
 0003:00001d70       $SG26479                   0000000180081d70     c2_wwtp3.obj
 0003:00001de0       $SG26482                   0000000180081de0     c2_wwtp3.obj
 0003:00001e50       $SG26485                   0000000180081e50     c2_wwtp3.obj
 0003:00001ec0       $SG26488                   0000000180081ec0     c2_wwtp3.obj
 0003:00001f30       $SG26491                   0000000180081f30     c2_wwtp3.obj
 0003:00001f9c       $SG26493                   0000000180081f9c     c2_wwtp3.obj
 0003:00001fa4       $SG26496                   0000000180081fa4     c2_wwtp3.obj
 0003:00001fb0       $SG26494                   0000000180081fb0     c2_wwtp3.obj
 0003:00002018       $SG26499                   0000000180082018     c2_wwtp3.obj
 0003:00002028       $SG26508                   0000000180082028     c2_wwtp3.obj
 0003:00002030       $SG26497                   0000000180082030     c2_wwtp3.obj
 0003:00002098       $SG26502                   0000000180082098     c2_wwtp3.obj
 0003:000020a8       $SG26517                   00000001800820a8     c2_wwtp3.obj
 0003:000020c0       $SG26500                   00000001800820c0     c2_wwtp3.obj
 0003:00002130       $SG26503                   0000000180082130     c2_wwtp3.obj
 0003:0000219c       $SG26559                   000000018008219c     c2_wwtp3.obj
 0003:000021a0       $SG26505                   00000001800821a0     c2_wwtp3.obj
 0003:000021b0       $SG26506                   00000001800821b0     c2_wwtp3.obj
 0003:00002220       $SG26509                   0000000180082220     c2_wwtp3.obj
 0003:0000228c       $SG26562                   000000018008228c     c2_wwtp3.obj
 0003:00002290       $SG26511                   0000000180082290     c2_wwtp3.obj
 0003:000022a0       $SG26512                   00000001800822a0     c2_wwtp3.obj
 0003:0000230c       $SG26565                   000000018008230c     c2_wwtp3.obj
 0003:00002310       $SG26514                   0000000180082310     c2_wwtp3.obj
 0003:00002320       $SG26515                   0000000180082320     c2_wwtp3.obj
 0003:00002390       $SG26518                   0000000180082390     c2_wwtp3.obj
 0003:000023e0       $SG26520                   00000001800823e0     c2_wwtp3.obj
 0003:000023f0       $SG26521                   00000001800823f0     c2_wwtp3.obj
 0003:00002460       $SG26523                   0000000180082460     c2_wwtp3.obj
 0003:00002470       $SG26524                   0000000180082470     c2_wwtp3.obj
 0003:000024e0       $SG26526                   00000001800824e0     c2_wwtp3.obj
 0003:000024f0       $SG26527                   00000001800824f0     c2_wwtp3.obj
 0003:00002560       $SG26529                   0000000180082560     c2_wwtp3.obj
 0003:00002568       $SG26532                   0000000180082568     c2_wwtp3.obj
 0003:00002570       $SG26530                   0000000180082570     c2_wwtp3.obj
 0003:000025b8       $SG26535                   00000001800825b8     c2_wwtp3.obj
 0003:000025c0       $SG26533                   00000001800825c0     c2_wwtp3.obj
 0003:00002608       $SG26538                   0000000180082608     c2_wwtp3.obj
 0003:00002610       $SG26536                   0000000180082610     c2_wwtp3.obj
 0003:00002658       $SG26541                   0000000180082658     c2_wwtp3.obj
 0003:00002660       $SG26539                   0000000180082660     c2_wwtp3.obj
 0003:000026d0       $SG26542                   00000001800826d0     c2_wwtp3.obj
 0003:0000273c       $SG26568                   000000018008273c     c2_wwtp3.obj
 0003:00002740       $SG26544                   0000000180082740     c2_wwtp3.obj
 0003:00002748       $SG26547                   0000000180082748     c2_wwtp3.obj
 0003:00002750       $SG26545                   0000000180082750     c2_wwtp3.obj
 0003:000027c0       $SG26548                   00000001800827c0     c2_wwtp3.obj
 0003:0000282c       $SG26643                   000000018008282c     c2_wwtp3.obj
 0003:00002830       $SG26550                   0000000180082830     c2_wwtp3.obj
 0003:00002838       $SG26577                   0000000180082838     c2_wwtp3.obj
 0003:00002840       $SG26551                   0000000180082840     c2_wwtp3.obj
 0003:000028b0       $SG26554                   00000001800828b0     c2_wwtp3.obj
 0003:00002918       $SG26580                   0000000180082918     c2_wwtp3.obj
 0003:00002920       $SG26557                   0000000180082920     c2_wwtp3.obj
 0003:00002988       $SG26595                   0000000180082988     c2_wwtp3.obj
 0003:00002990       $SG26560                   0000000180082990     c2_wwtp3.obj
 0003:000029f8       $SG26598                   00000001800829f8     c2_wwtp3.obj
 0003:00002a10       $SG26563                   0000000180082a10     c2_wwtp3.obj
 0003:00002a78       $SG26634                   0000000180082a78     c2_wwtp3.obj
 0003:00002a80       $SG26566                   0000000180082a80     c2_wwtp3.obj
 0003:00002ae8       $SG26637                   0000000180082ae8     c2_wwtp3.obj
 0003:00002af0       $SG26569                   0000000180082af0     c2_wwtp3.obj
 0003:00002b58       $SG26571                   0000000180082b58     c2_wwtp3.obj
 0003:00002b64       $SG26646                   0000000180082b64     c2_wwtp3.obj
 0003:00002b68       $SG26640                   0000000180082b68     c2_wwtp3.obj
 0003:00002b70       $SG26572                   0000000180082b70     c2_wwtp3.obj
 0003:00002be0       $SG26574                   0000000180082be0     c2_wwtp3.obj
 0003:00002bf0       $SG26575                   0000000180082bf0     c2_wwtp3.obj
 0003:00002c60       $SG26578                   0000000180082c60     c2_wwtp3.obj
 0003:00002cd0       $SG26581                   0000000180082cd0     c2_wwtp3.obj
 0003:00002d3c       $SG26649                   0000000180082d3c     c2_wwtp3.obj
 0003:00002d44       $SG26661                   0000000180082d44     c2_wwtp3.obj
 0003:00002d48       $SG26583                   0000000180082d48     c2_wwtp3.obj
 0003:00002d54       $SG26652                   0000000180082d54     c2_wwtp3.obj
 0003:00002d60       $SG26584                   0000000180082d60     c2_wwtp3.obj
 0003:00002dd0       $SG26586                   0000000180082dd0     c2_wwtp3.obj
 0003:00002de0       $SG26587                   0000000180082de0     c2_wwtp3.obj
 0003:00002e50       $SG26589                   0000000180082e50     c2_wwtp3.obj
 0003:00002e60       $SG26590                   0000000180082e60     c2_wwtp3.obj
 0003:00002ed0       $SG26592                   0000000180082ed0     c2_wwtp3.obj
 0003:00002ee0       $SG26593                   0000000180082ee0     c2_wwtp3.obj
 0003:00002f50       $SG26596                   0000000180082f50     c2_wwtp3.obj
 0003:00002fc0       $SG26599                   0000000180082fc0     c2_wwtp3.obj
 0003:0000305c       $SG26814                   000000018008305c     c2_wwtp3.obj
 0003:00003060       $SG26601                   0000000180083060     c2_wwtp3.obj
 0003:00003070       $SG26602                   0000000180083070     c2_wwtp3.obj
 0003:000030e0       $SG26604                   00000001800830e0     c2_wwtp3.obj
 0003:000030f0       $SG26605                   00000001800830f0     c2_wwtp3.obj
 0003:00003174       $SG26655                   0000000180083174     c2_wwtp3.obj
 0003:0000317c       $SG26817                   000000018008317c     c2_wwtp3.obj
 0003:00003180       $SG26607                   0000000180083180     c2_wwtp3.obj
 0003:00003190       $SG26608                   0000000180083190     c2_wwtp3.obj
 0003:00003214       $SG26664                   0000000180083214     c2_wwtp3.obj
 0003:0000321c       $SG26844                   000000018008321c     c2_wwtp3.obj
 0003:00003220       $SG26610                   0000000180083220     c2_wwtp3.obj
 0003:00003230       $SG26611                   0000000180083230     c2_wwtp3.obj
 0003:000032b4       $SG26667                   00000001800832b4     c2_wwtp3.obj
 0003:000032bc       $SG26856                   00000001800832bc     c2_wwtp3.obj
 0003:000032c0       $SG26613                   00000001800832c0     c2_wwtp3.obj
 0003:000032d0       $SG26614                   00000001800832d0     c2_wwtp3.obj
 0003:00003354       $SG26670                   0000000180083354     c2_wwtp3.obj
 0003:0000335c       $SG26868                   000000018008335c     c2_wwtp3.obj
 0003:00003360       $SG26616                   0000000180083360     c2_wwtp3.obj
 0003:00003370       $SG26617                   0000000180083370     c2_wwtp3.obj
 0003:000033f4       $SG26673                   00000001800833f4     c2_wwtp3.obj
 0003:000033fc       $SG26874                   00000001800833fc     c2_wwtp3.obj
 0003:00003400       $SG26619                   0000000180083400     c2_wwtp3.obj
 0003:00003410       $SG26620                   0000000180083410     c2_wwtp3.obj
 0003:00003494       $SG26676                   0000000180083494     c2_wwtp3.obj
 0003:0000349c       $SG26880                   000000018008349c     c2_wwtp3.obj
 0003:000034a0       $SG26622                   00000001800834a0     c2_wwtp3.obj
 0003:000034b0       $SG26623                   00000001800834b0     c2_wwtp3.obj
 0003:00003534       $SG26679                   0000000180083534     c2_wwtp3.obj
 0003:0000353c       $SG26886                   000000018008353c     c2_wwtp3.obj
 0003:00003540       $SG26625                   0000000180083540     c2_wwtp3.obj
 0003:00003550       $SG26626                   0000000180083550     c2_wwtp3.obj
 0003:000035d4       $SG26682                   00000001800835d4     c2_wwtp3.obj
 0003:000035dc       $SG26904                   00000001800835dc     c2_wwtp3.obj
 0003:000035e0       $SG26628                   00000001800835e0     c2_wwtp3.obj
 0003:000035f0       $SG26629                   00000001800835f0     c2_wwtp3.obj
 0003:00003674       $SG26685                   0000000180083674     c2_wwtp3.obj
 0003:0000367c       $SG26910                   000000018008367c     c2_wwtp3.obj
 0003:00003680       $SG26631                   0000000180083680     c2_wwtp3.obj
 0003:00003690       $SG26632                   0000000180083690     c2_wwtp3.obj
 0003:00003718       $SG26658                   0000000180083718     c2_wwtp3.obj
 0003:00003720       $SG26635                   0000000180083720     c2_wwtp3.obj
 0003:00003790       $SG26638                   0000000180083790     c2_wwtp3.obj
 0003:00003800       $SG26641                   0000000180083800     c2_wwtp3.obj
 0003:00003870       $SG26644                   0000000180083870     c2_wwtp3.obj
 0003:000038d8       $SG26694                   00000001800838d8     c2_wwtp3.obj
 0003:000038e0       $SG26647                   00000001800838e0     c2_wwtp3.obj
 0003:00003948       $SG26697                   0000000180083948     c2_wwtp3.obj
 0003:00003950       $SG26650                   0000000180083950     c2_wwtp3.obj
 0003:000039c0       $SG26653                   00000001800839c0     c2_wwtp3.obj
 0003:00003a30       $SG26656                   0000000180083a30     c2_wwtp3.obj
 0003:00003aa0       $SG26659                   0000000180083aa0     c2_wwtp3.obj
 0003:00003b10       $SG26662                   0000000180083b10     c2_wwtp3.obj
 0003:00003b78       $SG26700                   0000000180083b78     c2_wwtp3.obj
 0003:00003b80       $SG26665                   0000000180083b80     c2_wwtp3.obj
 0003:00003bf0       $SG26668                   0000000180083bf0     c2_wwtp3.obj
 0003:00003c60       $SG26671                   0000000180083c60     c2_wwtp3.obj
 0003:00003cd0       $SG26674                   0000000180083cd0     c2_wwtp3.obj
 0003:00003d40       $SG26677                   0000000180083d40     c2_wwtp3.obj
 0003:00003da8       $SG26688                   0000000180083da8     c2_wwtp3.obj
 0003:00003db8       $SG26703                   0000000180083db8     c2_wwtp3.obj
 0003:00003dc0       $SG26680                   0000000180083dc0     c2_wwtp3.obj
 0003:00003e28       $SG26691                   0000000180083e28     c2_wwtp3.obj
 0003:00003e38       $SG26706                   0000000180083e38     c2_wwtp3.obj
 0003:00003e40       $SG26683                   0000000180083e40     c2_wwtp3.obj
 0003:00003eb0       $SG26686                   0000000180083eb0     c2_wwtp3.obj
 0003:00003f18       $SG26709                   0000000180083f18     c2_wwtp3.obj
 0003:00003f20       $SG26689                   0000000180083f20     c2_wwtp3.obj
 0003:00003f94       $SG26712                   0000000180083f94     c2_wwtp3.obj
 0003:00003fa0       $SG26692                   0000000180083fa0     c2_wwtp3.obj
 0003:00004010       $SG26695                   0000000180084010     c2_wwtp3.obj
 0003:00004078       $SG26715                   0000000180084078     c2_wwtp3.obj
 0003:00004080       $SG26698                   0000000180084080     c2_wwtp3.obj
 0003:000040e8       $SG26718                   00000001800840e8     c2_wwtp3.obj
 0003:000040f8       $SG26748                   00000001800840f8     c2_wwtp3.obj
 0003:00004100       $SG26701                   0000000180084100     c2_wwtp3.obj
 0003:00004168       $SG26721                   0000000180084168     c2_wwtp3.obj
 0003:00004178       $SG26751                   0000000180084178     c2_wwtp3.obj
 0003:00004180       $SG26704                   0000000180084180     c2_wwtp3.obj
 0003:000041e8       $SG26724                   00000001800841e8     c2_wwtp3.obj
 0003:000041f8       $SG26754                   00000001800841f8     c2_wwtp3.obj
 0003:00004200       $SG26707                   0000000180084200     c2_wwtp3.obj
 0003:00004268       $SG26727                   0000000180084268     c2_wwtp3.obj
 0003:00004278       $SG26757                   0000000180084278     c2_wwtp3.obj
 0003:00004280       $SG26710                   0000000180084280     c2_wwtp3.obj
 0003:000042e8       $SG26730                   00000001800842e8     c2_wwtp3.obj
 0003:000042f8       $SG26760                   00000001800842f8     c2_wwtp3.obj
 0003:00004300       $SG26713                   0000000180084300     c2_wwtp3.obj
 0003:00004368       $SG26733                   0000000180084368     c2_wwtp3.obj
 0003:00004378       $SG26763                   0000000180084378     c2_wwtp3.obj
 0003:00004380       $SG26716                   0000000180084380     c2_wwtp3.obj
 0003:000043e8       $SG26736                   00000001800843e8     c2_wwtp3.obj
 0003:000043f8       $SG26766                   00000001800843f8     c2_wwtp3.obj
 0003:00004410       $SG26719                   0000000180084410     c2_wwtp3.obj
 0003:00004488       $SG26739                   0000000180084488     c2_wwtp3.obj
 0003:00004498       $SG26781                   0000000180084498     c2_wwtp3.obj
 0003:000044a0       $SG26722                   00000001800844a0     c2_wwtp3.obj
 0003:00004518       $SG26742                   0000000180084518     c2_wwtp3.obj
 0003:00004528       $SG26784                   0000000180084528     c2_wwtp3.obj
 0003:00004530       $SG26725                   0000000180084530     c2_wwtp3.obj
 0003:000045a0       $SG26728                   00000001800845a0     c2_wwtp3.obj
 0003:00004610       $SG26731                   0000000180084610     c2_wwtp3.obj
 0003:00004680       $SG26734                   0000000180084680     c2_wwtp3.obj
 0003:000046f0       $SG26737                   00000001800846f0     c2_wwtp3.obj
 0003:00004760       $SG26740                   0000000180084760     c2_wwtp3.obj
 0003:000047d0       $SG26743                   00000001800847d0     c2_wwtp3.obj
 0003:0000483c       $SG27081                   000000018008483c     c2_wwtp3.obj
 0003:00004840       $SG26745                   0000000180084840     c2_wwtp3.obj
 0003:00004850       $SG26746                   0000000180084850     c2_wwtp3.obj
 0003:000048c0       $SG26749                   00000001800848c0     c2_wwtp3.obj
 0003:00004910       $SG26752                   0000000180084910     c2_wwtp3.obj
 0003:00004960       $SG26755                   0000000180084960     c2_wwtp3.obj
 0003:000049b0       $SG26758                   00000001800849b0     c2_wwtp3.obj
 0003:00004a00       $SG26761                   0000000180084a00     c2_wwtp3.obj
 0003:00004a50       $SG26764                   0000000180084a50     c2_wwtp3.obj
 0003:00004a98       $SG26772                   0000000180084a98     c2_wwtp3.obj
 0003:00004aa8       $SG26787                   0000000180084aa8     c2_wwtp3.obj
 0003:00004ab0       $SG26767                   0000000180084ab0     c2_wwtp3.obj
 0003:00004b04       $SG27087                   0000000180084b04     c2_wwtp3.obj
 0003:00004b08       $SG26769                   0000000180084b08     c2_wwtp3.obj
 0003:00004b18       $SG26775                   0000000180084b18     c2_wwtp3.obj
 0003:00004b28       $SG26790                   0000000180084b28     c2_wwtp3.obj
 0003:00004b30       $SG26770                   0000000180084b30     c2_wwtp3.obj
 0003:00004b80       $SG26773                   0000000180084b80     c2_wwtp3.obj
 0003:00004bf8       $SG26778                   0000000180084bf8     c2_wwtp3.obj
 0003:00004c08       $SG26793                   0000000180084c08     c2_wwtp3.obj
 0003:00004c10       $SG26776                   0000000180084c10     c2_wwtp3.obj
 0003:00004c88       $SG26796                   0000000180084c88     c2_wwtp3.obj
 0003:00004c98       $SG26811                   0000000180084c98     c2_wwtp3.obj
 0003:00004ca0       $SG26779                   0000000180084ca0     c2_wwtp3.obj
 0003:00004d18       $SG26799                   0000000180084d18     c2_wwtp3.obj
 0003:00004d28       $SG26820                   0000000180084d28     c2_wwtp3.obj
 0003:00004d30       $SG26782                   0000000180084d30     c2_wwtp3.obj
 0003:00004d98       $SG26823                   0000000180084d98     c2_wwtp3.obj
 0003:00004da0       $SG26785                   0000000180084da0     c2_wwtp3.obj
 0003:00004e10       $SG26788                   0000000180084e10     c2_wwtp3.obj
 0003:00004e80       $SG26791                   0000000180084e80     c2_wwtp3.obj
 0003:00004ef0       $SG26794                   0000000180084ef0     c2_wwtp3.obj
 0003:00004f60       $SG26797                   0000000180084f60     c2_wwtp3.obj
 0003:00004fd0       $SG26800                   0000000180084fd0     c2_wwtp3.obj
 0003:00005040       $SG26802                   0000000180085040     c2_wwtp3.obj
 0003:00005050       $SG26803                   0000000180085050     c2_wwtp3.obj
 0003:000050c0       $SG26805                   00000001800850c0     c2_wwtp3.obj
 0003:000050d0       $SG26806                   00000001800850d0     c2_wwtp3.obj
 0003:00005140       $SG26808                   0000000180085140     c2_wwtp3.obj
 0003:00005150       $SG26809                   0000000180085150     c2_wwtp3.obj
 0003:000051c0       $SG26812                   00000001800851c0     c2_wwtp3.obj
 0003:00005230       $SG26815                   0000000180085230     c2_wwtp3.obj
 0003:00005298       $SG26826                   0000000180085298     c2_wwtp3.obj
 0003:000052a0       $SG26818                   00000001800852a0     c2_wwtp3.obj
 0003:00005308       $SG26829                   0000000180085308     c2_wwtp3.obj
 0003:00005310       $SG26821                   0000000180085310     c2_wwtp3.obj
 0003:00005380       $SG26824                   0000000180085380     c2_wwtp3.obj
 0003:000053f0       $SG26827                   00000001800853f0     c2_wwtp3.obj
 0003:00005460       $SG26830                   0000000180085460     c2_wwtp3.obj
 0003:000054cc       $SG26832                   00000001800854cc     c2_wwtp3.obj
 0003:000054d4       $SG26835                   00000001800854d4     c2_wwtp3.obj
 0003:000054e0       $SG26833                   00000001800854e0     c2_wwtp3.obj
 0003:00005550       $SG26836                   0000000180085550     c2_wwtp3.obj
 0003:000055bc       $SG26838                   00000001800855bc     c2_wwtp3.obj
 0003:000055c4       $SG26841                   00000001800855c4     c2_wwtp3.obj
 0003:000055d0       $SG26839                   00000001800855d0     c2_wwtp3.obj
 0003:00005640       $SG26842                   0000000180085640     c2_wwtp3.obj
 0003:000056b0       $SG26845                   00000001800856b0     c2_wwtp3.obj
 0003:000056f4       $SG27093                   00000001800856f4     c2_wwtp3.obj
 0003:000056f8       $SG26847                   00000001800856f8     c2_wwtp3.obj
 0003:00005700       $SG26848                   0000000180085700     c2_wwtp3.obj
 0003:00005760       $SG26850                   0000000180085760     c2_wwtp3.obj
 0003:00005770       $SG26851                   0000000180085770     c2_wwtp3.obj
 0003:000057d4       $SG27096                   00000001800857d4     c2_wwtp3.obj
 0003:000057d8       $SG26853                   00000001800857d8     c2_wwtp3.obj
 0003:000057e8       $SG26859                   00000001800857e8     c2_wwtp3.obj
 0003:000057f0       $SG26854                   00000001800857f0     c2_wwtp3.obj
 0003:00005854       $SG26862                   0000000180085854     c2_wwtp3.obj
 0003:00005860       $SG26857                   0000000180085860     c2_wwtp3.obj
 0003:000058a4       $SG26865                   00000001800858a4     c2_wwtp3.obj
 0003:000058b0       $SG26860                   00000001800858b0     c2_wwtp3.obj
 0003:00005920       $SG26863                   0000000180085920     c2_wwtp3.obj
 0003:00005968       $SG26871                   0000000180085968     c2_wwtp3.obj
 0003:00005970       $SG26866                   0000000180085970     c2_wwtp3.obj
 0003:000059e0       $SG26869                   00000001800859e0     c2_wwtp3.obj
 0003:00005a48       $SG26883                   0000000180085a48     c2_wwtp3.obj
 0003:00005a50       $SG26872                   0000000180085a50     c2_wwtp3.obj
 0003:00005ac0       $SG26875                   0000000180085ac0     c2_wwtp3.obj
 0003:00005b28       $SG26877                   0000000180085b28     c2_wwtp3.obj
 0003:00005b38       $SG26901                   0000000180085b38     c2_wwtp3.obj
 0003:00005b40       $SG26878                   0000000180085b40     c2_wwtp3.obj
 0003:00005bb0       $SG26881                   0000000180085bb0     c2_wwtp3.obj
 0003:00005c18       $SG26907                   0000000180085c18     c2_wwtp3.obj
 0003:00005c20       $SG26884                   0000000180085c20     c2_wwtp3.obj
 0003:00005c90       $SG26887                   0000000180085c90     c2_wwtp3.obj
 0003:00005cf8       $SG26889                   0000000180085cf8     c2_wwtp3.obj
 0003:00005d08       $SG26913                   0000000180085d08     c2_wwtp3.obj
 0003:00005d10       $SG26890                   0000000180085d10     c2_wwtp3.obj
 0003:00005d80       $SG26892                   0000000180085d80     c2_wwtp3.obj
 0003:00005d90       $SG26893                   0000000180085d90     c2_wwtp3.obj
 0003:00005e00       $SG26895                   0000000180085e00     c2_wwtp3.obj
 0003:00005e10       $SG26896                   0000000180085e10     c2_wwtp3.obj
 0003:00005e80       $SG26898                   0000000180085e80     c2_wwtp3.obj
 0003:00005e90       $SG26899                   0000000180085e90     c2_wwtp3.obj
 0003:00005f00       $SG26902                   0000000180085f00     c2_wwtp3.obj
 0003:00005f70       $SG26905                   0000000180085f70     c2_wwtp3.obj
 0003:00005fd8       $SG26916                   0000000180085fd8     c2_wwtp3.obj
 0003:00005fe0       $SG26908                   0000000180085fe0     c2_wwtp3.obj
 0003:00006050       $SG26911                   0000000180086050     c2_wwtp3.obj
 0003:000060b8       $SG26919                   00000001800860b8     c2_wwtp3.obj
 0003:000060c0       $SG26914                   00000001800860c0     c2_wwtp3.obj
 0003:00006130       $SG26917                   0000000180086130     c2_wwtp3.obj
 0003:000061a0       $SG26920                   00000001800861a0     c2_wwtp3.obj
 0003:0000620c       $SG26922                   000000018008620c     c2_wwtp3.obj
 0003:00006214       $SG26925                   0000000180086214     c2_wwtp3.obj
 0003:00006220       $SG26923                   0000000180086220     c2_wwtp3.obj
 0003:00006290       $SG26926                   0000000180086290     c2_wwtp3.obj
 0003:000062fc       $SG26928                   00000001800862fc     c2_wwtp3.obj
 0003:00006304       $SG26931                   0000000180086304     c2_wwtp3.obj
 0003:00006310       $SG26929                   0000000180086310     c2_wwtp3.obj
 0003:00006380       $SG26932                   0000000180086380     c2_wwtp3.obj
 0003:000063ec       $SG26934                   00000001800863ec     c2_wwtp3.obj
 0003:000063f4       $SG26937                   00000001800863f4     c2_wwtp3.obj
 0003:00006400       $SG26935                   0000000180086400     c2_wwtp3.obj
 0003:00006470       $SG26938                   0000000180086470     c2_wwtp3.obj
 0003:000064dc       $SG26940                   00000001800864dc     c2_wwtp3.obj
 0003:000064e4       $SG26943                   00000001800864e4     c2_wwtp3.obj
 0003:000064f0       $SG26941                   00000001800864f0     c2_wwtp3.obj
 0003:00006560       $SG26944                   0000000180086560     c2_wwtp3.obj
 0003:000065cc       $SG26946                   00000001800865cc     c2_wwtp3.obj
 0003:000065d4       $SG26949                   00000001800865d4     c2_wwtp3.obj
 0003:000065e0       $SG26947                   00000001800865e0     c2_wwtp3.obj
 0003:00006650       $SG26950                   0000000180086650     c2_wwtp3.obj
 0003:000066bc       $SG26952                   00000001800866bc     c2_wwtp3.obj
 0003:000066c8       $SG26955                   00000001800866c8     c2_wwtp3.obj
 0003:000066d8       $SG26961                   00000001800866d8     c2_wwtp3.obj
 0003:000066e0       $SG26953                   00000001800866e0     c2_wwtp3.obj
 0003:00006750       $SG26956                   0000000180086750     c2_wwtp3.obj
 0003:000067d4       $SG26964                   00000001800867d4     c2_wwtp3.obj
 0003:000067dc       $SG27105                   00000001800867dc     c2_wwtp3.obj
 0003:000067e0       $SG26958                   00000001800867e0     c2_wwtp3.obj
 0003:000067f0       $SG26959                   00000001800867f0     c2_wwtp3.obj
 0003:00006860       $SG26962                   0000000180086860     c2_wwtp3.obj
 0003:000068d0       $SG26965                   00000001800868d0     c2_wwtp3.obj
 0003:0000693c       $SG27108                   000000018008693c     c2_wwtp3.obj
 0003:00006940       $SG26967                   0000000180086940     c2_wwtp3.obj
 0003:00006950       $SG26968                   0000000180086950     c2_wwtp3.obj
 0003:000069d4       $SG27060                   00000001800869d4     c2_wwtp3.obj
 0003:000069dc       $SG27222                   00000001800869dc     c2_wwtp3.obj
 0003:000069e0       $SG26970                   00000001800869e0     c2_wwtp3.obj
 0003:000069f0       $SG26971                   00000001800869f0     c2_wwtp3.obj
 0003:00006a74       $SG27084                   0000000180086a74     c2_wwtp3.obj
 0003:00006a7c       $SG27291                   0000000180086a7c     c2_wwtp3.obj
 0003:00006a80       $SG26973                   0000000180086a80     c2_wwtp3.obj
 0003:00006a90       $SG26974                   0000000180086a90     c2_wwtp3.obj
 0003:00006b14       $SG27123                   0000000180086b14     c2_wwtp3.obj
 0003:00006b1c       $SG27333                   0000000180086b1c     c2_wwtp3.obj
 0003:00006b20       $SG26976                   0000000180086b20     c2_wwtp3.obj
 0003:00006b30       $SG26977                   0000000180086b30     c2_wwtp3.obj
 0003:00006bb4       $SG27126                   0000000180086bb4     c2_wwtp3.obj
 0003:00006bbc       $SG27339                   0000000180086bbc     c2_wwtp3.obj
 0003:00006bc0       $SG26979                   0000000180086bc0     c2_wwtp3.obj
 0003:00006bd0       $SG26980                   0000000180086bd0     c2_wwtp3.obj
 0003:00006c54       $SG27147                   0000000180086c54     c2_wwtp3.obj
 0003:00006c5c       $SG27342                   0000000180086c5c     c2_wwtp3.obj
 0003:00006c60       $SG26982                   0000000180086c60     c2_wwtp3.obj
 0003:00006c70       $SG26983                   0000000180086c70     c2_wwtp3.obj
 0003:00006cf4       $SG27162                   0000000180086cf4     c2_wwtp3.obj
 0003:00006cfc       $SG27387                   0000000180086cfc     c2_wwtp3.obj
 0003:00006d00       $SG26985                   0000000180086d00     c2_wwtp3.obj
 0003:00006d10       $SG26986                   0000000180086d10     c2_wwtp3.obj
 0003:00006d94       $SG27165                   0000000180086d94     c2_wwtp3.obj
 0003:00006d9c       $SG27390                   0000000180086d9c     c2_wwtp3.obj
 0003:00006da0       $SG26988                   0000000180086da0     c2_wwtp3.obj
 0003:00006db0       $SG26989                   0000000180086db0     c2_wwtp3.obj
 0003:00006e34       $SG27183                   0000000180086e34     c2_wwtp3.obj
 0003:00006e3c       $SG27393                   0000000180086e3c     c2_wwtp3.obj
 0003:00006e40       $SG26991                   0000000180086e40     c2_wwtp3.obj
 0003:00006e50       $SG26992                   0000000180086e50     c2_wwtp3.obj
 0003:00006ed4       $SG27186                   0000000180086ed4     c2_wwtp3.obj
 0003:00006edc       $SG27396                   0000000180086edc     c2_wwtp3.obj
 0003:00006ee0       $SG26994                   0000000180086ee0     c2_wwtp3.obj
 0003:00006ef0       $SG26995                   0000000180086ef0     c2_wwtp3.obj
 0003:00006f74       $SG27189                   0000000180086f74     c2_wwtp3.obj
 0003:00006f7c       $SG27399                   0000000180086f7c     c2_wwtp3.obj
 0003:00006f80       $SG26997                   0000000180086f80     c2_wwtp3.obj
 0003:00006f90       $SG26998                   0000000180086f90     c2_wwtp3.obj
 0003:00007014       $SG27192                   0000000180087014     c2_wwtp3.obj
 0003:0000701c       $SG27402                   000000018008701c     c2_wwtp3.obj
 0003:00007020       $SG27000                   0000000180087020     c2_wwtp3.obj
 0003:00007030       $SG27001                   0000000180087030     c2_wwtp3.obj
 0003:000070b4       $SG27198                   00000001800870b4     c2_wwtp3.obj
 0003:000070bc       $SG27405                   00000001800870bc     c2_wwtp3.obj
 0003:000070c0       $SG27003                   00000001800870c0     c2_wwtp3.obj
 0003:000070d0       $SG27004                   00000001800870d0     c2_wwtp3.obj
 0003:00007154       $SG27201                   0000000180087154     c2_wwtp3.obj
 0003:0000715c       $SG27408                   000000018008715c     c2_wwtp3.obj
 0003:00007160       $SG27006                   0000000180087160     c2_wwtp3.obj
 0003:00007170       $SG27007                   0000000180087170     c2_wwtp3.obj
 0003:000071c4       $SG27204                   00000001800871c4     c2_wwtp3.obj
 0003:000071cc       $SG27426                   00000001800871cc     c2_wwtp3.obj
 0003:000071d0       $SG27009                   00000001800871d0     c2_wwtp3.obj
 0003:000071e0       $SG27010                   00000001800871e0     c2_wwtp3.obj
 0003:00007250       $SG27012                   0000000180087250     c2_wwtp3.obj
 0003:00007260       $SG27013                   0000000180087260     c2_wwtp3.obj
 0003:000072d0       $SG27015                   00000001800872d0     c2_wwtp3.obj
 0003:000072e0       $SG27016                   00000001800872e0     c2_wwtp3.obj
 0003:00007350       $SG27018                   0000000180087350     c2_wwtp3.obj
 0003:00007360       $SG27019                   0000000180087360     c2_wwtp3.obj
 0003:000073d0       $SG27021                   00000001800873d0     c2_wwtp3.obj
 0003:000073e0       $SG27022                   00000001800873e0     c2_wwtp3.obj
 0003:00007450       $SG27024                   0000000180087450     c2_wwtp3.obj
 0003:00007460       $SG27025                   0000000180087460     c2_wwtp3.obj
 0003:000074d0       $SG27027                   00000001800874d0     c2_wwtp3.obj
 0003:000074e0       $SG27028                   00000001800874e0     c2_wwtp3.obj
 0003:00007550       $SG27030                   0000000180087550     c2_wwtp3.obj
 0003:00007560       $SG27031                   0000000180087560     c2_wwtp3.obj
 0003:000075d0       $SG27033                   00000001800875d0     c2_wwtp3.obj
 0003:000075e0       $SG27034                   00000001800875e0     c2_wwtp3.obj
 0003:00007650       $SG27036                   0000000180087650     c2_wwtp3.obj
 0003:00007660       $SG27037                   0000000180087660     c2_wwtp3.obj
 0003:000076d0       $SG27039                   00000001800876d0     c2_wwtp3.obj
 0003:000076e0       $SG27040                   00000001800876e0     c2_wwtp3.obj
 0003:00007750       $SG27042                   0000000180087750     c2_wwtp3.obj
 0003:00007760       $SG27043                   0000000180087760     c2_wwtp3.obj
 0003:000077d0       $SG27045                   00000001800877d0     c2_wwtp3.obj
 0003:000077e0       $SG27046                   00000001800877e0     c2_wwtp3.obj
 0003:00007850       $SG27048                   0000000180087850     c2_wwtp3.obj
 0003:00007860       $SG27049                   0000000180087860     c2_wwtp3.obj
 0003:000078d0       $SG27051                   00000001800878d0     c2_wwtp3.obj
 0003:000078e0       $SG27052                   00000001800878e0     c2_wwtp3.obj
 0003:00007950       $SG27054                   0000000180087950     c2_wwtp3.obj
 0003:00007960       $SG27055                   0000000180087960     c2_wwtp3.obj
 0003:000079d0       $SG27057                   00000001800879d0     c2_wwtp3.obj
 0003:000079e0       $SG27058                   00000001800879e0     c2_wwtp3.obj
 0003:00007a50       $SG27061                   0000000180087a50     c2_wwtp3.obj
 0003:00007abc       $SG27207                   0000000180087abc     c2_wwtp3.obj
 0003:00007ac4       $SG27429                   0000000180087ac4     c2_wwtp3.obj
 0003:00007ac8       $SG27063                   0000000180087ac8     c2_wwtp3.obj
 0003:00007ad4       $SG27135                   0000000180087ad4     c2_wwtp3.obj
 0003:00007ae0       $SG27064                   0000000180087ae0     c2_wwtp3.obj
 0003:00007b50       $SG27066                   0000000180087b50     c2_wwtp3.obj
 0003:00007b60       $SG27067                   0000000180087b60     c2_wwtp3.obj
 0003:00007bd0       $SG27069                   0000000180087bd0     c2_wwtp3.obj
 0003:00007be0       $SG27070                   0000000180087be0     c2_wwtp3.obj
 0003:00007c50       $SG27072                   0000000180087c50     c2_wwtp3.obj
 0003:00007c60       $SG27073                   0000000180087c60     c2_wwtp3.obj
 0003:00007cd0       $SG27075                   0000000180087cd0     c2_wwtp3.obj
 0003:00007ce0       $SG27076                   0000000180087ce0     c2_wwtp3.obj
 0003:00007d50       $SG27078                   0000000180087d50     c2_wwtp3.obj
 0003:00007d60       $SG27079                   0000000180087d60     c2_wwtp3.obj
 0003:00007dd0       $SG27082                   0000000180087dd0     c2_wwtp3.obj
 0003:00007e38       $SG27129                   0000000180087e38     c2_wwtp3.obj
 0003:00007e50       $SG27085                   0000000180087e50     c2_wwtp3.obj
 0003:00007e98       $SG27099                   0000000180087e98     c2_wwtp3.obj
 0003:00007eb8       $SG27150                   0000000180087eb8     c2_wwtp3.obj
 0003:00007ec0       $SG27088                   0000000180087ec0     c2_wwtp3.obj
 0003:00007f28       $SG27090                   0000000180087f28     c2_wwtp3.obj
 0003:00007f34       $SG27210                   0000000180087f34     c2_wwtp3.obj
 0003:00007f40       $SG27091                   0000000180087f40     c2_wwtp3.obj
 0003:00007fb0       $SG27094                   0000000180087fb0     c2_wwtp3.obj
 0003:00008018       $SG27153                   0000000180088018     c2_wwtp3.obj
 0003:00008028       $SG27213                   0000000180088028     c2_wwtp3.obj
 0003:00008030       $SG27097                   0000000180088030     c2_wwtp3.obj
 0003:00008078       $SG27102                   0000000180088078     c2_wwtp3.obj
 0003:00008088       $SG27216                   0000000180088088     c2_wwtp3.obj
 0003:00008090       $SG27100                   0000000180088090     c2_wwtp3.obj
 0003:000080f0       $SG27103                   00000001800880f0     c2_wwtp3.obj
 0003:00008178       $SG27111                   0000000180088178     c2_wwtp3.obj
 0003:00008188       $SG27219                   0000000180088188     c2_wwtp3.obj
 0003:00008190       $SG27106                   0000000180088190     c2_wwtp3.obj
 0003:000081d8       $SG27231                   00000001800881d8     c2_wwtp3.obj
 0003:000081f0       $SG27109                   00000001800881f0     c2_wwtp3.obj
 0003:00008238       $SG27234                   0000000180088238     c2_wwtp3.obj
 0003:00008250       $SG27112                   0000000180088250     c2_wwtp3.obj
 0003:000082d4       $SG27261                   00000001800882d4     c2_wwtp3.obj
 0003:000082dc       $SG27444                   00000001800882dc     c2_wwtp3.obj
 0003:000082e0       $SG27114                   00000001800882e0     c2_wwtp3.obj
 0003:000082f0       $SG27115                   00000001800882f0     c2_wwtp3.obj
 0003:00008374       $SG27264                   0000000180088374     c2_wwtp3.obj
 0003:0000837c       $SG27447                   000000018008837c     c2_wwtp3.obj
 0003:00008380       $SG27117                   0000000180088380     c2_wwtp3.obj
 0003:00008390       $SG27118                   0000000180088390     c2_wwtp3.obj
 0003:00008414       $SG27267                   0000000180088414     c2_wwtp3.obj
 0003:0000841c       $SG27474                   000000018008841c     c2_wwtp3.obj
 0003:00008420       $SG27120                   0000000180088420     c2_wwtp3.obj
 0003:00008430       $SG27121                   0000000180088430     c2_wwtp3.obj
 0003:000084b8       $SG27132                   00000001800884b8     c2_wwtp3.obj
 0003:000084c8       $SG27258                   00000001800884c8     c2_wwtp3.obj
 0003:000084e0       $SG27124                   00000001800884e0     c2_wwtp3.obj
 0003:00008550       $SG27127                   0000000180088550     c2_wwtp3.obj
 0003:00008598       $SG27138                   0000000180088598     c2_wwtp3.obj
 0003:000085a8       $SG27270                   00000001800885a8     c2_wwtp3.obj
 0003:000085b0       $SG27130                   00000001800885b0     c2_wwtp3.obj
 0003:00008610       $SG27133                   0000000180088610     c2_wwtp3.obj
 0003:00008660       $SG27136                   0000000180088660     c2_wwtp3.obj
 0003:000086a8       $SG27273                   00000001800886a8     c2_wwtp3.obj
 0003:000086b0       $SG27139                   00000001800886b0     c2_wwtp3.obj
 0003:000086fc       $SG27324                   00000001800886fc     c2_wwtp3.obj
 0003:00008704       $SG27477                   0000000180088704     c2_wwtp3.obj
 0003:00008708       $SG27141                   0000000180088708     c2_wwtp3.obj
 0003:00008718       $SG27276                   0000000180088718     c2_wwtp3.obj
 0003:00008720       $SG27142                   0000000180088720     c2_wwtp3.obj
 0003:0000876c       $SG27423                   000000018008876c     c2_wwtp3.obj
 0003:00008774       $SG27489                   0000000180088774     c2_wwtp3.obj
 0003:00008778       $SG27144                   0000000180088778     c2_wwtp3.obj
 0003:00008788       $SG27279                   0000000180088788     c2_wwtp3.obj
 0003:00008790       $SG27145                   0000000180088790     c2_wwtp3.obj
 0003:000087e0       $SG27148                   00000001800887e0     c2_wwtp3.obj
 0003:00008828       $SG27282                   0000000180088828     c2_wwtp3.obj
 0003:00008830       $SG27151                   0000000180088830     c2_wwtp3.obj
 0003:00008878       $SG27156                   0000000180088878     c2_wwtp3.obj
 0003:00008888       $SG27285                   0000000180088888     c2_wwtp3.obj
 0003:00008890       $SG27154                   0000000180088890     c2_wwtp3.obj
 0003:000088e8       $SG27159                   00000001800888e8     c2_wwtp3.obj
 0003:000088f8       $SG27288                   00000001800888f8     c2_wwtp3.obj
 0003:00008900       $SG27157                   0000000180088900     c2_wwtp3.obj
 0003:00008950       $SG27160                   0000000180088950     c2_wwtp3.obj
 0003:000089a0       $SG27163                   00000001800889a0     c2_wwtp3.obj
 0003:00008a10       $SG27166                   0000000180088a10     c2_wwtp3.obj
 0003:00008a7c       $SG27555                   0000000180088a7c     c2_wwtp3.obj
 0003:00008a80       $SG27168                   0000000180088a80     c2_wwtp3.obj
 0003:00008a90       $SG27169                   0000000180088a90     c2_wwtp3.obj
 0003:00008b00       $SG27171                   0000000180088b00     c2_wwtp3.obj
 0003:00008b10       $SG27172                   0000000180088b10     c2_wwtp3.obj
 0003:00008b80       $SG27174                   0000000180088b80     c2_wwtp3.obj
 0003:00008b90       $SG27175                   0000000180088b90     c2_wwtp3.obj
 0003:00008c14       $SG27450                   0000000180088c14     c2_wwtp3.obj
 0003:00008c1c       $SG27558                   0000000180088c1c     c2_wwtp3.obj
 0003:00008c20       $SG27177                   0000000180088c20     c2_wwtp3.obj
 0003:00008c30       $SG27178                   0000000180088c30     c2_wwtp3.obj
 0003:00008cb4       $SG27453                   0000000180088cb4     c2_wwtp3.obj
 0003:00008cbc       $SG27637                   0000000180088cbc     c2_wwtp3.obj
 0003:00008cc0       $SG27180                   0000000180088cc0     c2_wwtp3.obj
 0003:00008cd0       $SG27181                   0000000180088cd0     c2_wwtp3.obj
 0003:00008d58       $SG27225                   0000000180088d58     c2_wwtp3.obj
 0003:00008d68       $SG27294                   0000000180088d68     c2_wwtp3.obj
 0003:00008d70       $SG27184                   0000000180088d70     c2_wwtp3.obj
 0003:00008dd8       $SG27228                   0000000180088dd8     c2_wwtp3.obj
 0003:00008de8       $SG27309                   0000000180088de8     c2_wwtp3.obj
 0003:00008df8       $SG27327                   0000000180088df8     c2_wwtp3.obj
 0003:00008e10       $SG27187                   0000000180088e10     c2_wwtp3.obj
 0003:00008e78       $SG27237                   0000000180088e78     c2_wwtp3.obj
 0003:00008e88       $SG27312                   0000000180088e88     c2_wwtp3.obj
 0003:00008e98       $SG27381                   0000000180088e98     c2_wwtp3.obj
 0003:00008ea0       $SG27190                   0000000180088ea0     c2_wwtp3.obj
 0003:00008f08       $SG27240                   0000000180088f08     c2_wwtp3.obj
 0003:00008f18       $SG27315                   0000000180088f18     c2_wwtp3.obj
 0003:00008f28       $SG27384                   0000000180088f28     c2_wwtp3.obj
 0003:00008f30       $SG27193                   0000000180088f30     c2_wwtp3.obj
 0003:00008f74       $SG27780                   0000000180088f74     c2_wwtp3.obj
 0003:00008f78       $SG27195                   0000000180088f78     c2_wwtp3.obj
 0003:00008f88       $SG27243                   0000000180088f88     c2_wwtp3.obj
 0003:00008f98       $SG27354                   0000000180088f98     c2_wwtp3.obj
 0003:00008fa8       $SG27456                   0000000180088fa8     c2_wwtp3.obj
 0003:00008fb0       $SG27196                   0000000180088fb0     c2_wwtp3.obj
 0003:00009000       $SG27199                   0000000180089000     c2_wwtp3.obj
 0003:00009068       $SG27246                   0000000180089068     c2_wwtp3.obj
 0003:00009078       $SG27462                   0000000180089078     c2_wwtp3.obj
 0003:00009080       $SG27202                   0000000180089080     c2_wwtp3.obj
 0003:000090e8       $SG27249                   00000001800890e8     c2_wwtp3.obj
 0003:000090f8       $SG27465                   00000001800890f8     c2_wwtp3.obj
 0003:00009100       $SG27205                   0000000180089100     c2_wwtp3.obj
 0003:00009168       $SG27252                   0000000180089168     c2_wwtp3.obj
 0003:00009178       $SG27468                   0000000180089178     c2_wwtp3.obj
 0003:00009180       $SG27208                   0000000180089180     c2_wwtp3.obj
 0003:000091f0       $SG27211                   00000001800891f0     c2_wwtp3.obj
 0003:00009260       $SG27214                   0000000180089260     c2_wwtp3.obj
 0003:000092d0       $SG27217                   00000001800892d0     c2_wwtp3.obj
 0003:00009340       $SG27220                   0000000180089340     c2_wwtp3.obj
 0003:000093b0       $SG27223                   00000001800893b0     c2_wwtp3.obj
 0003:00009418       $SG27531                   0000000180089418     c2_wwtp3.obj
 0003:00009420       $SG27226                   0000000180089420     c2_wwtp3.obj
 0003:00009490       $SG27229                   0000000180089490     c2_wwtp3.obj
 0003:00009500       $SG27232                   0000000180089500     c2_wwtp3.obj
 0003:00009554       $SG27534                   0000000180089554     c2_wwtp3.obj
 0003:00009560       $SG27235                   0000000180089560     c2_wwtp3.obj
 0003:000095b4       $SG27546                   00000001800895b4     c2_wwtp3.obj
 0003:000095c0       $SG27238                   00000001800895c0     c2_wwtp3.obj
 0003:00009630       $SG27241                   0000000180089630     c2_wwtp3.obj
 0003:000096a0       $SG27244                   00000001800896a0     c2_wwtp3.obj
 0003:00009710       $SG27247                   0000000180089710     c2_wwtp3.obj
 0003:00009780       $SG27250                   0000000180089780     c2_wwtp3.obj
 0003:000097f0       $SG27253                   00000001800897f0     c2_wwtp3.obj
 0003:0000985c       $SG27783                   000000018008985c     c2_wwtp3.obj
 0003:00009860       $SG27255                   0000000180089860     c2_wwtp3.obj
 0003:00009870       $SG27256                   0000000180089870     c2_wwtp3.obj
 0003:000098e0       $SG27259                   00000001800898e0     c2_wwtp3.obj
 0003:00009938       $SG27621                   0000000180089938     c2_wwtp3.obj
 0003:00009940       $SG27262                   0000000180089940     c2_wwtp3.obj
 0003:000099b0       $SG27265                   00000001800899b0     c2_wwtp3.obj
 0003:00009a20       $SG27268                   0000000180089a20     c2_wwtp3.obj
 0003:00009a90       $SG27271                   0000000180089a90     c2_wwtp3.obj
 0003:00009b00       $SG27274                   0000000180089b00     c2_wwtp3.obj
 0003:00009b70       $SG27277                   0000000180089b70     c2_wwtp3.obj
 0003:00009be0       $SG27280                   0000000180089be0     c2_wwtp3.obj
 0003:00009c50       $SG27283                   0000000180089c50     c2_wwtp3.obj
 0003:00009cc0       $SG27286                   0000000180089cc0     c2_wwtp3.obj
 0003:00009d30       $SG27289                   0000000180089d30     c2_wwtp3.obj
 0003:00009d90       $SG27292                   0000000180089d90     c2_wwtp3.obj
 0003:00009df8       $SG27622                   0000000180089df8     c2_wwtp3.obj
 0003:00009e08       $SG27625                   0000000180089e08     c2_wwtp3.obj
 0003:00009e10       $SG27295                   0000000180089e10     c2_wwtp3.obj
 0003:00009e80       $SG27297                   0000000180089e80     c2_wwtp3.obj
 0003:00009e90       $SG27298                   0000000180089e90     c2_wwtp3.obj
 0003:00009f18       $SG27300                   0000000180089f18     c2_wwtp3.obj
 0003:00009f28       $SG27626                   0000000180089f28     c2_wwtp3.obj
 0003:00009f38       $SG27629                   0000000180089f38     c2_wwtp3.obj
 0003:00009f40       $SG27301                   0000000180089f40     c2_wwtp3.obj
 0003:00009fc8       $SG27303                   0000000180089fc8     c2_wwtp3.obj
 0003:00009fd8       $SG27630                   0000000180089fd8     c2_wwtp3.obj
 0003:00009fe8       $SG27633                   0000000180089fe8     c2_wwtp3.obj
 0003:00009ff0       $SG27304                   0000000180089ff0     c2_wwtp3.obj
 0003:0000a078       $SG27306                   000000018008a078     c2_wwtp3.obj
 0003:0000a088       $SG27641                   000000018008a088     c2_wwtp3.obj
 0003:0000a090       $SG27307                   000000018008a090     c2_wwtp3.obj
 0003:0000a118       $SG27310                   000000018008a118     c2_wwtp3.obj
 0003:0000a128       $SG27313                   000000018008a128     c2_wwtp3.obj
 0003:0000a138       $SG27316                   000000018008a138     c2_wwtp3.obj
 0003:0000a148       $SG27318                   000000018008a148     c2_wwtp3.obj
 0003:0000a158       $SG27645                   000000018008a158     c2_wwtp3.obj
 0003:0000a160       $SG27319                   000000018008a160     c2_wwtp3.obj
 0003:0000a1d0       $SG27321                   000000018008a1d0     c2_wwtp3.obj
 0003:0000a1e0       $SG27322                   000000018008a1e0     c2_wwtp3.obj
 0003:0000a250       $SG27325                   000000018008a250     c2_wwtp3.obj
 0003:0000a2b8       $SG27357                   000000018008a2b8     c2_wwtp3.obj
 0003:0000a2c8       $SG27649                   000000018008a2c8     c2_wwtp3.obj
 0003:0000a2e0       $SG27328                   000000018008a2e0     c2_wwtp3.obj
 0003:0000a380       $SG27330                   000000018008a380     c2_wwtp3.obj
 0003:0000a38c       $SG27684                   000000018008a38c     c2_wwtp3.obj
 0003:0000a398       $SG27336                   000000018008a398     c2_wwtp3.obj
 0003:0000a3a8       $SG27360                   000000018008a3a8     c2_wwtp3.obj
 0003:0000a3b8       $SG27688                   000000018008a3b8     c2_wwtp3.obj
 0003:0000a3c0       $SG27331                   000000018008a3c0     c2_wwtp3.obj
 0003:0000a410       $SG27334                   000000018008a410     c2_wwtp3.obj
 0003:0000a478       $SG27691                   000000018008a478     c2_wwtp3.obj
 0003:0000a480       $SG27337                   000000018008a480     c2_wwtp3.obj
 0003:0000a4f0       $SG27340                   000000018008a4f0     c2_wwtp3.obj
 0003:0000a558       $SG27695                   000000018008a558     c2_wwtp3.obj
 0003:0000a560       $SG27343                   000000018008a560     c2_wwtp3.obj
 0003:0000a5c8       $SG27345                   000000018008a5c8     c2_wwtp3.obj
 0003:0000a5d8       $SG27366                   000000018008a5d8     c2_wwtp3.obj
 0003:0000a5e8       $SG27698                   000000018008a5e8     c2_wwtp3.obj
 0003:0000a5f0       $SG27346                   000000018008a5f0     c2_wwtp3.obj
 0003:0000a660       $SG27348                   000000018008a660     c2_wwtp3.obj
 0003:0000a670       $SG27349                   000000018008a670     c2_wwtp3.obj
 0003:0000a6e0       $SG27351                   000000018008a6e0     c2_wwtp3.obj
 0003:0000a6f0       $SG27352                   000000018008a6f0     c2_wwtp3.obj
 0003:0000a760       $SG27355                   000000018008a760     c2_wwtp3.obj
 0003:0000a770       $SG27358                   000000018008a770     c2_wwtp3.obj
 0003:0000a7e8       $SG27363                   000000018008a7e8     c2_wwtp3.obj
 0003:0000a7f8       $SG27369                   000000018008a7f8     c2_wwtp3.obj
 0003:0000a808       $SG27702                   000000018008a808     c2_wwtp3.obj
 0003:0000a810       $SG27361                   000000018008a810     c2_wwtp3.obj
 0003:0000a880       $SG27364                   000000018008a880     c2_wwtp3.obj
 0003:0000a8f0       $SG27367                   000000018008a8f0     c2_wwtp3.obj
 0003:0000a960       $SG27370                   000000018008a960     c2_wwtp3.obj
 0003:0000a9d0       $SG27372                   000000018008a9d0     c2_wwtp3.obj
 0003:0000a9e0       $SG27373                   000000018008a9e0     c2_wwtp3.obj
 0003:0000aa50       $SG27375                   000000018008aa50     c2_wwtp3.obj
 0003:0000aa60       $SG27376                   000000018008aa60     c2_wwtp3.obj
 0003:0000aad0       $SG27378                   000000018008aad0     c2_wwtp3.obj
 0003:0000aae0       $SG27379                   000000018008aae0     c2_wwtp3.obj
 0003:0000ab50       $SG27382                   000000018008ab50     c2_wwtp3.obj
 0003:0000abc0       $SG27385                   000000018008abc0     c2_wwtp3.obj
 0003:0000ac30       $SG27388                   000000018008ac30     c2_wwtp3.obj
 0003:0000ac98       $SG27705                   000000018008ac98     c2_wwtp3.obj
 0003:0000aca0       $SG27391                   000000018008aca0     c2_wwtp3.obj
 0003:0000ad08       $SG27709                   000000018008ad08     c2_wwtp3.obj
 0003:0000ad10       $SG27394                   000000018008ad10     c2_wwtp3.obj
 0003:0000ad78       $SG27722                   000000018008ad78     c2_wwtp3.obj
 0003:0000ad80       $SG27397                   000000018008ad80     c2_wwtp3.obj
 0003:0000ade8       $SG27747                   000000018008ade8     c2_wwtp3.obj
 0003:0000adf0       $SG27400                   000000018008adf0     c2_wwtp3.obj
 0003:0000ae58       $SG27792                   000000018008ae58     c2_wwtp3.obj
 0003:0000ae60       $SG27403                   000000018008ae60     c2_wwtp3.obj
 0003:0000aec8       $SG27804                   000000018008aec8     c2_wwtp3.obj
 0003:0000aee0       $SG27406                   000000018008aee0     c2_wwtp3.obj
 0003:0000af48       $SG27807                   000000018008af48     c2_wwtp3.obj
 0003:0000af50       $SG27409                   000000018008af50     c2_wwtp3.obj
 0003:0000afb8       $SG27411                   000000018008afb8     c2_wwtp3.obj
 0003:0000afd0       $SG27412                   000000018008afd0     c2_wwtp3.obj
 0003:0000b058       $SG27414                   000000018008b058     c2_wwtp3.obj
 0003:0000b070       $SG27415                   000000018008b070     c2_wwtp3.obj
 0003:0000b0f8       $SG27417                   000000018008b0f8     c2_wwtp3.obj
 0003:0000b110       $SG27418                   000000018008b110     c2_wwtp3.obj
 0003:0000b198       $SG27420                   000000018008b198     c2_wwtp3.obj
 0003:0000b1b0       $SG27421                   000000018008b1b0     c2_wwtp3.obj
 0003:0000b238       $SG27432                   000000018008b238     c2_wwtp3.obj
 0003:0000b250       $SG27424                   000000018008b250     c2_wwtp3.obj
 0003:0000b2a0       $SG27427                   000000018008b2a0     c2_wwtp3.obj
 0003:0000b310       $SG27430                   000000018008b310     c2_wwtp3.obj
 0003:0000b380       $SG27433                   000000018008b380     c2_wwtp3.obj
 0003:0000b3f0       $SG27435                   000000018008b3f0     c2_wwtp3.obj
 0003:0000b400       $SG27436                   000000018008b400     c2_wwtp3.obj
 0003:0000b470       $SG27438                   000000018008b470     c2_wwtp3.obj
 0003:0000b480       $SG27439                   000000018008b480     c2_wwtp3.obj
 0003:0000b4f0       $SG27441                   000000018008b4f0     c2_wwtp3.obj
 0003:0000b500       $SG27442                   000000018008b500     c2_wwtp3.obj
 0003:0000b570       $SG27445                   000000018008b570     c2_wwtp3.obj
 0003:0000b5e0       $SG27448                   000000018008b5e0     c2_wwtp3.obj
 0003:0000b650       $SG27451                   000000018008b650     c2_wwtp3.obj
 0003:0000b6c0       $SG27454                   000000018008b6c0     c2_wwtp3.obj
 0003:0000b730       $SG27457                   000000018008b730     c2_wwtp3.obj
 0003:0000b7a0       $SG27459                   000000018008b7a0     c2_wwtp3.obj
 0003:0000b7b0       $SG27460                   000000018008b7b0     c2_wwtp3.obj
 0003:0000b820       $SG27463                   000000018008b820     c2_wwtp3.obj
 0003:0000b890       $SG27466                   000000018008b890     c2_wwtp3.obj
 0003:0000b900       $SG27469                   000000018008b900     c2_wwtp3.obj
 0003:0000b970       $SG27471                   000000018008b970     c2_wwtp3.obj
 0003:0000b980       $SG27472                   000000018008b980     c2_wwtp3.obj
 0003:0000ba08       $SG27480                   000000018008ba08     c2_wwtp3.obj
 0003:0000ba20       $SG27475                   000000018008ba20     c2_wwtp3.obj
 0003:0000ba70       $SG27478                   000000018008ba70     c2_wwtp3.obj
 0003:0000bac0       $SG27481                   000000018008bac0     c2_wwtp3.obj
 0003:0000bb48       $SG27483                   000000018008bb48     c2_wwtp3.obj
 0003:0000bb60       $SG27484                   000000018008bb60     c2_wwtp3.obj
 0003:0000bbe8       $SG27486                   000000018008bbe8     c2_wwtp3.obj
 0003:0000bc00       $SG27487                   000000018008bc00     c2_wwtp3.obj
 0003:0000bc88       $SG27492                   000000018008bc88     c2_wwtp3.obj
 0003:0000bca0       $SG27490                   000000018008bca0     c2_wwtp3.obj
 0003:0000bcf0       $SG27493                   000000018008bcf0     c2_wwtp3.obj
 0003:0000bd78       $SG27495                   000000018008bd78     c2_wwtp3.obj
 0003:0000bd90       $SG27496                   000000018008bd90     c2_wwtp3.obj
 0003:0000be18       $SG27498                   000000018008be18     c2_wwtp3.obj
 0003:0000be30       $SG27499                   000000018008be30     c2_wwtp3.obj
 0003:0000bea0       $SG27501                   000000018008bea0     c2_wwtp3.obj
 0003:0000beb0       $SG27502                   000000018008beb0     c2_wwtp3.obj
 0003:0000bf20       $SG27504                   000000018008bf20     c2_wwtp3.obj
 0003:0000bf30       $SG27505                   000000018008bf30     c2_wwtp3.obj
 0003:0000bfa0       $SG27507                   000000018008bfa0     c2_wwtp3.obj
 0003:0000bfb0       $SG27508                   000000018008bfb0     c2_wwtp3.obj
 0003:0000c020       $SG27510                   000000018008c020     c2_wwtp3.obj
 0003:0000c030       $SG27511                   000000018008c030     c2_wwtp3.obj
 0003:0000c0a0       $SG27513                   000000018008c0a0     c2_wwtp3.obj
 0003:0000c0b0       $SG27514                   000000018008c0b0     c2_wwtp3.obj
 0003:0000c120       $SG27516                   000000018008c120     c2_wwtp3.obj
 0003:0000c130       $SG27517                   000000018008c130     c2_wwtp3.obj
 0003:0000c1a0       $SG27519                   000000018008c1a0     c2_wwtp3.obj
 0003:0000c1b0       $SG27520                   000000018008c1b0     c2_wwtp3.obj
 0003:0000c220       $SG27522                   000000018008c220     c2_wwtp3.obj
 0003:0000c230       $SG27523                   000000018008c230     c2_wwtp3.obj
 0003:0000c2a0       $SG27525                   000000018008c2a0     c2_wwtp3.obj
 0003:0000c2b0       $SG27526                   000000018008c2b0     c2_wwtp3.obj
 0003:0000c320       $SG27528                   000000018008c320     c2_wwtp3.obj
 0003:0000c330       $SG27529                   000000018008c330     c2_wwtp3.obj
 0003:0000c3a0       $SG27532                   000000018008c3a0     c2_wwtp3.obj
 0003:0000c410       $SG27535                   000000018008c410     c2_wwtp3.obj
 0003:0000c480       $SG27537                   000000018008c480     c2_wwtp3.obj
 0003:0000c490       $SG27538                   000000018008c490     c2_wwtp3.obj
 0003:0000c500       $SG27540                   000000018008c500     c2_wwtp3.obj
 0003:0000c510       $SG27541                   000000018008c510     c2_wwtp3.obj
 0003:0000c580       $SG27543                   000000018008c580     c2_wwtp3.obj
 0003:0000c590       $SG27544                   000000018008c590     c2_wwtp3.obj
 0003:0000c600       $SG27547                   000000018008c600     c2_wwtp3.obj
 0003:0000c648       $SG27549                   000000018008c648     c2_wwtp3.obj
 0003:0000c660       $SG27550                   000000018008c660     c2_wwtp3.obj
 0003:0000c6d0       $SG27552                   000000018008c6d0     c2_wwtp3.obj
 0003:0000c6e0       $SG27553                   000000018008c6e0     c2_wwtp3.obj
 0003:0000c750       $SG27556                   000000018008c750     c2_wwtp3.obj
 0003:0000c798       $SG27561                   000000018008c798     c2_wwtp3.obj
 0003:0000c7b0       $SG27559                   000000018008c7b0     c2_wwtp3.obj
 0003:0000c7f8       $SG27564                   000000018008c7f8     c2_wwtp3.obj
 0003:0000c810       $SG27562                   000000018008c810     c2_wwtp3.obj
 0003:0000c898       $SG27567                   000000018008c898     c2_wwtp3.obj
 0003:0000c8b0       $SG27565                   000000018008c8b0     c2_wwtp3.obj
 0003:0000c938       $SG27570                   000000018008c938     c2_wwtp3.obj
 0003:0000c950       $SG27568                   000000018008c950     c2_wwtp3.obj
 0003:0000c9c0       $SG27571                   000000018008c9c0     c2_wwtp3.obj
 0003:0000ca30       $SG27573                   000000018008ca30     c2_wwtp3.obj
 0003:0000ca40       $SG27574                   000000018008ca40     c2_wwtp3.obj
 0003:0000cab0       $SG27576                   000000018008cab0     c2_wwtp3.obj
 0003:0000cac0       $SG27577                   000000018008cac0     c2_wwtp3.obj
 0003:0000cb30       $SG27580                   000000018008cb30     c2_wwtp3.obj
 0003:0000cb40       $SG27581                   000000018008cb40     c2_wwtp3.obj
 0003:0000cbb0       $SG27584                   000000018008cbb0     c2_wwtp3.obj
 0003:0000cbc0       $SG27585                   000000018008cbc0     c2_wwtp3.obj
 0003:0000cc30       $SG27588                   000000018008cc30     c2_wwtp3.obj
 0003:0000cc40       $SG27589                   000000018008cc40     c2_wwtp3.obj
 0003:0000ccb0       $SG27592                   000000018008ccb0     c2_wwtp3.obj
 0003:0000ccc0       $SG27593                   000000018008ccc0     c2_wwtp3.obj
 0003:0000cd30       $SG27595                   000000018008cd30     c2_wwtp3.obj
 0003:0000cd40       $SG27596                   000000018008cd40     c2_wwtp3.obj
 0003:0000cdb0       $SG27598                   000000018008cdb0     c2_wwtp3.obj
 0003:0000cdc0       $SG27599                   000000018008cdc0     c2_wwtp3.obj
 0003:0000ce30       $SG27602                   000000018008ce30     c2_wwtp3.obj
 0003:0000ce40       $SG27603                   000000018008ce40     c2_wwtp3.obj
 0003:0000ceb0       $SG27605                   000000018008ceb0     c2_wwtp3.obj
 0003:0000cec0       $SG27606                   000000018008cec0     c2_wwtp3.obj
 0003:0000cf30       $SG27608                   000000018008cf30     c2_wwtp3.obj
 0003:0000cf40       $SG27609                   000000018008cf40     c2_wwtp3.obj
 0003:0000cfb0       $SG27611                   000000018008cfb0     c2_wwtp3.obj
 0003:0000cfc0       $SG27612                   000000018008cfc0     c2_wwtp3.obj
 0003:0000d030       $SG27614                   000000018008d030     c2_wwtp3.obj
 0003:0000d040       $SG27615                   000000018008d040     c2_wwtp3.obj
 0003:0000d0b0       $SG27618                   000000018008d0b0     c2_wwtp3.obj
 0003:0000d0c0       $SG27619                   000000018008d0c0     c2_wwtp3.obj
 0003:0000d130       $SG27623                   000000018008d130     c2_wwtp3.obj
 0003:0000d140       $SG27627                   000000018008d140     c2_wwtp3.obj
 0003:0000d150       $SG27631                   000000018008d150     c2_wwtp3.obj
 0003:0000d160       $SG27634                   000000018008d160     c2_wwtp3.obj
 0003:0000d1b0       $SG27638                   000000018008d1b0     c2_wwtp3.obj
 0003:0000d220       $SG27642                   000000018008d220     c2_wwtp3.obj
 0003:0000d290       $SG27646                   000000018008d290     c2_wwtp3.obj
 0003:0000d300       $SG27650                   000000018008d300     c2_wwtp3.obj
 0003:0000d3a0       $SG27652                   000000018008d3a0     c2_wwtp3.obj
 0003:0000d3b0       $SG27653                   000000018008d3b0     c2_wwtp3.obj
 0003:0000d438       $SG27656                   000000018008d438     c2_wwtp3.obj
 0003:0000d450       $SG27657                   000000018008d450     c2_wwtp3.obj
 0003:0000d4d8       $SG27659                   000000018008d4d8     c2_wwtp3.obj
 0003:0000d4f0       $SG27660                   000000018008d4f0     c2_wwtp3.obj
 0003:0000d578       $SG27663                   000000018008d578     c2_wwtp3.obj
 0003:0000d590       $SG27664                   000000018008d590     c2_wwtp3.obj
 0003:0000d618       $SG27666                   000000018008d618     c2_wwtp3.obj
 0003:0000d630       $SG27667                   000000018008d630     c2_wwtp3.obj
 0003:0000d6b8       $SG27670                   000000018008d6b8     c2_wwtp3.obj
 0003:0000d6d0       $SG27671                   000000018008d6d0     c2_wwtp3.obj
 0003:0000d758       $SG27673                   000000018008d758     c2_wwtp3.obj
 0003:0000d770       $SG27674                   000000018008d770     c2_wwtp3.obj
 0003:0000d7f8       $SG27677                   000000018008d7f8     c2_wwtp3.obj
 0003:0000d810       $SG27678                   000000018008d810     c2_wwtp3.obj
 0003:0000d898       $SG27681                   000000018008d898     c2_wwtp3.obj
 0003:0000d8b0       $SG27682                   000000018008d8b0     c2_wwtp3.obj
 0003:0000d920       $SG27685                   000000018008d920     c2_wwtp3.obj
 0003:0000d990       $SG27689                   000000018008d990     c2_wwtp3.obj
 0003:0000da00       $SG27692                   000000018008da00     c2_wwtp3.obj
 0003:0000da70       $SG27696                   000000018008da70     c2_wwtp3.obj
 0003:0000dae0       $SG27699                   000000018008dae0     c2_wwtp3.obj
 0003:0000db50       $SG27703                   000000018008db50     c2_wwtp3.obj
 0003:0000dbc0       $SG27706                   000000018008dbc0     c2_wwtp3.obj
 0003:0000dc30       $SG27710                   000000018008dc30     c2_wwtp3.obj
 0003:0000dca0       $SG27712                   000000018008dca0     c2_wwtp3.obj
 0003:0000dcb0       $SG27713                   000000018008dcb0     c2_wwtp3.obj
 0003:0000dd20       $SG27715                   000000018008dd20     c2_wwtp3.obj
 0003:0000dd30       $SG27716                   000000018008dd30     c2_wwtp3.obj
 0003:0000dda0       $SG27719                   000000018008dda0     c2_wwtp3.obj
 0003:0000ddb0       $SG27720                   000000018008ddb0     c2_wwtp3.obj
 0003:0000de20       $SG27723                   000000018008de20     c2_wwtp3.obj
 0003:0000de68       $SG27726                   000000018008de68     c2_wwtp3.obj
 0003:0000de80       $SG27727                   000000018008de80     c2_wwtp3.obj
 0003:0000def0       $SG27730                   000000018008def0     c2_wwtp3.obj
 0003:0000df00       $SG27731                   000000018008df00     c2_wwtp3.obj
 0003:0000df70       $SG27733                   000000018008df70     c2_wwtp3.obj
 0003:0000df80       $SG27734                   000000018008df80     c2_wwtp3.obj
 0003:0000dff0       $SG27736                   000000018008dff0     c2_wwtp3.obj
 0003:0000e000       $SG27737                   000000018008e000     c2_wwtp3.obj
 0003:0000e070       $SG27740                   000000018008e070     c2_wwtp3.obj
 0003:0000e080       $SG27741                   000000018008e080     c2_wwtp3.obj
 0003:0000e0f0       $SG27744                   000000018008e0f0     c2_wwtp3.obj
 0003:0000e100       $SG27745                   000000018008e100     c2_wwtp3.obj
 0003:0000e170       $SG27748                   000000018008e170     c2_wwtp3.obj
 0003:0000e1b8       $SG27751                   000000018008e1b8     c2_wwtp3.obj
 0003:0000e1d0       $SG27752                   000000018008e1d0     c2_wwtp3.obj
 0003:0000e240       $SG27755                   000000018008e240     c2_wwtp3.obj
 0003:0000e250       $SG27756                   000000018008e250     c2_wwtp3.obj
 0003:0000e2c0       $SG27759                   000000018008e2c0     c2_wwtp3.obj
 0003:0000e2d0       $SG27760                   000000018008e2d0     c2_wwtp3.obj
 0003:0000e340       $SG27763                   000000018008e340     c2_wwtp3.obj
 0003:0000e350       $SG27764                   000000018008e350     c2_wwtp3.obj
 0003:0000e3c0       $SG27767                   000000018008e3c0     c2_wwtp3.obj
 0003:0000e3d0       $SG27768                   000000018008e3d0     c2_wwtp3.obj
 0003:0000e440       $SG27770                   000000018008e440     c2_wwtp3.obj
 0003:0000e450       $SG27771                   000000018008e450     c2_wwtp3.obj
 0003:0000e4c0       $SG27774                   000000018008e4c0     c2_wwtp3.obj
 0003:0000e4d0       $SG27775                   000000018008e4d0     c2_wwtp3.obj
 0003:0000e540       $SG27777                   000000018008e540     c2_wwtp3.obj
 0003:0000e550       $SG27778                   000000018008e550     c2_wwtp3.obj
 0003:0000e5c0       $SG27781                   000000018008e5c0     c2_wwtp3.obj
 0003:0000e608       $SG27786                   000000018008e608     c2_wwtp3.obj
 0003:0000e620       $SG27784                   000000018008e620     c2_wwtp3.obj
 0003:0000e668       $SG27789                   000000018008e668     c2_wwtp3.obj
 0003:0000e680       $SG27787                   000000018008e680     c2_wwtp3.obj
 0003:0000e6f0       $SG27790                   000000018008e6f0     c2_wwtp3.obj
 0003:0000e760       $SG27793                   000000018008e760     c2_wwtp3.obj
 0003:0000e7d0       $SG27795                   000000018008e7d0     c2_wwtp3.obj
 0003:0000e7e0       $SG27796                   000000018008e7e0     c2_wwtp3.obj
 0003:0000e868       $SG27798                   000000018008e868     c2_wwtp3.obj
 0003:0000e880       $SG27799                   000000018008e880     c2_wwtp3.obj
 0003:0000e8f0       $SG27801                   000000018008e8f0     c2_wwtp3.obj
 0003:0000e900       $SG27802                   000000018008e900     c2_wwtp3.obj
 0003:0000e970       $SG27805                   000000018008e970     c2_wwtp3.obj
 0003:0000e9c0       $SG27808                   000000018008e9c0     c2_wwtp3.obj
 0003:0000ea08       c2_emlrtMCI                000000018008ea08     c2_wwtp3.obj
 0003:0000ea20       c2_b_emlrtMCI              000000018008ea20     c2_wwtp3.obj
 0003:0000ea38       c2_c_emlrtMCI              000000018008ea38     c2_wwtp3.obj
 0003:0000ea50       c2_d_emlrtMCI              000000018008ea50     c2_wwtp3.obj
 0003:0000ea68       c2_e_emlrtMCI              000000018008ea68     c2_wwtp3.obj
 0003:0000ea80       c2_f_emlrtMCI              000000018008ea80     c2_wwtp3.obj
 0003:0000ea98       c2_g_emlrtMCI              000000018008ea98     c2_wwtp3.obj
 0003:0000eab0       c2_h_emlrtMCI              000000018008eab0     c2_wwtp3.obj
 0003:0000eac8       c2_i_emlrtMCI              000000018008eac8     c2_wwtp3.obj
 0003:0000eae0       c2_j_emlrtMCI              000000018008eae0     c2_wwtp3.obj
 0003:0000eaf8       c2_k_emlrtMCI              000000018008eaf8     c2_wwtp3.obj
 0003:0000eb10       c2_l_emlrtMCI              000000018008eb10     c2_wwtp3.obj
 0003:0000eb28       c2_m_emlrtMCI              000000018008eb28     c2_wwtp3.obj
 0003:0000eb40       c2_n_emlrtMCI              000000018008eb40     c2_wwtp3.obj
 0003:0000eb58       c2_o_emlrtMCI              000000018008eb58     c2_wwtp3.obj
 0003:0000eb70       c2_p_emlrtMCI              000000018008eb70     c2_wwtp3.obj
 0003:0000eb88       c2_q_emlrtMCI              000000018008eb88     c2_wwtp3.obj
 0003:0000eba0       c2_r_emlrtMCI              000000018008eba0     c2_wwtp3.obj
 0003:0000ebb8       c2_s_emlrtMCI              000000018008ebb8     c2_wwtp3.obj
 0003:0000ebd0       c2_t_emlrtMCI              000000018008ebd0     c2_wwtp3.obj
 0003:0000ebe8       c2_u_emlrtMCI              000000018008ebe8     c2_wwtp3.obj
 0003:0000ec00       c2_v_emlrtMCI              000000018008ec00     c2_wwtp3.obj
 0003:0000ec18       c2_w_emlrtMCI              000000018008ec18     c2_wwtp3.obj
 0003:0000ec30       c2_x_emlrtMCI              000000018008ec30     c2_wwtp3.obj
 0003:0000ec48       c2_y_emlrtMCI              000000018008ec48     c2_wwtp3.obj
 0003:0000ec60       c2_ab_emlrtMCI             000000018008ec60     c2_wwtp3.obj
 0003:0000ec78       c2_bb_emlrtMCI             000000018008ec78     c2_wwtp3.obj
 0003:0000ec90       c2_cb_emlrtMCI             000000018008ec90     c2_wwtp3.obj
 0003:0000eca8       c2_db_emlrtMCI             000000018008eca8     c2_wwtp3.obj
 0003:0000ecc0       c2_eb_emlrtMCI             000000018008ecc0     c2_wwtp3.obj
 0003:0000ecd8       c2_fb_emlrtMCI             000000018008ecd8     c2_wwtp3.obj
 0003:0000ecf0       c2_gb_emlrtMCI             000000018008ecf0     c2_wwtp3.obj
 0003:0000ed08       c2_hb_emlrtMCI             000000018008ed08     c2_wwtp3.obj
 0003:0000ed20       c2_ib_emlrtMCI             000000018008ed20     c2_wwtp3.obj
 0003:0000ed38       c2_jb_emlrtMCI             000000018008ed38     c2_wwtp3.obj
 0003:0000ed50       c2_kb_emlrtMCI             000000018008ed50     c2_wwtp3.obj
 0003:0000ed68       c2_lb_emlrtMCI             000000018008ed68     c2_wwtp3.obj
 0003:0000ed80       c2_mb_emlrtMCI             000000018008ed80     c2_wwtp3.obj
 0003:0000ed98       c2_nb_emlrtMCI             000000018008ed98     c2_wwtp3.obj
 0003:0000edb0       c2_ob_emlrtMCI             000000018008edb0     c2_wwtp3.obj
 0003:0000edc8       c2_pb_emlrtMCI             000000018008edc8     c2_wwtp3.obj
 0003:0000ede0       c2_qb_emlrtMCI             000000018008ede0     c2_wwtp3.obj
 0003:0000edf8       c2_rb_emlrtMCI             000000018008edf8     c2_wwtp3.obj
 0003:0000ee10       c2_sb_emlrtMCI             000000018008ee10     c2_wwtp3.obj
 0003:0000ee28       c2_tb_emlrtMCI             000000018008ee28     c2_wwtp3.obj
 0003:0000ee40       c2_ub_emlrtMCI             000000018008ee40     c2_wwtp3.obj
 0003:0000ee58       c2_vb_emlrtMCI             000000018008ee58     c2_wwtp3.obj
 0003:0000ee70       c2_wb_emlrtMCI             000000018008ee70     c2_wwtp3.obj
 0003:0000ee88       c2_yb_emlrtMCI             000000018008ee88     c2_wwtp3.obj
 0003:0000eea0       c2_ac_emlrtMCI             000000018008eea0     c2_wwtp3.obj
 0003:0000eeb8       c2_bc_emlrtMCI             000000018008eeb8     c2_wwtp3.obj
 0003:0000eed0       c2_cc_emlrtMCI             000000018008eed0     c2_wwtp3.obj
 0003:0000eee8       c2_dc_emlrtMCI             000000018008eee8     c2_wwtp3.obj
 0003:0000ef00       c2_ec_emlrtMCI             000000018008ef00     c2_wwtp3.obj
 0003:0000ef18       c2_fc_emlrtMCI             000000018008ef18     c2_wwtp3.obj
 0003:0000ef30       c2_gc_emlrtMCI             000000018008ef30     c2_wwtp3.obj
 0003:0000ef48       c2_hc_emlrtMCI             000000018008ef48     c2_wwtp3.obj
 0003:0000ef60       c2_ic_emlrtMCI             000000018008ef60     c2_wwtp3.obj
 0003:0000ef78       c2_kc_emlrtMCI             000000018008ef78     c2_wwtp3.obj
 0003:0000ef90       c2_emlrtRSI                000000018008ef90     c2_wwtp3.obj
 0003:0000efa8       c2_b_emlrtRSI              000000018008efa8     c2_wwtp3.obj
 0003:0000efc0       c2_c_emlrtRSI              000000018008efc0     c2_wwtp3.obj
 0003:0000efd8       c2_d_emlrtRSI              000000018008efd8     c2_wwtp3.obj
 0003:0000eff0       c2_e_emlrtRSI              000000018008eff0     c2_wwtp3.obj
 0003:0000f008       c2_f_emlrtRSI              000000018008f008     c2_wwtp3.obj
 0003:0000f020       c2_g_emlrtRSI              000000018008f020     c2_wwtp3.obj
 0003:0000f038       c2_h_emlrtRSI              000000018008f038     c2_wwtp3.obj
 0003:0000f050       c2_i_emlrtRSI              000000018008f050     c2_wwtp3.obj
 0003:0000f068       c2_j_emlrtRSI              000000018008f068     c2_wwtp3.obj
 0003:0000f080       c2_k_emlrtRSI              000000018008f080     c2_wwtp3.obj
 0003:0000f098       c2_l_emlrtRSI              000000018008f098     c2_wwtp3.obj
 0003:0000f0b0       c2_m_emlrtRSI              000000018008f0b0     c2_wwtp3.obj
 0003:0000f0c8       c2_n_emlrtRSI              000000018008f0c8     c2_wwtp3.obj
 0003:0000f0e0       c2_o_emlrtRSI              000000018008f0e0     c2_wwtp3.obj
 0003:0000f0f8       c2_p_emlrtRSI              000000018008f0f8     c2_wwtp3.obj
 0003:0000f110       c2_q_emlrtRSI              000000018008f110     c2_wwtp3.obj
 0003:0000f128       c2_r_emlrtRSI              000000018008f128     c2_wwtp3.obj
 0003:0000f140       c2_s_emlrtRSI              000000018008f140     c2_wwtp3.obj
 0003:0000f158       c2_t_emlrtRSI              000000018008f158     c2_wwtp3.obj
 0003:0000f170       c2_u_emlrtRSI              000000018008f170     c2_wwtp3.obj
 0003:0000f188       c2_v_emlrtRSI              000000018008f188     c2_wwtp3.obj
 0003:0000f1a0       c2_w_emlrtRSI              000000018008f1a0     c2_wwtp3.obj
 0003:0000f1b8       c2_x_emlrtRSI              000000018008f1b8     c2_wwtp3.obj
 0003:0000f1d0       c2_y_emlrtRSI              000000018008f1d0     c2_wwtp3.obj
 0003:0000f1e8       c2_ab_emlrtRSI             000000018008f1e8     c2_wwtp3.obj
 0003:0000f200       c2_bb_emlrtRSI             000000018008f200     c2_wwtp3.obj
 0003:0000f218       c2_cb_emlrtRSI             000000018008f218     c2_wwtp3.obj
 0003:0000f230       c2_db_emlrtRSI             000000018008f230     c2_wwtp3.obj
 0003:0000f248       c2_eb_emlrtRSI             000000018008f248     c2_wwtp3.obj
 0003:0000f260       c2_fb_emlrtRSI             000000018008f260     c2_wwtp3.obj
 0003:0000f278       c2_gb_emlrtRSI             000000018008f278     c2_wwtp3.obj
 0003:0000f290       c2_hb_emlrtRSI             000000018008f290     c2_wwtp3.obj
 0003:0000f2a8       c2_ib_emlrtRSI             000000018008f2a8     c2_wwtp3.obj
 0003:0000f2c0       c2_jb_emlrtRSI             000000018008f2c0     c2_wwtp3.obj
 0003:0000f2d8       c2_kb_emlrtRSI             000000018008f2d8     c2_wwtp3.obj
 0003:0000f2f0       c2_lb_emlrtRSI             000000018008f2f0     c2_wwtp3.obj
 0003:0000f308       c2_mb_emlrtRSI             000000018008f308     c2_wwtp3.obj
 0003:0000f320       c2_nb_emlrtRSI             000000018008f320     c2_wwtp3.obj
 0003:0000f338       c2_ob_emlrtRSI             000000018008f338     c2_wwtp3.obj
 0003:0000f350       c2_pb_emlrtRSI             000000018008f350     c2_wwtp3.obj
 0003:0000f368       c2_qb_emlrtRSI             000000018008f368     c2_wwtp3.obj
 0003:0000f380       c2_rb_emlrtRSI             000000018008f380     c2_wwtp3.obj
 0003:0000f398       c2_sb_emlrtRSI             000000018008f398     c2_wwtp3.obj
 0003:0000f3b0       c2_tb_emlrtRSI             000000018008f3b0     c2_wwtp3.obj
 0003:0000f3c8       c2_ub_emlrtRSI             000000018008f3c8     c2_wwtp3.obj
 0003:0000f3e0       c2_vb_emlrtRSI             000000018008f3e0     c2_wwtp3.obj
 0003:0000f3f8       c2_wb_emlrtRSI             000000018008f3f8     c2_wwtp3.obj
 0003:0000f410       c2_xb_emlrtRSI             000000018008f410     c2_wwtp3.obj
 0003:0000f428       c2_yb_emlrtRSI             000000018008f428     c2_wwtp3.obj
 0003:0000f440       c2_ac_emlrtRSI             000000018008f440     c2_wwtp3.obj
 0003:0000f458       c2_bc_emlrtRSI             000000018008f458     c2_wwtp3.obj
 0003:0000f470       c2_cc_emlrtRSI             000000018008f470     c2_wwtp3.obj
 0003:0000f488       c2_dc_emlrtRSI             000000018008f488     c2_wwtp3.obj
 0003:0000f4a0       c2_ec_emlrtRSI             000000018008f4a0     c2_wwtp3.obj
 0003:0000f4b8       c2_fc_emlrtRSI             000000018008f4b8     c2_wwtp3.obj
 0003:0000f4d0       c2_gc_emlrtRSI             000000018008f4d0     c2_wwtp3.obj
 0003:0000f4e8       c2_hc_emlrtRSI             000000018008f4e8     c2_wwtp3.obj
 0003:0000f500       c2_ic_emlrtRSI             000000018008f500     c2_wwtp3.obj
 0003:0000f518       c2_jc_emlrtRSI             000000018008f518     c2_wwtp3.obj
 0003:0000f530       c2_kc_emlrtRSI             000000018008f530     c2_wwtp3.obj
 0003:0000f548       c2_lc_emlrtRSI             000000018008f548     c2_wwtp3.obj
 0003:0000f560       c2_mc_emlrtRSI             000000018008f560     c2_wwtp3.obj
 0003:0000f578       c2_nc_emlrtRSI             000000018008f578     c2_wwtp3.obj
 0003:0000f590       c2_oc_emlrtRSI             000000018008f590     c2_wwtp3.obj
 0003:0000f5a8       c2_pc_emlrtRSI             000000018008f5a8     c2_wwtp3.obj
 0003:0000f5c0       c2_qc_emlrtRSI             000000018008f5c0     c2_wwtp3.obj
 0003:0000f5d8       c2_rc_emlrtRSI             000000018008f5d8     c2_wwtp3.obj
 0003:0000f5f0       c2_sc_emlrtRSI             000000018008f5f0     c2_wwtp3.obj
 0003:0000f608       c2_tc_emlrtRSI             000000018008f608     c2_wwtp3.obj
 0003:0000f620       c2_uc_emlrtRSI             000000018008f620     c2_wwtp3.obj
 0003:0000f638       c2_vc_emlrtRSI             000000018008f638     c2_wwtp3.obj
 0003:0000f650       c2_wc_emlrtRSI             000000018008f650     c2_wwtp3.obj
 0003:0000f668       c2_xc_emlrtRSI             000000018008f668     c2_wwtp3.obj
 0003:0000f680       c2_yc_emlrtRSI             000000018008f680     c2_wwtp3.obj
 0003:0000f698       c2_ad_emlrtRSI             000000018008f698     c2_wwtp3.obj
 0003:0000f6b0       c2_bd_emlrtRSI             000000018008f6b0     c2_wwtp3.obj
 0003:0000f6c8       c2_cd_emlrtRSI             000000018008f6c8     c2_wwtp3.obj
 0003:0000f6e0       c2_dd_emlrtRSI             000000018008f6e0     c2_wwtp3.obj
 0003:0000f6f8       c2_ed_emlrtRSI             000000018008f6f8     c2_wwtp3.obj
 0003:0000f710       c2_fd_emlrtRSI             000000018008f710     c2_wwtp3.obj
 0003:0000f728       c2_gd_emlrtRSI             000000018008f728     c2_wwtp3.obj
 0003:0000f740       c2_hd_emlrtRSI             000000018008f740     c2_wwtp3.obj
 0003:0000f758       c2_id_emlrtRSI             000000018008f758     c2_wwtp3.obj
 0003:0000f770       c2_jd_emlrtRSI             000000018008f770     c2_wwtp3.obj
 0003:0000f788       c2_kd_emlrtRSI             000000018008f788     c2_wwtp3.obj
 0003:0000f7a0       c2_ld_emlrtRSI             000000018008f7a0     c2_wwtp3.obj
 0003:0000f7b8       c2_md_emlrtRSI             000000018008f7b8     c2_wwtp3.obj
 0003:0000f7d0       c2_nd_emlrtRSI             000000018008f7d0     c2_wwtp3.obj
 0003:0000f7e8       c2_od_emlrtRSI             000000018008f7e8     c2_wwtp3.obj
 0003:0000f800       c2_pd_emlrtRSI             000000018008f800     c2_wwtp3.obj
 0003:0000f818       c2_qd_emlrtRSI             000000018008f818     c2_wwtp3.obj
 0003:0000f830       c2_rd_emlrtRSI             000000018008f830     c2_wwtp3.obj
 0003:0000f848       c2_sd_emlrtRSI             000000018008f848     c2_wwtp3.obj
 0003:0000f860       c2_td_emlrtRSI             000000018008f860     c2_wwtp3.obj
 0003:0000f878       c2_ud_emlrtRSI             000000018008f878     c2_wwtp3.obj
 0003:0000f890       c2_vd_emlrtRSI             000000018008f890     c2_wwtp3.obj
 0003:0000f8a8       c2_wd_emlrtRSI             000000018008f8a8     c2_wwtp3.obj
 0003:0000f8c0       c2_xd_emlrtRSI             000000018008f8c0     c2_wwtp3.obj
 0003:0000f8d8       c2_yd_emlrtRSI             000000018008f8d8     c2_wwtp3.obj
 0003:0000f8f0       c2_ae_emlrtRSI             000000018008f8f0     c2_wwtp3.obj
 0003:0000f908       c2_be_emlrtRSI             000000018008f908     c2_wwtp3.obj
 0003:0000f920       c2_ce_emlrtRSI             000000018008f920     c2_wwtp3.obj
 0003:0000f938       c2_de_emlrtRSI             000000018008f938     c2_wwtp3.obj
 0003:0000f950       c2_ee_emlrtRSI             000000018008f950     c2_wwtp3.obj
 0003:0000f968       c2_fe_emlrtRSI             000000018008f968     c2_wwtp3.obj
 0003:0000f980       c2_ge_emlrtRSI             000000018008f980     c2_wwtp3.obj
 0003:0000f998       c2_he_emlrtRSI             000000018008f998     c2_wwtp3.obj
 0003:0000f9b0       c2_ie_emlrtRSI             000000018008f9b0     c2_wwtp3.obj
 0003:0000f9c8       c2_je_emlrtRSI             000000018008f9c8     c2_wwtp3.obj
 0003:0000f9e0       c2_ke_emlrtRSI             000000018008f9e0     c2_wwtp3.obj
 0003:0000f9f8       c2_le_emlrtRSI             000000018008f9f8     c2_wwtp3.obj
 0003:0000fa10       c2_me_emlrtRSI             000000018008fa10     c2_wwtp3.obj
 0003:0000fa28       c2_ne_emlrtRSI             000000018008fa28     c2_wwtp3.obj
 0003:0000fa40       c2_oe_emlrtRSI             000000018008fa40     c2_wwtp3.obj
 0003:0000fa58       c2_pe_emlrtRSI             000000018008fa58     c2_wwtp3.obj
 0003:0000fa70       c2_qe_emlrtRSI             000000018008fa70     c2_wwtp3.obj
 0003:0000fa88       c2_re_emlrtRSI             000000018008fa88     c2_wwtp3.obj
 0003:0000faa0       c2_se_emlrtRSI             000000018008faa0     c2_wwtp3.obj
 0003:0000fab8       c2_te_emlrtRSI             000000018008fab8     c2_wwtp3.obj
 0003:0000fad0       c2_ue_emlrtRSI             000000018008fad0     c2_wwtp3.obj
 0003:0000fae8       c2_ve_emlrtRSI             000000018008fae8     c2_wwtp3.obj
 0003:0000fb00       c2_we_emlrtRSI             000000018008fb00     c2_wwtp3.obj
 0003:0000fb18       c2_xe_emlrtRSI             000000018008fb18     c2_wwtp3.obj
 0003:0000fb30       c2_ye_emlrtRSI             000000018008fb30     c2_wwtp3.obj
 0003:0000fb48       c2_af_emlrtRSI             000000018008fb48     c2_wwtp3.obj
 0003:0000fb60       c2_bf_emlrtRSI             000000018008fb60     c2_wwtp3.obj
 0003:0000fb78       c2_cf_emlrtRSI             000000018008fb78     c2_wwtp3.obj
 0003:0000fb90       c2_df_emlrtRSI             000000018008fb90     c2_wwtp3.obj
 0003:0000fba8       c2_ef_emlrtRSI             000000018008fba8     c2_wwtp3.obj
 0003:0000fbc0       c2_ff_emlrtRSI             000000018008fbc0     c2_wwtp3.obj
 0003:0000fbd8       c2_gf_emlrtRSI             000000018008fbd8     c2_wwtp3.obj
 0003:0000fbf0       c2_hf_emlrtRSI             000000018008fbf0     c2_wwtp3.obj
 0003:0000fc08       c2_if_emlrtRSI             000000018008fc08     c2_wwtp3.obj
 0003:0000fc20       c2_jf_emlrtRSI             000000018008fc20     c2_wwtp3.obj
 0003:0000fc38       c2_kf_emlrtRSI             000000018008fc38     c2_wwtp3.obj
 0003:0000fc50       c2_lf_emlrtRSI             000000018008fc50     c2_wwtp3.obj
 0003:0000fc68       c2_mf_emlrtRSI             000000018008fc68     c2_wwtp3.obj
 0003:0000fc80       c2_nf_emlrtRSI             000000018008fc80     c2_wwtp3.obj
 0003:0000fc98       c2_of_emlrtRSI             000000018008fc98     c2_wwtp3.obj
 0003:0000fcb0       c2_pf_emlrtRSI             000000018008fcb0     c2_wwtp3.obj
 0003:0000fcc8       c2_qf_emlrtRSI             000000018008fcc8     c2_wwtp3.obj
 0003:0000fce0       c2_rf_emlrtRSI             000000018008fce0     c2_wwtp3.obj
 0003:0000fcf8       c2_sf_emlrtRSI             000000018008fcf8     c2_wwtp3.obj
 0003:0000fd10       c2_tf_emlrtRSI             000000018008fd10     c2_wwtp3.obj
 0003:0000fd28       c2_uf_emlrtRSI             000000018008fd28     c2_wwtp3.obj
 0003:0000fd40       c2_vf_emlrtRSI             000000018008fd40     c2_wwtp3.obj
 0003:0000fd58       c2_wf_emlrtRSI             000000018008fd58     c2_wwtp3.obj
 0003:0000fd70       c2_xf_emlrtRSI             000000018008fd70     c2_wwtp3.obj
 0003:0000fd88       c2_yf_emlrtRSI             000000018008fd88     c2_wwtp3.obj
 0003:0000fda0       c2_ag_emlrtRSI             000000018008fda0     c2_wwtp3.obj
 0003:0000fdb8       c2_bg_emlrtRSI             000000018008fdb8     c2_wwtp3.obj
 0003:0000fdd0       c2_cg_emlrtRSI             000000018008fdd0     c2_wwtp3.obj
 0003:0000fde8       c2_dg_emlrtRSI             000000018008fde8     c2_wwtp3.obj
 0003:0000fe00       c2_eg_emlrtRSI             000000018008fe00     c2_wwtp3.obj
 0003:0000fe18       c2_fg_emlrtRSI             000000018008fe18     c2_wwtp3.obj
 0003:0000fe30       c2_gg_emlrtRSI             000000018008fe30     c2_wwtp3.obj
 0003:0000fe48       c2_hg_emlrtRSI             000000018008fe48     c2_wwtp3.obj
 0003:0000fe60       c2_ig_emlrtRSI             000000018008fe60     c2_wwtp3.obj
 0003:0000fe78       c2_jg_emlrtRSI             000000018008fe78     c2_wwtp3.obj
 0003:0000fe90       c2_kg_emlrtRSI             000000018008fe90     c2_wwtp3.obj
 0003:0000fea8       c2_lg_emlrtRSI             000000018008fea8     c2_wwtp3.obj
 0003:0000fec0       c2_mg_emlrtRSI             000000018008fec0     c2_wwtp3.obj
 0003:0000fed8       c2_ng_emlrtRSI             000000018008fed8     c2_wwtp3.obj
 0003:0000fef0       c2_og_emlrtRSI             000000018008fef0     c2_wwtp3.obj
 0003:0000ff08       c2_pg_emlrtRSI             000000018008ff08     c2_wwtp3.obj
 0003:0000ff20       c2_qg_emlrtRSI             000000018008ff20     c2_wwtp3.obj
 0003:0000ff38       c2_rg_emlrtRSI             000000018008ff38     c2_wwtp3.obj
 0003:0000ff50       c2_sg_emlrtRSI             000000018008ff50     c2_wwtp3.obj
 0003:0000ff68       c2_tg_emlrtRSI             000000018008ff68     c2_wwtp3.obj
 0003:0000ff80       c2_ug_emlrtRSI             000000018008ff80     c2_wwtp3.obj
 0003:0000ff98       c2_vg_emlrtRSI             000000018008ff98     c2_wwtp3.obj
 0003:0000ffb0       c2_wg_emlrtRSI             000000018008ffb0     c2_wwtp3.obj
 0003:0000ffc8       c2_xg_emlrtRSI             000000018008ffc8     c2_wwtp3.obj
 0003:0000ffe0       c2_yg_emlrtRSI             000000018008ffe0     c2_wwtp3.obj
 0003:0000fff8       c2_ah_emlrtRSI             000000018008fff8     c2_wwtp3.obj
 0003:00010010       c2_bh_emlrtRSI             0000000180090010     c2_wwtp3.obj
 0003:00010028       c2_ch_emlrtRSI             0000000180090028     c2_wwtp3.obj
 0003:00010040       c2_dh_emlrtRSI             0000000180090040     c2_wwtp3.obj
 0003:00010058       c2_eh_emlrtRSI             0000000180090058     c2_wwtp3.obj
 0003:00010070       c2_fh_emlrtRSI             0000000180090070     c2_wwtp3.obj
 0003:00010088       c2_gh_emlrtRSI             0000000180090088     c2_wwtp3.obj
 0003:000100a0       c2_hh_emlrtRSI             00000001800900a0     c2_wwtp3.obj
 0003:000100b8       c2_ih_emlrtRSI             00000001800900b8     c2_wwtp3.obj
 0003:000100d0       c2_jh_emlrtRSI             00000001800900d0     c2_wwtp3.obj
 0003:000100e8       c2_kh_emlrtRSI             00000001800900e8     c2_wwtp3.obj
 0003:00010100       c2_lh_emlrtRSI             0000000180090100     c2_wwtp3.obj
 0003:00010118       c2_mh_emlrtRSI             0000000180090118     c2_wwtp3.obj
 0003:00010130       c2_nh_emlrtRSI             0000000180090130     c2_wwtp3.obj
 0003:00010148       c2_oh_emlrtRSI             0000000180090148     c2_wwtp3.obj
 0003:00010160       c2_ph_emlrtRSI             0000000180090160     c2_wwtp3.obj
 0003:00010178       c2_qh_emlrtRSI             0000000180090178     c2_wwtp3.obj
 0003:00010190       c2_rh_emlrtRSI             0000000180090190     c2_wwtp3.obj
 0003:000101a8       c2_sh_emlrtRSI             00000001800901a8     c2_wwtp3.obj
 0003:000101c0       c2_th_emlrtRSI             00000001800901c0     c2_wwtp3.obj
 0003:000101d8       c2_uh_emlrtRSI             00000001800901d8     c2_wwtp3.obj
 0003:000101f0       c2_vh_emlrtRSI             00000001800901f0     c2_wwtp3.obj
 0003:00010208       c2_wh_emlrtRSI             0000000180090208     c2_wwtp3.obj
 0003:00010220       c2_xh_emlrtRSI             0000000180090220     c2_wwtp3.obj
 0003:00010238       c2_yh_emlrtRSI             0000000180090238     c2_wwtp3.obj
 0003:00010250       c2_ai_emlrtRSI             0000000180090250     c2_wwtp3.obj
 0003:00010268       c2_bi_emlrtRSI             0000000180090268     c2_wwtp3.obj
 0003:00010280       c2_ci_emlrtRSI             0000000180090280     c2_wwtp3.obj
 0003:00010298       c2_di_emlrtRSI             0000000180090298     c2_wwtp3.obj
 0003:000102b0       c2_ei_emlrtRSI             00000001800902b0     c2_wwtp3.obj
 0003:000102c8       c2_fi_emlrtRSI             00000001800902c8     c2_wwtp3.obj
 0003:000102e0       c2_gi_emlrtRSI             00000001800902e0     c2_wwtp3.obj
 0003:000102f8       c2_hi_emlrtRSI             00000001800902f8     c2_wwtp3.obj
 0003:00010310       c2_ii_emlrtRSI             0000000180090310     c2_wwtp3.obj
 0003:00010328       c2_ji_emlrtRSI             0000000180090328     c2_wwtp3.obj
 0003:00010340       c2_ki_emlrtRSI             0000000180090340     c2_wwtp3.obj
 0003:00010358       c2_li_emlrtRSI             0000000180090358     c2_wwtp3.obj
 0003:00010370       c2_mi_emlrtRSI             0000000180090370     c2_wwtp3.obj
 0003:00010388       c2_ni_emlrtRSI             0000000180090388     c2_wwtp3.obj
 0003:000103a0       c2_oi_emlrtRSI             00000001800903a0     c2_wwtp3.obj
 0003:000103b8       c2_pi_emlrtRSI             00000001800903b8     c2_wwtp3.obj
 0003:000103d0       c2_qi_emlrtRSI             00000001800903d0     c2_wwtp3.obj
 0003:000103e8       c2_ri_emlrtRSI             00000001800903e8     c2_wwtp3.obj
 0003:00010400       c2_ej_emlrtRSI             0000000180090400     c2_wwtp3.obj
 0003:00010418       c2_fj_emlrtRSI             0000000180090418     c2_wwtp3.obj
 0003:00010430       c2_gj_emlrtRSI             0000000180090430     c2_wwtp3.obj
 0003:00010448       c2_hj_emlrtRSI             0000000180090448     c2_wwtp3.obj
 0003:00010460       c2_ij_emlrtRSI             0000000180090460     c2_wwtp3.obj
 0003:00010478       c2_jj_emlrtRSI             0000000180090478     c2_wwtp3.obj
 0003:00010490       c2_kj_emlrtRSI             0000000180090490     c2_wwtp3.obj
 0003:000104a8       c2_lj_emlrtRSI             00000001800904a8     c2_wwtp3.obj
 0003:000104c0       c2_mj_emlrtRSI             00000001800904c0     c2_wwtp3.obj
 0003:000104d8       c2_nj_emlrtRSI             00000001800904d8     c2_wwtp3.obj
 0003:000104f0       c2_oj_emlrtRSI             00000001800904f0     c2_wwtp3.obj
 0003:00010508       c2_pj_emlrtRSI             0000000180090508     c2_wwtp3.obj
 0003:00010520       c2_qj_emlrtRSI             0000000180090520     c2_wwtp3.obj
 0003:00010538       c2_rj_emlrtRSI             0000000180090538     c2_wwtp3.obj
 0003:00010550       c2_sj_emlrtRSI             0000000180090550     c2_wwtp3.obj
 0003:00010568       c2_tj_emlrtRSI             0000000180090568     c2_wwtp3.obj
 0003:00010580       c2_uj_emlrtRSI             0000000180090580     c2_wwtp3.obj
 0003:00010598       c2_vj_emlrtRSI             0000000180090598     c2_wwtp3.obj
 0003:000105b0       c2_wj_emlrtRSI             00000001800905b0     c2_wwtp3.obj
 0003:000105c8       c2_xj_emlrtRSI             00000001800905c8     c2_wwtp3.obj
 0003:000105e0       c2_yj_emlrtRSI             00000001800905e0     c2_wwtp3.obj
 0003:000105f8       c2_ak_emlrtRSI             00000001800905f8     c2_wwtp3.obj
 0003:00010610       c2_bk_emlrtRSI             0000000180090610     c2_wwtp3.obj
 0003:00010628       c2_ck_emlrtRSI             0000000180090628     c2_wwtp3.obj
 0003:00010640       c2_dk_emlrtRSI             0000000180090640     c2_wwtp3.obj
 0003:00010658       c2_ek_emlrtRSI             0000000180090658     c2_wwtp3.obj
 0003:00010670       c2_fk_emlrtRSI             0000000180090670     c2_wwtp3.obj
 0003:00010688       c2_gk_emlrtRSI             0000000180090688     c2_wwtp3.obj
 0003:000106a0       c2_hk_emlrtRSI             00000001800906a0     c2_wwtp3.obj
 0003:000106b8       c2_ik_emlrtRSI             00000001800906b8     c2_wwtp3.obj
 0003:000106d0       c2_jk_emlrtRSI             00000001800906d0     c2_wwtp3.obj
 0003:000106e8       c2_kk_emlrtRSI             00000001800906e8     c2_wwtp3.obj
 0003:00010700       c2_lk_emlrtRSI             0000000180090700     c2_wwtp3.obj
 0003:00010718       c2_mk_emlrtRSI             0000000180090718     c2_wwtp3.obj
 0003:00010730       c2_nk_emlrtRSI             0000000180090730     c2_wwtp3.obj
 0003:00010748       c2_ok_emlrtRSI             0000000180090748     c2_wwtp3.obj
 0003:00010760       c2_pk_emlrtRSI             0000000180090760     c2_wwtp3.obj
 0003:00010778       c2_qk_emlrtRSI             0000000180090778     c2_wwtp3.obj
 0003:00010790       c2_rk_emlrtRSI             0000000180090790     c2_wwtp3.obj
 0003:000107a8       c2_sk_emlrtRSI             00000001800907a8     c2_wwtp3.obj
 0003:000107c0       c2_tk_emlrtRSI             00000001800907c0     c2_wwtp3.obj
 0003:000107d8       c2_uk_emlrtRSI             00000001800907d8     c2_wwtp3.obj
 0003:000107f0       c2_vk_emlrtRSI             00000001800907f0     c2_wwtp3.obj
 0003:00010808       c2_wk_emlrtRSI             0000000180090808     c2_wwtp3.obj
 0003:00010820       c2_xk_emlrtRSI             0000000180090820     c2_wwtp3.obj
 0003:00010838       c2_yk_emlrtRSI             0000000180090838     c2_wwtp3.obj
 0003:00010850       c2_al_emlrtRSI             0000000180090850     c2_wwtp3.obj
 0003:00010868       c2_bl_emlrtRSI             0000000180090868     c2_wwtp3.obj
 0003:00010880       c2_cl_emlrtRSI             0000000180090880     c2_wwtp3.obj
 0003:00010898       c2_dl_emlrtRSI             0000000180090898     c2_wwtp3.obj
 0003:000108b0       c2_el_emlrtRSI             00000001800908b0     c2_wwtp3.obj
 0003:000108c8       c2_fl_emlrtRSI             00000001800908c8     c2_wwtp3.obj
 0003:000108e0       c2_emlrtRTEI               00000001800908e0     c2_wwtp3.obj
 0003:000108f8       c2_b_emlrtRTEI             00000001800908f8     c2_wwtp3.obj
 0003:00010910       c2_c_emlrtRTEI             0000000180090910     c2_wwtp3.obj
 0003:00010928       c2_d_emlrtRTEI             0000000180090928     c2_wwtp3.obj
 0003:00010940       c2_e_emlrtRTEI             0000000180090940     c2_wwtp3.obj
 0003:00010958       c2_f_emlrtRTEI             0000000180090958     c2_wwtp3.obj
 0003:00010970       c2_g_emlrtRTEI             0000000180090970     c2_wwtp3.obj
 0003:00010988       c2_h_emlrtRTEI             0000000180090988     c2_wwtp3.obj
 0003:000109a0       c2_i_emlrtRTEI             00000001800909a0     c2_wwtp3.obj
 0003:000109b8       c2_k_emlrtRTEI             00000001800909b8     c2_wwtp3.obj
 0003:000109d0       c2_l_emlrtRTEI             00000001800909d0     c2_wwtp3.obj
 0003:000109e8       c2_m_emlrtRTEI             00000001800909e8     c2_wwtp3.obj
 0003:00010a00       c2_n_emlrtRTEI             0000000180090a00     c2_wwtp3.obj
 0003:00010a18       c2_o_emlrtRTEI             0000000180090a18     c2_wwtp3.obj
 0003:00010a30       c2_q_emlrtRTEI             0000000180090a30     c2_wwtp3.obj
 0003:00010a48       c2_r_emlrtRTEI             0000000180090a48     c2_wwtp3.obj
 0003:00010a60       c2_s_emlrtRTEI             0000000180090a60     c2_wwtp3.obj
 0003:00010a78       c2_t_emlrtRTEI             0000000180090a78     c2_wwtp3.obj
 0003:00010a90       c2_u_emlrtRTEI             0000000180090a90     c2_wwtp3.obj
 0003:00010aa8       c2_db_emlrtRTEI            0000000180090aa8     c2_wwtp3.obj
 0003:00010ac0       c2_eb_emlrtRTEI            0000000180090ac0     c2_wwtp3.obj
 0003:00010ad8       c2_fb_emlrtRTEI            0000000180090ad8     c2_wwtp3.obj
 0003:00010af0       c2_kb_emlrtRTEI            0000000180090af0     c2_wwtp3.obj
 0003:00010b08       c2_ob_emlrtRTEI            0000000180090b08     c2_wwtp3.obj
 0003:00010b20       c2_pb_emlrtRTEI            0000000180090b20     c2_wwtp3.obj
 0003:00010b38       c2_qb_emlrtRTEI            0000000180090b38     c2_wwtp3.obj
 0003:00010b50       c2_rb_emlrtRTEI            0000000180090b50     c2_wwtp3.obj
 0003:00010b68       c2_sb_emlrtRTEI            0000000180090b68     c2_wwtp3.obj
 0003:00010b80       c2_xb_emlrtRTEI            0000000180090b80     c2_wwtp3.obj
 0003:00010b98       c2_bc_emlrtRTEI            0000000180090b98     c2_wwtp3.obj
 0003:00010bb0       c2_cc_emlrtRTEI            0000000180090bb0     c2_wwtp3.obj
 0003:00010bc8       c2_dc_emlrtRTEI            0000000180090bc8     c2_wwtp3.obj
 0003:00010be0       c2_ec_emlrtRTEI            0000000180090be0     c2_wwtp3.obj
 0003:00010bf8       c2_fc_emlrtRTEI            0000000180090bf8     c2_wwtp3.obj
 0003:00010c10       c2_gc_emlrtRTEI            0000000180090c10     c2_wwtp3.obj
 0003:00010c28       c2_hc_emlrtRTEI            0000000180090c28     c2_wwtp3.obj
 0003:00010c40       c2_ic_emlrtRTEI            0000000180090c40     c2_wwtp3.obj
 0003:00010c58       c2_jc_emlrtRTEI            0000000180090c58     c2_wwtp3.obj
 0003:00010c70       c2_kc_emlrtRTEI            0000000180090c70     c2_wwtp3.obj
 0003:00010c88       c2_lc_emlrtRTEI            0000000180090c88     c2_wwtp3.obj
 0003:00010ca0       c2_mc_emlrtRTEI            0000000180090ca0     c2_wwtp3.obj
 0003:00010cb8       c2_nc_emlrtRTEI            0000000180090cb8     c2_wwtp3.obj
 0003:00010cd0       c2_pc_emlrtRTEI            0000000180090cd0     c2_wwtp3.obj
 0003:00010ce8       c2_qc_emlrtRTEI            0000000180090ce8     c2_wwtp3.obj
 0003:00010d00       c2_rc_emlrtRTEI            0000000180090d00     c2_wwtp3.obj
 0003:00010d18       c2_sc_emlrtRTEI            0000000180090d18     c2_wwtp3.obj
 0003:00010d30       c2_tc_emlrtRTEI            0000000180090d30     c2_wwtp3.obj
 0003:00010d48       c2_uc_emlrtRTEI            0000000180090d48     c2_wwtp3.obj
 0003:00010d60       c2_vc_emlrtRTEI            0000000180090d60     c2_wwtp3.obj
 0003:00010d78       c2_wc_emlrtRTEI            0000000180090d78     c2_wwtp3.obj
 0003:00010d90       c2_xc_emlrtRTEI            0000000180090d90     c2_wwtp3.obj
 0003:00010da8       c2_yc_emlrtRTEI            0000000180090da8     c2_wwtp3.obj
 0003:00010dc0       c2_ad_emlrtRTEI            0000000180090dc0     c2_wwtp3.obj
 0003:00010dd8       c2_bd_emlrtRTEI            0000000180090dd8     c2_wwtp3.obj
 0003:00010df0       c2_cd_emlrtRTEI            0000000180090df0     c2_wwtp3.obj
 0003:00010e08       c2_dd_emlrtRTEI            0000000180090e08     c2_wwtp3.obj
 0003:00010e20       c2_ed_emlrtRTEI            0000000180090e20     c2_wwtp3.obj
 0003:00010e38       c2_fd_emlrtRTEI            0000000180090e38     c2_wwtp3.obj
 0003:00010e50       c2_gd_emlrtRTEI            0000000180090e50     c2_wwtp3.obj
 0003:00010e68       c2_hd_emlrtRTEI            0000000180090e68     c2_wwtp3.obj
 0003:00010e80       c2_ld_emlrtRTEI            0000000180090e80     c2_wwtp3.obj
 0003:00010e98       c2_emlrtBCI                0000000180090e98     c2_wwtp3.obj
 0003:00010ec8       c2_b_emlrtBCI              0000000180090ec8     c2_wwtp3.obj
 0003:00010ef8       c2_c_emlrtBCI              0000000180090ef8     c2_wwtp3.obj
 0003:00010f28       c2_d_emlrtBCI              0000000180090f28     c2_wwtp3.obj
 0003:00010f58       c2_md_emlrtRTEI            0000000180090f58     c2_wwtp3.obj
 0003:00010f70       c2_emlrtDCI                0000000180090f70     c2_wwtp3.obj
 0003:00010f90       c2_e_emlrtBCI              0000000180090f90     c2_wwtp3.obj
 0003:00010fc0       c2_b_emlrtDCI              0000000180090fc0     c2_wwtp3.obj
 0003:00010fe0       c2_c_emlrtDCI              0000000180090fe0     c2_wwtp3.obj
 0003:00011000       c2_d_emlrtDCI              0000000180091000     c2_wwtp3.obj
 0003:00011020       c2_e_emlrtDCI              0000000180091020     c2_wwtp3.obj
 0003:00011040       c2_f_emlrtBCI              0000000180091040     c2_wwtp3.obj
 0003:00011070       c2_g_emlrtBCI              0000000180091070     c2_wwtp3.obj
 0003:000110a0       c2_h_emlrtBCI              00000001800910a0     c2_wwtp3.obj
 0003:000110d0       c2_i_emlrtBCI              00000001800910d0     c2_wwtp3.obj
 0003:00011100       c2_f_emlrtDCI              0000000180091100     c2_wwtp3.obj
 0003:00011120       c2_j_emlrtBCI              0000000180091120     c2_wwtp3.obj
 0003:00011150       c2_k_emlrtBCI              0000000180091150     c2_wwtp3.obj
 0003:00011180       c2_l_emlrtBCI              0000000180091180     c2_wwtp3.obj
 0003:000111b0       c2_m_emlrtBCI              00000001800911b0     c2_wwtp3.obj
 0003:000111e0       c2_g_emlrtDCI              00000001800911e0     c2_wwtp3.obj
 0003:00011200       c2_n_emlrtBCI              0000000180091200     c2_wwtp3.obj
 0003:00011230       c2_h_emlrtDCI              0000000180091230     c2_wwtp3.obj
 0003:00011250       c2_o_emlrtBCI              0000000180091250     c2_wwtp3.obj
 0003:00011280       c2_i_emlrtDCI              0000000180091280     c2_wwtp3.obj
 0003:000112a0       c2_p_emlrtBCI              00000001800912a0     c2_wwtp3.obj
 0003:000112d0       c2_j_emlrtDCI              00000001800912d0     c2_wwtp3.obj
 0003:000112f0       c2_q_emlrtBCI              00000001800912f0     c2_wwtp3.obj
 0003:00011320       c2_r_emlrtBCI              0000000180091320     c2_wwtp3.obj
 0003:00011350       c2_k_emlrtDCI              0000000180091350     c2_wwtp3.obj
 0003:00011370       c2_s_emlrtBCI              0000000180091370     c2_wwtp3.obj
 0003:000113a0       c2_l_emlrtDCI              00000001800913a0     c2_wwtp3.obj
 0003:000113c0       c2_t_emlrtBCI              00000001800913c0     c2_wwtp3.obj
 0003:000113f0       c2_m_emlrtDCI              00000001800913f0     c2_wwtp3.obj
 0003:00011410       c2_u_emlrtBCI              0000000180091410     c2_wwtp3.obj
 0003:00011440       c2_n_emlrtDCI              0000000180091440     c2_wwtp3.obj
 0003:00011460       c2_v_emlrtBCI              0000000180091460     c2_wwtp3.obj
 0003:00011490       c2_nd_emlrtRTEI            0000000180091490     c2_wwtp3.obj
 0003:000114a8       c2_od_emlrtRTEI            00000001800914a8     c2_wwtp3.obj
 0003:000114c0       c2_w_emlrtBCI              00000001800914c0     c2_wwtp3.obj
 0003:000114f0       c2_o_emlrtDCI              00000001800914f0     c2_wwtp3.obj
 0003:00011510       c2_x_emlrtBCI              0000000180091510     c2_wwtp3.obj
 0003:00011540       c2_y_emlrtBCI              0000000180091540     c2_wwtp3.obj
 0003:00011570       c2_p_emlrtDCI              0000000180091570     c2_wwtp3.obj
 0003:00011590       c2_q_emlrtDCI              0000000180091590     c2_wwtp3.obj
 0003:000115b0       c2_ab_emlrtBCI             00000001800915b0     c2_wwtp3.obj
 0003:000115e0       c2_bb_emlrtBCI             00000001800915e0     c2_wwtp3.obj
 0003:00011610       c2_r_emlrtDCI              0000000180091610     c2_wwtp3.obj
 0003:00011630       c2_cb_emlrtBCI             0000000180091630     c2_wwtp3.obj
 0003:00011660       c2_db_emlrtBCI             0000000180091660     c2_wwtp3.obj
 0003:00011690       c2_eb_emlrtBCI             0000000180091690     c2_wwtp3.obj
 0003:000116c0       c2_fb_emlrtBCI             00000001800916c0     c2_wwtp3.obj
 0003:000116f0       c2_gb_emlrtBCI             00000001800916f0     c2_wwtp3.obj
 0003:00011720       c2_s_emlrtDCI              0000000180091720     c2_wwtp3.obj
 0003:00011740       c2_hb_emlrtBCI             0000000180091740     c2_wwtp3.obj
 0003:00011770       c2_gl_emlrtRSI             0000000180091770     c2_wwtp3.obj
 0003:00011788       c2_hl_emlrtRSI             0000000180091788     c2_wwtp3.obj
 0003:000117a0       c2_il_emlrtRSI             00000001800917a0     c2_wwtp3.obj
 0003:000117b8       c2_jl_emlrtRSI             00000001800917b8     c2_wwtp3.obj
 0003:000117d0       c2_kl_emlrtRSI             00000001800917d0     c2_wwtp3.obj
 0003:000117e8       c2_ll_emlrtRSI             00000001800917e8     c2_wwtp3.obj
 0003:00011800       c2_ml_emlrtRSI             0000000180091800     c2_wwtp3.obj
 0003:00011818       c2_nl_emlrtRSI             0000000180091818     c2_wwtp3.obj
 0003:00011830       c2_ol_emlrtRSI             0000000180091830     c2_wwtp3.obj
 0003:00011848       c2_pl_emlrtRSI             0000000180091848     c2_wwtp3.obj
 0003:00011860       c2_ql_emlrtRSI             0000000180091860     c2_wwtp3.obj
 0003:00011878       c2_cv                      0000000180091878     c2_wwtp3.obj
 0003:00011884       ?c2_b_cv2@?1??sf_gateway_c2_wwtp3@@9@9 0000000180091884     c2_wwtp3.obj
 0003:00011888       c2_cv1                     0000000180091888     c2_wwtp3.obj
 0003:00011898       c2_cv2                     0000000180091898     c2_wwtp3.obj
 0003:000118c8       c2_cv3                     00000001800918c8     c2_wwtp3.obj
 0003:000118ec       $SG29737                   00000001800918ec     c2_wwtp3.obj
 0003:000118f0       c2_cv4                     00000001800918f0     c2_wwtp3.obj
 0003:00011918       c2_cv5                     0000000180091918     c2_wwtp3.obj
 0003:00011948       c2_cv6                     0000000180091948     c2_wwtp3.obj
 0003:00011974       $SG29738                   0000000180091974     c2_wwtp3.obj
 0003:00011978       c2_cv7                     0000000180091978     c2_wwtp3.obj
 0003:000119a0       c2_cv8                     00000001800919a0     c2_wwtp3.obj
 0003:000119c0       c2_cv9                     00000001800919c0     c2_wwtp3.obj
 0003:000119d0       c2_cv10                    00000001800919d0     c2_wwtp3.obj
 0003:00011a50       c2_cv11                    0000000180091a50     c2_wwtp3.obj
 0003:00011a70       c2_cv12                    0000000180091a70     c2_wwtp3.obj
 0003:00011a7c       $SG29739                   0000000180091a7c     c2_wwtp3.obj
 0003:00011a80       c2_cv13                    0000000180091a80     c2_wwtp3.obj
 0003:00011aa0       c2_cv14                    0000000180091aa0     c2_wwtp3.obj
 0003:00011ac4       $SG29740                   0000000180091ac4     c2_wwtp3.obj
 0003:00011ac8       c2_cv15                    0000000180091ac8     c2_wwtp3.obj
 0003:00011af8       c2_cv16                    0000000180091af8     c2_wwtp3.obj
 0003:00011b24       $SG29743                   0000000180091b24     c2_wwtp3.obj
 0003:00011b2c       $SG29774                   0000000180091b2c     c2_wwtp3.obj
 0003:00011b30       c2_cv17                    0000000180091b30     c2_wwtp3.obj
 0003:00011b4c       $SG29775                   0000000180091b4c     c2_wwtp3.obj
 0003:00011b50       $SG29291                   0000000180091b50     c2_wwtp3.obj
 0003:00011b5c       $SG29776                   0000000180091b5c     c2_wwtp3.obj
 0003:00011b60       $SG29292                   0000000180091b60     c2_wwtp3.obj
 0003:00011b88       $SG29316                   0000000180091b88     c2_wwtp3.obj
 0003:00011b98       ?c2_b_cv1@?1??sf_gateway_c2_wwtp3@@9@9 0000000180091b98     c2_wwtp3.obj
 0003:00011bc0       ?c2_b_cv3@?1??sf_gateway_c2_wwtp3@@9@9 0000000180091bc0     c2_wwtp3.obj
 0003:00011be4       $SG29777                   0000000180091be4     c2_wwtp3.obj
 0003:00011be8       ?c2_b_cv@?1??sf_gateway_c2_wwtp3@@9@9 0000000180091be8     c2_wwtp3.obj
 0003:00011c04       $SG29798                   0000000180091c04     c2_wwtp3.obj
 0003:00011c08       $SG29741                   0000000180091c08     c2_wwtp3.obj
 0003:00011c10       $SG29742                   0000000180091c10     c2_wwtp3.obj
 0003:00011c1c       $SG29799                   0000000180091c1c     c2_wwtp3.obj
 0003:00011c20       $SG29778                   0000000180091c20     c2_wwtp3.obj
 0003:00011c28       $SG29779                   0000000180091c28     c2_wwtp3.obj
 0003:00011c34       $SG29780                   0000000180091c34     c2_wwtp3.obj
 0003:00011c3c       $SG29793                   0000000180091c3c     c2_wwtp3.obj
 0003:00011c44       $SG29800                   0000000180091c44     c2_wwtp3.obj
 0003:00011c48       $SG29801                   0000000180091c48     c2_wwtp3.obj
 0003:00011c50       $SG29802                   0000000180091c50     c2_wwtp3.obj
 0003:00011c5c       $SG29803                   0000000180091c5c     c2_wwtp3.obj
 0003:00011c64       $SG29804                   0000000180091c64     c2_wwtp3.obj
 0003:00011c6c       $SG29805                   0000000180091c6c     c2_wwtp3.obj
 0003:00011c74       $SG29806                   0000000180091c74     c2_wwtp3.obj
 0003:00011c7c       $SG29807                   0000000180091c7c     c2_wwtp3.obj
 0003:00011c84       $SG29848                   0000000180091c84     c2_wwtp3.obj
 0003:00011c88       $SG29808                   0000000180091c88     c2_wwtp3.obj
 0003:00011ca8       $SG29849                   0000000180091ca8     c2_wwtp3.obj
 0003:00011cac       $SG29850                   0000000180091cac     c2_wwtp3.obj
 0003:00011cb0       $SG29851                   0000000180091cb0     c2_wwtp3.obj
 0003:00011cb4       $SG29858                   0000000180091cb4     c2_wwtp3.obj
 0003:00011cb8       $SG29859                   0000000180091cb8     c2_wwtp3.obj
 0003:00011cbc       $SG29860                   0000000180091cbc     c2_wwtp3.obj
 0003:00011cc0       $SG29861                   0000000180091cc0     c2_wwtp3.obj
 0003:00011cd4       ?c2_b_val@?1??c2_modbus@@9@9 0000000180091cd4     c2_wwtp3.obj
 0003:00011cd8       ?c2_b_cv11@?1??c2_modbus@@9@9 0000000180091cd8     c2_wwtp3.obj
 0003:00011d0c       ?c2_b_cv4@?1??c2_modbus@@9@9 0000000180091d0c     c2_wwtp3.obj
 0003:00011d10       ?c2_b_cv2@?1??c2_modbus@@9@9 0000000180091d10     c2_wwtp3.obj
 0003:00011d38       ?c2_b_cv6@?1??c2_modbus@@9@9 0000000180091d38     c2_wwtp3.obj
 0003:00011d60       ?c2_b_cv10@?1??c2_modbus@@9@9 0000000180091d60     c2_wwtp3.obj
 0003:00011d84       ?c2_b_cv8@?1??c2_modbus@@9@9 0000000180091d84     c2_wwtp3.obj
 0003:00011d88       ?c2_b_cv1@?1??c2_modbus@@9@9 0000000180091d88     c2_wwtp3.obj
 0003:00011da8       ?c2_b_cv13@?1??c2_modbus@@9@9 0000000180091da8     c2_wwtp3.obj
 0003:00011dc8       ?c2_b_cv5@?1??c2_modbus@@9@9 0000000180091dc8     c2_wwtp3.obj
 0003:00011de8       ?c2_b_cv12@?1??c2_modbus@@9@9 0000000180091de8     c2_wwtp3.obj
 0003:00011e04       $SG30228                   0000000180091e04     c2_wwtp3.obj
 0003:00011e08       ?c2_b_cv14@?1??c2_modbus@@9@9 0000000180091e08     c2_wwtp3.obj
 0003:00011e24       $SG30229                   0000000180091e24     c2_wwtp3.obj
 0003:00011e28       ?c2_b_cv3@?1??c2_modbus@@9@9 0000000180091e28     c2_wwtp3.obj
 0003:00011e44       $SG30230                   0000000180091e44     c2_wwtp3.obj
 0003:00011e48       ?c2_b_cv7@?1??c2_modbus@@9@9 0000000180091e48     c2_wwtp3.obj
 0003:00011e64       $SG30231                   0000000180091e64     c2_wwtp3.obj
 0003:00011e68       ?c2_b_cv@?1??c2_modbus@@9@9 0000000180091e68     c2_wwtp3.obj
 0003:00011e74       ?c2_b_cv9@?1??c2_modbus@@9@9 0000000180091e74     c2_wwtp3.obj
 0003:00011e7c       ?c2_val@?1??c2_modbus@@9@9 0000000180091e7c     c2_wwtp3.obj
 0003:00011e84       $SG30232                   0000000180091e84     c2_wwtp3.obj
 0003:00011e88       $SG30233                   0000000180091e88     c2_wwtp3.obj
 0003:00011e90       $SG30234                   0000000180091e90     c2_wwtp3.obj
 0003:00011e9c       $SG30235                   0000000180091e9c     c2_wwtp3.obj
 0003:00011ea4       $SG30238                   0000000180091ea4     c2_wwtp3.obj
 0003:00011ea8       $SG30239                   0000000180091ea8     c2_wwtp3.obj
 0003:00011eac       $SG30240                   0000000180091eac     c2_wwtp3.obj
 0003:00011eb0       $SG30241                   0000000180091eb0     c2_wwtp3.obj
 0003:00011eb4       $SG30242                   0000000180091eb4     c2_wwtp3.obj
 0003:00011eb8       $SG30243                   0000000180091eb8     c2_wwtp3.obj
 0003:00011ec0       $SG30244                   0000000180091ec0     c2_wwtp3.obj
 0003:00011ecc       $SG30245                   0000000180091ecc     c2_wwtp3.obj
 0003:00011ed4       $SG30250                   0000000180091ed4     c2_wwtp3.obj
 0003:00011ed8       $SG30251                   0000000180091ed8     c2_wwtp3.obj
 0003:00011edc       $SG30252                   0000000180091edc     c2_wwtp3.obj
 0003:00011ee0       $SG30253                   0000000180091ee0     c2_wwtp3.obj
 0003:00011ee8       $SG30254                   0000000180091ee8     c2_wwtp3.obj
 0003:00011ef4       $SG30255                   0000000180091ef4     c2_wwtp3.obj
 0003:00011efc       $SG30260                   0000000180091efc     c2_wwtp3.obj
 0003:00011f00       $SG30261                   0000000180091f00     c2_wwtp3.obj
 0003:00011f04       $SG30262                   0000000180091f04     c2_wwtp3.obj
 0003:00011f08       $SG30263                   0000000180091f08     c2_wwtp3.obj
 0003:00011f10       $SG30264                   0000000180091f10     c2_wwtp3.obj
 0003:00011f1c       $SG30265                   0000000180091f1c     c2_wwtp3.obj
 0003:00011f24       ?c2_b_cv1@?1??c2_TCPClient_initializeChannel@@9@9 0000000180091f24     c2_wwtp3.obj
 0003:00011f2c       ?c2_b_cv15@?1??c2_TCPClient_initializeChannel@@9@9 0000000180091f2c     c2_wwtp3.obj
 0003:00011f30       ?c2_r@?1??c2_TCPClient_initializeChannel@@9@9 0000000180091f30     c2_wwtp3.obj
 0003:00011f40       ?c2_iv@?1??c2_TCPClient_initializeChannel@@9@9 0000000180091f40     c2_wwtp3.obj
 0003:00011f48       ?c2_b_cv12@?1??c2_TCPClient_initializeChannel@@9@9 0000000180091f48     c2_wwtp3.obj
 0003:00011f74       ?c2_b_cv6@?1??c2_TCPClient_initializeChannel@@9@9 0000000180091f74     c2_wwtp3.obj
 0003:00011f78       ?c2_b_cv14@?1??c2_TCPClient_initializeChannel@@9@9 0000000180091f78     c2_wwtp3.obj
 0003:00011fa4       ?c2_val@?1??c2_TCPClient_initializeChannel@@9@9 0000000180091fa4     c2_wwtp3.obj
 0003:00011fa8       ?c2_b_cv16@?1??c2_TCPClient_initializeChannel@@9@9 0000000180091fa8     c2_wwtp3.obj
 0003:00011fd4       ?c2_b_cv10@?1??c2_TCPClient_initializeChannel@@9@9 0000000180091fd4     c2_wwtp3.obj
 0003:00011fdc       $SG30776                   0000000180091fdc     c2_wwtp3.obj
 0003:00011fe0       ?c2_b_cv3@?1??c2_TCPClient_initializeChannel@@9@9 0000000180091fe0     c2_wwtp3.obj
 0003:00012004       $SG30777                   0000000180092004     c2_wwtp3.obj
 0003:00012008       ?c2_b_cv5@?1??c2_TCPClient_initializeChannel@@9@9 0000000180092008     c2_wwtp3.obj
 0003:0001202c       $SG30779                   000000018009202c     c2_wwtp3.obj
 0003:00012030       ?c2_b_cv8@?1??c2_TCPClient_initializeChannel@@9@9 0000000180092030     c2_wwtp3.obj
 0003:00012054       $SG30783                   0000000180092054     c2_wwtp3.obj
 0003:00012058       ?c2_b_cv7@?1??c2_TCPClient_initializeChannel@@9@9 0000000180092058     c2_wwtp3.obj
 0003:0001207c       $SG30784                   000000018009207c     c2_wwtp3.obj
 0003:00012080       ?c2_converterFullName@?1??c2_TCPClient_initializeChannel@@9@9 0000000180092080     c2_wwtp3.obj
 0003:0001209c       ?c2_b_cv@?1??c2_TCPClient_initializeChannel@@9@9 000000018009209c     c2_wwtp3.obj
 0003:000120a4       $SG30788                   00000001800920a4     c2_wwtp3.obj
 0003:000120a8       ?c2_b_converterFullName@?1??c2_TCPClient_initializeChannel@@9@9 00000001800920a8     c2_wwtp3.obj
 0003:000120c0       ?c2_deviceFullName@?1??c2_TCPClient_initializeChannel@@9@9 00000001800920c0     c2_wwtp3.obj
 0003:000120d4       $SG30789                   00000001800920d4     c2_wwtp3.obj
 0003:000120d8       ?c2_b_deviceFullName@?1??c2_TCPClient_initializeChannel@@9@9 00000001800920d8     c2_wwtp3.obj
 0003:000120e4       $SG30793                   00000001800920e4     c2_wwtp3.obj
 0003:000120e8       ?c2_b_cv11@?1??c2_TCPClient_initializeChannel@@9@9 00000001800920e8     c2_wwtp3.obj
 0003:000120f0       ?c2_b_cv2@?1??c2_TCPClient_initializeChannel@@9@9 00000001800920f0     c2_wwtp3.obj
 0003:000120f8       ?c2_b_cv9@?1??c2_TCPClient_initializeChannel@@9@9 00000001800920f8     c2_wwtp3.obj
 0003:00012100       ?c2_b_cv13@?1??c2_TCPClient_initializeChannel@@9@9 0000000180092100     c2_wwtp3.obj
 0003:00012108       ?c2_b_cv4@?1??c2_TCPClient_initializeChannel@@9@9 0000000180092108     c2_wwtp3.obj
 0003:00012110       ?c2_b_val@?1??c2_TCPClient_initializeChannel@@9@9 0000000180092110     c2_wwtp3.obj
 0003:00012118       $SG30778                   0000000180092118     c2_wwtp3.obj
 0003:00012130       $SG30782                   0000000180092130     c2_wwtp3.obj
 0003:00012160       $SG30787                   0000000180092160     c2_wwtp3.obj
 0003:00012190       $SG30790                   0000000180092190     c2_wwtp3.obj
 0003:00012198       $SG30791                   0000000180092198     c2_wwtp3.obj
 0003:000121a4       $SG30792                   00000001800921a4     c2_wwtp3.obj
 0003:000121ac       $SG30794                   00000001800921ac     c2_wwtp3.obj
 0003:000121b0       $SG30797                   00000001800921b0     c2_wwtp3.obj
 0003:000121e0       $SG30798                   00000001800921e0     c2_wwtp3.obj
 0003:000121e4       $SG30799                   00000001800921e4     c2_wwtp3.obj
 0003:000121e8       $SG30800                   00000001800921e8     c2_wwtp3.obj
 0003:000121f0       $SG30801                   00000001800921f0     c2_wwtp3.obj
 0003:000121fc       $SG30802                   00000001800921fc     c2_wwtp3.obj
 0003:00012204       $SG30803                   0000000180092204     c2_wwtp3.obj
 0003:00012208       $SG30804                   0000000180092208     c2_wwtp3.obj
 0003:0001220c       $SG30805                   000000018009220c     c2_wwtp3.obj
 0003:00012210       $SG30806                   0000000180092210     c2_wwtp3.obj
 0003:00012214       $SG30815                   0000000180092214     c2_wwtp3.obj
 0003:00012218       $SG30807                   0000000180092218     c2_wwtp3.obj
 0003:00012220       $SG30808                   0000000180092220     c2_wwtp3.obj
 0003:0001222c       $SG30809                   000000018009222c     c2_wwtp3.obj
 0003:00012234       $SG30816                   0000000180092234     c2_wwtp3.obj
 0003:00012238       $SG30817                   0000000180092238     c2_wwtp3.obj
 0003:00012240       $SG30818                   0000000180092240     c2_wwtp3.obj
 0003:0001224c       $SG30819                   000000018009224c     c2_wwtp3.obj
 0003:00012254       $SG30827                   0000000180092254     c2_wwtp3.obj
 0003:00012258       $SG30821                   0000000180092258     c2_wwtp3.obj
 0003:00012264       $SG30822                   0000000180092264     c2_wwtp3.obj
 0003:0001226c       $SG30828                   000000018009226c     c2_wwtp3.obj
 0003:00012270       $SG30823                   0000000180092270     c2_wwtp3.obj
 0003:0001227c       $SG30824                   000000018009227c     c2_wwtp3.obj
 0003:00012284       $SG30830                   0000000180092284     c2_wwtp3.obj
 0003:00012288       $SG30829                   0000000180092288     c2_wwtp3.obj
 0003:000122a0       $SG30833                   00000001800922a0     c2_wwtp3.obj
 0003:000122d0       $SG30834                   00000001800922d0     c2_wwtp3.obj
 0003:000122d4       $SG30835                   00000001800922d4     c2_wwtp3.obj
 0003:000122d8       $SG30838                   00000001800922d8     c2_wwtp3.obj
 0003:00012308       $SG30839                   0000000180092308     c2_wwtp3.obj
 0003:0001230c       $SG30840                   000000018009230c     c2_wwtp3.obj
 0003:00012310       $SG30841                   0000000180092310     c2_wwtp3.obj
 0003:00012318       $SG30842                   0000000180092318     c2_wwtp3.obj
 0003:00012324       $SG30843                   0000000180092324     c2_wwtp3.obj
 0003:0001232c       $SG30844                   000000018009232c     c2_wwtp3.obj
 0003:00012330       $SG30845                   0000000180092330     c2_wwtp3.obj
 0003:00012334       $SG30849                   0000000180092334     c2_wwtp3.obj
 0003:00012338       $SG30848                   0000000180092338     c2_wwtp3.obj
 0003:00012368       $SG30850                   0000000180092368     c2_wwtp3.obj
 0003:0001236c       $SG30854                   000000018009236c     c2_wwtp3.obj
 0003:00012370       $SG30851                   0000000180092370     c2_wwtp3.obj
 0003:00012378       $SG30852                   0000000180092378     c2_wwtp3.obj
 0003:00012384       $SG30853                   0000000180092384     c2_wwtp3.obj
 0003:0001238c       $SG30855                   000000018009238c     c2_wwtp3.obj
 0003:00012390       $SG30856                   0000000180092390     c2_wwtp3.obj
 0003:00012394       $SG30857                   0000000180092394     c2_wwtp3.obj
 0003:00012398       $SG30858                   0000000180092398     c2_wwtp3.obj
 0003:000123a0       $SG30859                   00000001800923a0     c2_wwtp3.obj
 0003:000123ac       $SG30860                   00000001800923ac     c2_wwtp3.obj
 0003:000123b4       ?c2_b_cv@?1??c2_sprintf@@9@9 00000001800923b4     c2_wwtp3.obj
 0003:000123bc       ?c2_formatSpec@?1??c2_sprintf@@9@9 00000001800923bc     c2_wwtp3.obj
 0003:000123c0       $SG30891                   00000001800923c0     c2_wwtp3.obj
 0003:000123c4       $SG30892                   00000001800923c4     c2_wwtp3.obj
 0003:000123c8       $SG30893                   00000001800923c8     c2_wwtp3.obj
 0003:000123cc       $SG30896                   00000001800923cc     c2_wwtp3.obj
 0003:000123d4       $SG31365                   00000001800923d4     c2_wwtp3.obj
 0003:000123d8       $SG30894                   00000001800923d8     c2_wwtp3.obj
 0003:000123ec       $SG31366                   00000001800923ec     c2_wwtp3.obj
 0003:000123f0       ?c2_b_cv10@?1??c2_API_dispatchInternalError@@9@9 00000001800923f0     c2_wwtp3.obj
 0003:00012424       ?c2_b_cv11@?1??c2_API_dispatchInternalError@@9@9 0000000180092424     c2_wwtp3.obj
 0003:0001242c       $SG31371                   000000018009242c     c2_wwtp3.obj
 0003:00012430       ?c2_cv21@?1??c2_API_dispatchInternalError@@9@9 0000000180092430     c2_wwtp3.obj
 0003:00012464       ?c2_b_cv13@?1??c2_API_dispatchInternalError@@9@9 0000000180092464     c2_wwtp3.obj
 0003:0001246c       $SG31372                   000000018009246c     c2_wwtp3.obj
 0003:00012470       ?c2_b_cv9@?1??c2_API_dispatchInternalError@@9@9 0000000180092470     c2_wwtp3.obj
 0003:000124a0       ?c2_cv20@?1??c2_API_dispatchInternalError@@9@9 00000001800924a0     c2_wwtp3.obj
 0003:000124d0       ?c2_b_cv7@?1??c2_API_dispatchInternalError@@9@9 00000001800924d0     c2_wwtp3.obj
 0003:000124f8       ?c2_cv18@?1??c2_API_dispatchInternalError@@9@9 00000001800924f8     c2_wwtp3.obj
 0003:00012520       ?c2_b_cv15@?1??c2_API_dispatchInternalError@@9@9 0000000180092520     c2_wwtp3.obj
 0003:00012548       ?c2_b_cv4@?1??c2_API_dispatchInternalError@@9@9 0000000180092548     c2_wwtp3.obj
 0003:00012570       ?c2_b_cv17@?1??c2_API_dispatchInternalError@@9@9 0000000180092570     c2_wwtp3.obj
 0003:00012594       $SG31377                   0000000180092594     c2_wwtp3.obj
 0003:00012598       ?c2_b_cv6@?1??c2_API_dispatchInternalError@@9@9 0000000180092598     c2_wwtp3.obj
 0003:000125bc       $SG31378                   00000001800925bc     c2_wwtp3.obj
 0003:000125c0       ?c2_b_cv8@?1??c2_API_dispatchInternalError@@9@9 00000001800925c0     c2_wwtp3.obj
 0003:000125e4       $SG31383                   00000001800925e4     c2_wwtp3.obj
 0003:000125e8       ?c2_cv19@?1??c2_API_dispatchInternalError@@9@9 00000001800925e8     c2_wwtp3.obj
 0003:0001260c       $SG31384                   000000018009260c     c2_wwtp3.obj
 0003:00012610       ?c2_b_cv14@?1??c2_API_dispatchInternalError@@9@9 0000000180092610     c2_wwtp3.obj
 0003:00012634       $SG31389                   0000000180092634     c2_wwtp3.obj
 0003:00012638       ?c2_b_cv3@?1??c2_API_dispatchInternalError@@9@9 0000000180092638     c2_wwtp3.obj
 0003:0001265c       $SG31390                   000000018009265c     c2_wwtp3.obj
 0003:00012660       ?c2_b_cv12@?1??c2_API_dispatchInternalError@@9@9 0000000180092660     c2_wwtp3.obj
 0003:00012684       $SG31369                   0000000180092684     c2_wwtp3.obj
 0003:0001268c       $SG31395                   000000018009268c     c2_wwtp3.obj
 0003:00012690       ?c2_b_cv16@?1??c2_API_dispatchInternalError@@9@9 0000000180092690     c2_wwtp3.obj
 0003:000126b4       $SG31375                   00000001800926b4     c2_wwtp3.obj
 0003:000126bc       $SG31396                   00000001800926bc     c2_wwtp3.obj
 0003:000126c0       ?c2_b_cv2@?1??c2_API_dispatchInternalError@@9@9 00000001800926c0     c2_wwtp3.obj
 0003:000126e4       $SG31381                   00000001800926e4     c2_wwtp3.obj
 0003:000126ec       $SG31401                   00000001800926ec     c2_wwtp3.obj
 0003:000126f0       ?c2_b_cv5@?1??c2_API_dispatchInternalError@@9@9 00000001800926f0     c2_wwtp3.obj
 0003:00012714       $SG31387                   0000000180092714     c2_wwtp3.obj
 0003:0001271c       $SG31402                   000000018009271c     c2_wwtp3.obj
 0003:00012720       ?c2_b_cv@?1??c2_API_dispatchInternalError@@9@9 0000000180092720     c2_wwtp3.obj
 0003:00012740       ?c2_b_cv1@?1??c2_API_dispatchInternalError@@9@9 0000000180092740     c2_wwtp3.obj
 0003:00012760       $SG31367                   0000000180092760     c2_wwtp3.obj
 0003:00012768       $SG31368                   0000000180092768     c2_wwtp3.obj
 0003:00012774       $SG31407                   0000000180092774     c2_wwtp3.obj
 0003:00012778       $SG31373                   0000000180092778     c2_wwtp3.obj
 0003:00012780       $SG31374                   0000000180092780     c2_wwtp3.obj
 0003:0001278c       $SG31408                   000000018009278c     c2_wwtp3.obj
 0003:00012790       $SG31379                   0000000180092790     c2_wwtp3.obj
 0003:00012798       $SG31380                   0000000180092798     c2_wwtp3.obj
 0003:000127a4       $SG31413                   00000001800927a4     c2_wwtp3.obj
 0003:000127a8       $SG31385                   00000001800927a8     c2_wwtp3.obj
 0003:000127b0       $SG31386                   00000001800927b0     c2_wwtp3.obj
 0003:000127bc       $SG31414                   00000001800927bc     c2_wwtp3.obj
 0003:000127c0       $SG31391                   00000001800927c0     c2_wwtp3.obj
 0003:000127c8       $SG31392                   00000001800927c8     c2_wwtp3.obj
 0003:000127d4       $SG31393                   00000001800927d4     c2_wwtp3.obj
 0003:000127dc       $SG31419                   00000001800927dc     c2_wwtp3.obj
 0003:000127e0       $SG31397                   00000001800927e0     c2_wwtp3.obj
 0003:000127e8       $SG31398                   00000001800927e8     c2_wwtp3.obj
 0003:000127f4       $SG31399                   00000001800927f4     c2_wwtp3.obj
 0003:000127fc       $SG31420                   00000001800927fc     c2_wwtp3.obj
 0003:00012800       $SG31403                   0000000180092800     c2_wwtp3.obj
 0003:00012808       $SG31404                   0000000180092808     c2_wwtp3.obj
 0003:00012814       $SG31405                   0000000180092814     c2_wwtp3.obj
 0003:0001281c       $SG31425                   000000018009281c     c2_wwtp3.obj
 0003:00012820       $SG31409                   0000000180092820     c2_wwtp3.obj
 0003:00012828       $SG31410                   0000000180092828     c2_wwtp3.obj
 0003:00012834       $SG31411                   0000000180092834     c2_wwtp3.obj
 0003:0001283c       $SG31426                   000000018009283c     c2_wwtp3.obj
 0003:00012840       $SG31415                   0000000180092840     c2_wwtp3.obj
 0003:00012848       $SG31416                   0000000180092848     c2_wwtp3.obj
 0003:00012854       $SG31417                   0000000180092854     c2_wwtp3.obj
 0003:0001285c       $SG31431                   000000018009285c     c2_wwtp3.obj
 0003:00012860       $SG31421                   0000000180092860     c2_wwtp3.obj
 0003:00012868       $SG31422                   0000000180092868     c2_wwtp3.obj
 0003:00012874       $SG31423                   0000000180092874     c2_wwtp3.obj
 0003:0001287c       $SG31432                   000000018009287c     c2_wwtp3.obj
 0003:00012880       $SG31427                   0000000180092880     c2_wwtp3.obj
 0003:00012888       $SG31428                   0000000180092888     c2_wwtp3.obj
 0003:00012894       $SG31429                   0000000180092894     c2_wwtp3.obj
 0003:0001289c       $SG31437                   000000018009289c     c2_wwtp3.obj
 0003:000128a0       $SG31433                   00000001800928a0     c2_wwtp3.obj
 0003:000128a8       $SG31434                   00000001800928a8     c2_wwtp3.obj
 0003:000128b4       $SG31435                   00000001800928b4     c2_wwtp3.obj
 0003:000128bc       $SG31438                   00000001800928bc     c2_wwtp3.obj
 0003:000128c0       $SG31439                   00000001800928c0     c2_wwtp3.obj
 0003:000128c8       $SG31440                   00000001800928c8     c2_wwtp3.obj
 0003:000128d4       $SG31441                   00000001800928d4     c2_wwtp3.obj
 0003:000128dc       $SG31443                   00000001800928dc     c2_wwtp3.obj
 0003:000128e0       $SG31444                   00000001800928e0     c2_wwtp3.obj
 0003:000128e4       $SG31445                   00000001800928e4     c2_wwtp3.obj
 0003:000128e8       $SG31446                   00000001800928e8     c2_wwtp3.obj
 0003:000128f0       $SG31447                   00000001800928f0     c2_wwtp3.obj
 0003:000128fc       $SG31448                   00000001800928fc     c2_wwtp3.obj
 0003:00012904       $SG31450                   0000000180092904     c2_wwtp3.obj
 0003:00012908       $SG31451                   0000000180092908     c2_wwtp3.obj
 0003:0001290c       $SG31452                   000000018009290c     c2_wwtp3.obj
 0003:00012910       $SG31453                   0000000180092910     c2_wwtp3.obj
 0003:00012918       $SG31454                   0000000180092918     c2_wwtp3.obj
 0003:00012924       $SG31455                   0000000180092924     c2_wwtp3.obj
 0003:0001292c       $SG31644                   000000018009292c     c2_wwtp3.obj
 0003:00012930       $SG31645                   0000000180092930     c2_wwtp3.obj
 0003:00012934       $SG31646                   0000000180092934     c2_wwtp3.obj
 0003:00012938       $SG31647                   0000000180092938     c2_wwtp3.obj
 0003:0001293c       $SG31684                   000000018009293c     c2_wwtp3.obj
 0003:00012940       $SG31648                   0000000180092940     c2_wwtp3.obj
 0003:00012948       $SG31649                   0000000180092948     c2_wwtp3.obj
 0003:00012954       $SG31650                   0000000180092954     c2_wwtp3.obj
 0003:0001295c       $SG31685                   000000018009295c     c2_wwtp3.obj
 0003:00012960       $SG31686                   0000000180092960     c2_wwtp3.obj
 0003:00012968       $SG31687                   0000000180092968     c2_wwtp3.obj
 0003:00012974       $SG31688                   0000000180092974     c2_wwtp3.obj
 0003:0001297c       $SG31714                   000000018009297c     c2_wwtp3.obj
 0003:00012980       $SG31715                   0000000180092980     c2_wwtp3.obj
 0003:00012988       $SG31743                   0000000180092988     c2_wwtp3.obj
 0003:0001298c       $SG31744                   000000018009298c     c2_wwtp3.obj
 0003:00012990       $SG31745                   0000000180092990     c2_wwtp3.obj
 0003:00012998       $SG31746                   0000000180092998     c2_wwtp3.obj
 0003:000129a4       $SG31747                   00000001800929a4     c2_wwtp3.obj
 0003:000129ac       $SG31908                   00000001800929ac     c2_wwtp3.obj
 0003:000129b0       ?c2_b_cv@?1??c2_TCPClient_connect@@9@9 00000001800929b0     c2_wwtp3.obj
 0003:000129d8       $SG31909                   00000001800929d8     c2_wwtp3.obj
 0003:000129dc       $SG31933                   00000001800929dc     c2_wwtp3.obj
 0003:000129e4       $SG32056                   00000001800929e4     c2_wwtp3.obj
 0003:000129e8       $SG31910                   00000001800929e8     c2_wwtp3.obj
 0003:000129f0       $SG31911                   00000001800929f0     c2_wwtp3.obj
 0003:000129fc       $SG31912                   00000001800929fc     c2_wwtp3.obj
 0003:00012a04       $SG31935                   0000000180092a04     c2_wwtp3.obj
 0003:00012a0c       $SG32057                   0000000180092a0c     c2_wwtp3.obj
 0003:00012a10       $SG31923                   0000000180092a10     c2_wwtp3.obj
 0003:00012a18       $SG31924                   0000000180092a18     c2_wwtp3.obj
 0003:00012a28       $SG31926                   0000000180092a28     c2_wwtp3.obj
 0003:00012a34       $SG31927                   0000000180092a34     c2_wwtp3.obj
 0003:00012a3c       $SG31937                   0000000180092a3c     c2_wwtp3.obj
 0003:00012a44       $SG32058                   0000000180092a44     c2_wwtp3.obj
 0003:00012a48       $SG31928                   0000000180092a48     c2_wwtp3.obj
 0003:00012a54       $SG31929                   0000000180092a54     c2_wwtp3.obj
 0003:00012a5c       $SG32061                   0000000180092a5c     c2_wwtp3.obj
 0003:00012a64       $SG32063                   0000000180092a64     c2_wwtp3.obj
 0003:00012a68       $SG31932                   0000000180092a68     c2_wwtp3.obj
 0003:00012a74       $SG32064                   0000000180092a74     c2_wwtp3.obj
 0003:00012a78       $SG31934                   0000000180092a78     c2_wwtp3.obj
 0003:00012a84       $SG32065                   0000000180092a84     c2_wwtp3.obj
 0003:00012a88       $SG31936                   0000000180092a88     c2_wwtp3.obj
 0003:00012a98       $SG31938                   0000000180092a98     c2_wwtp3.obj
 0003:00012aa4       $SG32070                   0000000180092aa4     c2_wwtp3.obj
 0003:00012aa8       $SG31939                   0000000180092aa8     c2_wwtp3.obj
 0003:00012ab0       $SG31940                   0000000180092ab0     c2_wwtp3.obj
 0003:00012ac0       $SG31941                   0000000180092ac0     c2_wwtp3.obj
 0003:00012ac8       $SG31942                   0000000180092ac8     c2_wwtp3.obj
 0003:00012ad8       $SG31943                   0000000180092ad8     c2_wwtp3.obj
 0003:00012ae0       $SG32059                   0000000180092ae0     c2_wwtp3.obj
 0003:00012ae8       $SG32060                   0000000180092ae8     c2_wwtp3.obj
 0003:00012af4       $SG32071                   0000000180092af4     c2_wwtp3.obj
 0003:00012af8       $SG32066                   0000000180092af8     c2_wwtp3.obj
 0003:00012b00       $SG32067                   0000000180092b00     c2_wwtp3.obj
 0003:00012b0c       $SG32068                   0000000180092b0c     c2_wwtp3.obj
 0003:00012b14       $SG32072                   0000000180092b14     c2_wwtp3.obj
 0003:00012b18       $SG32073                   0000000180092b18     c2_wwtp3.obj
 0003:00012b20       $SG32074                   0000000180092b20     c2_wwtp3.obj
 0003:00012b2c       $SG32075                   0000000180092b2c     c2_wwtp3.obj
 0003:00012b34       $SG32077                   0000000180092b34     c2_wwtp3.obj
 0003:00012b38       $SG32078                   0000000180092b38     c2_wwtp3.obj
 0003:00012b3c       $SG32079                   0000000180092b3c     c2_wwtp3.obj
 0003:00012b40       $SG32080                   0000000180092b40     c2_wwtp3.obj
 0003:00012b48       $SG32081                   0000000180092b48     c2_wwtp3.obj
 0003:00012b54       $SG32082                   0000000180092b54     c2_wwtp3.obj
 0003:00012b5c       $SG32169                   0000000180092b5c     c2_wwtp3.obj
 0003:00012b60       ?c2_b_cv@?1??c2_TCPClient_validateConnected@@9@9 0000000180092b60     c2_wwtp3.obj
 0003:00012b90       ?c2_b_cv1@?1??c2_TCPClient_validateConnected@@9@9 0000000180092b90     c2_wwtp3.obj
 0003:00012ba0       $SG32170                   0000000180092ba0     c2_wwtp3.obj
 0003:00012ba4       $SG32171                   0000000180092ba4     c2_wwtp3.obj
 0003:00012ba8       $SG32172                   0000000180092ba8     c2_wwtp3.obj
 0003:00012bb0       $SG32173                   0000000180092bb0     c2_wwtp3.obj
 0003:00012bbc       $SG32174                   0000000180092bbc     c2_wwtp3.obj
 0003:00012bc4       $SG32205                   0000000180092bc4     c2_wwtp3.obj
 0003:00012bc8       $SG32206                   0000000180092bc8     c2_wwtp3.obj
 0003:00012bcc       $SG32207                   0000000180092bcc     c2_wwtp3.obj
 0003:00012bd0       $SG32208                   0000000180092bd0     c2_wwtp3.obj
 0003:00012bd4       ?c2_b_cv1@?1??c2_Stream_wait@@9@9 0000000180092bd4     c2_wwtp3.obj
 0003:00012bdc       ?c2_b_cv@?1??c2_Stream_wait@@9@9 0000000180092bdc     c2_wwtp3.obj
 0003:00012be0       $SG32209                   0000000180092be0     c2_wwtp3.obj
 0003:00012be8       $SG32210                   0000000180092be8     c2_wwtp3.obj
 0003:00012bf4       $SG32211                   0000000180092bf4     c2_wwtp3.obj
 0003:00012bfc       ?c2_b_cv2@?1??c2_Stream_wait@@9@9 0000000180092bfc     c2_wwtp3.obj
 0003:00012c04       ?c2_b_cv3@?1??c2_Stream_wait@@9@9 0000000180092c04     c2_wwtp3.obj
 0003:00012c0c       $SG32308                   0000000180092c0c     c2_wwtp3.obj
 0003:00012c10       $SG32309                   0000000180092c10     c2_wwtp3.obj
 0003:00012c14       $SG32310                   0000000180092c14     c2_wwtp3.obj
 0003:00012c18       $SG32311                   0000000180092c18     c2_wwtp3.obj
 0003:00012c1c       $SG32361                   0000000180092c1c     c2_wwtp3.obj
 0003:00012c20       ?c2_b_cv@?1??c2_getTime@@9@9 0000000180092c20     c2_wwtp3.obj
 0003:00012c44       $SG32362                   0000000180092c44     c2_wwtp3.obj
 0003:00012c48       ?c2_b_cv1@?1??c2_getTime@@9@9 0000000180092c48     c2_wwtp3.obj
 0003:00012c64       $SG32363                   0000000180092c64     c2_wwtp3.obj
 0003:00012c68       $SG32364                   0000000180092c68     c2_wwtp3.obj
 0003:00012c6c       $SG32498                   0000000180092c6c     c2_wwtp3.obj
 0003:00012c70       $SG32365                   0000000180092c70     c2_wwtp3.obj
 0003:00012c78       $SG32366                   0000000180092c78     c2_wwtp3.obj
 0003:00012c84       $SG32367                   0000000180092c84     c2_wwtp3.obj
 0003:00012c8c       $SG32499                   0000000180092c8c     c2_wwtp3.obj
 0003:00012c90       $SG32500                   0000000180092c90     c2_wwtp3.obj
 0003:00012c94       $SG32505                   0000000180092c94     c2_wwtp3.obj
 0003:00012c98       $SG32501                   0000000180092c98     c2_wwtp3.obj
 0003:00012ca0       $SG32502                   0000000180092ca0     c2_wwtp3.obj
 0003:00012cac       $SG32503                   0000000180092cac     c2_wwtp3.obj
 0003:00012cb4       $SG32506                   0000000180092cb4     c2_wwtp3.obj
 0003:00012cb8       $SG32507                   0000000180092cb8     c2_wwtp3.obj
 0003:00012cbc       $SG32512                   0000000180092cbc     c2_wwtp3.obj
 0003:00012cc0       $SG32508                   0000000180092cc0     c2_wwtp3.obj
 0003:00012cc8       $SG32509                   0000000180092cc8     c2_wwtp3.obj
 0003:00012cd4       $SG32510                   0000000180092cd4     c2_wwtp3.obj
 0003:00012cdc       $SG32513                   0000000180092cdc     c2_wwtp3.obj
 0003:00012ce0       $SG32514                   0000000180092ce0     c2_wwtp3.obj
 0003:00012ce4       $SG32519                   0000000180092ce4     c2_wwtp3.obj
 0003:00012ce8       $SG32515                   0000000180092ce8     c2_wwtp3.obj
 0003:00012cf0       $SG32516                   0000000180092cf0     c2_wwtp3.obj
 0003:00012cfc       $SG32517                   0000000180092cfc     c2_wwtp3.obj
 0003:00012d04       $SG32520                   0000000180092d04     c2_wwtp3.obj
 0003:00012d08       $SG32521                   0000000180092d08     c2_wwtp3.obj
 0003:00012d0c       ?c2_b_cv@?1??c2_g_strcmp@@9@9 0000000180092d0c     c2_wwtp3.obj
 0003:00012d10       $SG32522                   0000000180092d10     c2_wwtp3.obj
 0003:00012d18       $SG32523                   0000000180092d18     c2_wwtp3.obj
 0003:00012d24       $SG32524                   0000000180092d24     c2_wwtp3.obj
 0003:00012d2c       $SG32647                   0000000180092d2c     c2_wwtp3.obj
 0003:00012d30       $SG32648                   0000000180092d30     c2_wwtp3.obj
 0003:00012d34       $SG32649                   0000000180092d34     c2_wwtp3.obj
 0003:00012d38       $SG32650                   0000000180092d38     c2_wwtp3.obj
 0003:00012d40       $SG32651                   0000000180092d40     c2_wwtp3.obj
 0003:00012d4c       $SG32652                   0000000180092d4c     c2_wwtp3.obj
 0003:00012d54       $SG32654                   0000000180092d54     c2_wwtp3.obj
 0003:00012d58       $SG32655                   0000000180092d58     c2_wwtp3.obj
 0003:00012d5c       $SG32656                   0000000180092d5c     c2_wwtp3.obj
 0003:00012d60       $SG32657                   0000000180092d60     c2_wwtp3.obj
 0003:00012d68       $SG32658                   0000000180092d68     c2_wwtp3.obj
 0003:00012d74       $SG32659                   0000000180092d74     c2_wwtp3.obj
 0003:00012d7c       $SG32661                   0000000180092d7c     c2_wwtp3.obj
 0003:00012d80       $SG32662                   0000000180092d80     c2_wwtp3.obj
 0003:00012d84       $SG32663                   0000000180092d84     c2_wwtp3.obj
 0003:00012d88       $SG32664                   0000000180092d88     c2_wwtp3.obj
 0003:00012d90       $SG32665                   0000000180092d90     c2_wwtp3.obj
 0003:00012d9c       $SG32666                   0000000180092d9c     c2_wwtp3.obj
 0003:00012da4       $SG32668                   0000000180092da4     c2_wwtp3.obj
 0003:00012da8       $SG32669                   0000000180092da8     c2_wwtp3.obj
 0003:00012dac       $SG32670                   0000000180092dac     c2_wwtp3.obj
 0003:00012db0       $SG32671                   0000000180092db0     c2_wwtp3.obj
 0003:00012db8       $SG32672                   0000000180092db8     c2_wwtp3.obj
 0003:00012dc4       $SG32673                   0000000180092dc4     c2_wwtp3.obj
 0003:00012dcc       ?c2_b@?1??c2_OutputStream_drain@@9@9 0000000180092dcc     c2_wwtp3.obj
 0003:00012dd4       ?c2_b_cv@?1??c2_OutputStream_drain@@9@9 0000000180092dd4     c2_wwtp3.obj
 0003:00012dd8       ?c2_b_cv3@?1??c2_OutputStream_drain@@9@9 0000000180092dd8     c2_wwtp3.obj
 0003:00012dfc       ?c2_b_cv4@?1??c2_OutputStream_drain@@9@9 0000000180092dfc     c2_wwtp3.obj
 0003:00012e04       ?c2_b_cv1@?1??c2_OutputStream_drain@@9@9 0000000180092e04     c2_wwtp3.obj
 0003:00012e0c       ?c2_b_cv2@?1??c2_OutputStream_drain@@9@9 0000000180092e0c     c2_wwtp3.obj
 0003:00012e14       $SG32890                   0000000180092e14     c2_wwtp3.obj
 0003:00012e18       $SG32891                   0000000180092e18     c2_wwtp3.obj
 0003:00012e1c       $SG32892                   0000000180092e1c     c2_wwtp3.obj
 0003:00012e20       $SG32893                   0000000180092e20     c2_wwtp3.obj
 0003:00012e24       $SG32912                   0000000180092e24     c2_wwtp3.obj
 0003:00012e28       $SG32913                   0000000180092e28     c2_wwtp3.obj
 0003:00012e2c       $SG32914                   0000000180092e2c     c2_wwtp3.obj
 0003:00012e30       $SG32915                   0000000180092e30     c2_wwtp3.obj
 0003:00012e38       $SG32916                   0000000180092e38     c2_wwtp3.obj
 0003:00012e44       $SG32917                   0000000180092e44     c2_wwtp3.obj
 0003:00012e4c       $SG32919                   0000000180092e4c     c2_wwtp3.obj
 0003:00012e50       $SG32920                   0000000180092e50     c2_wwtp3.obj
 0003:00012e54       $SG32921                   0000000180092e54     c2_wwtp3.obj
 0003:00012e58       $SG32922                   0000000180092e58     c2_wwtp3.obj
 0003:00012e60       $SG32923                   0000000180092e60     c2_wwtp3.obj
 0003:00012e6c       $SG32924                   0000000180092e6c     c2_wwtp3.obj
 0003:00012e74       $SG32926                   0000000180092e74     c2_wwtp3.obj
 0003:00012e78       $SG32927                   0000000180092e78     c2_wwtp3.obj
 0003:00012e7c       $SG32928                   0000000180092e7c     c2_wwtp3.obj
 0003:00012e80       $SG32929                   0000000180092e80     c2_wwtp3.obj
 0003:00012e88       $SG32930                   0000000180092e88     c2_wwtp3.obj
 0003:00012e94       $SG32931                   0000000180092e94     c2_wwtp3.obj
 0003:00012e9c       $SG32933                   0000000180092e9c     c2_wwtp3.obj
 0003:00012ea0       $SG32934                   0000000180092ea0     c2_wwtp3.obj
 0003:00012ea4       $SG32935                   0000000180092ea4     c2_wwtp3.obj
 0003:00012ea8       $SG32936                   0000000180092ea8     c2_wwtp3.obj
 0003:00012eb0       $SG32937                   0000000180092eb0     c2_wwtp3.obj
 0003:00012ebc       $SG32938                   0000000180092ebc     c2_wwtp3.obj
 0003:00012ec4       $SG32942                   0000000180092ec4     c2_wwtp3.obj
 0003:00012ec8       $SG32943                   0000000180092ec8     c2_wwtp3.obj
 0003:00012ecc       ?c2_b_cv@?1??c2_h_strcmp@@9@9 0000000180092ecc     c2_wwtp3.obj
 0003:00012ed4       $SG33068                   0000000180092ed4     c2_wwtp3.obj
 0003:00012ed8       $SG32944                   0000000180092ed8     c2_wwtp3.obj
 0003:00012ee0       $SG32945                   0000000180092ee0     c2_wwtp3.obj
 0003:00012eec       $SG32946                   0000000180092eec     c2_wwtp3.obj
 0003:00012ef4       $SG33069                   0000000180092ef4     c2_wwtp3.obj
 0003:00012ef8       $SG33070                   0000000180092ef8     c2_wwtp3.obj
 0003:00012efc       $SG33075                   0000000180092efc     c2_wwtp3.obj
 0003:00012f00       $SG33071                   0000000180092f00     c2_wwtp3.obj
 0003:00012f08       $SG33072                   0000000180092f08     c2_wwtp3.obj
 0003:00012f14       $SG33073                   0000000180092f14     c2_wwtp3.obj
 0003:00012f1c       $SG33076                   0000000180092f1c     c2_wwtp3.obj
 0003:00012f20       $SG33077                   0000000180092f20     c2_wwtp3.obj
 0003:00012f24       $SG33082                   0000000180092f24     c2_wwtp3.obj
 0003:00012f28       $SG33078                   0000000180092f28     c2_wwtp3.obj
 0003:00012f30       $SG33079                   0000000180092f30     c2_wwtp3.obj
 0003:00012f3c       $SG33080                   0000000180092f3c     c2_wwtp3.obj
 0003:00012f44       $SG33083                   0000000180092f44     c2_wwtp3.obj
 0003:00012f48       $SG33084                   0000000180092f48     c2_wwtp3.obj
 0003:00012f4c       $SG33089                   0000000180092f4c     c2_wwtp3.obj
 0003:00012f50       $SG33085                   0000000180092f50     c2_wwtp3.obj
 0003:00012f58       $SG33086                   0000000180092f58     c2_wwtp3.obj
 0003:00012f64       $SG33087                   0000000180092f64     c2_wwtp3.obj
 0003:00012f6c       $SG33090                   0000000180092f6c     c2_wwtp3.obj
 0003:00012f70       $SG33091                   0000000180092f70     c2_wwtp3.obj
 0003:00012f74       $SG33570                   0000000180092f74     c2_wwtp3.obj
 0003:00012f78       $SG33092                   0000000180092f78     c2_wwtp3.obj
 0003:00012f80       $SG33093                   0000000180092f80     c2_wwtp3.obj
 0003:00012f8c       $SG33094                   0000000180092f8c     c2_wwtp3.obj
 0003:00012f94       $SG33571                   0000000180092f94     c2_wwtp3.obj
 0003:00012f98       ?c2_b_cv15@?1??c2_Modbus_getReadResponse@@9@9 0000000180092f98     c2_wwtp3.obj
 0003:00012fc8       ?c2_b_cv@?1??c2_Modbus_getReadResponse@@9@9 0000000180092fc8     c2_wwtp3.obj
 0003:00012ff0       ?c2_b_cv1@?1??c2_Modbus_getReadResponse@@9@9 0000000180092ff0     c2_wwtp3.obj
 0003:00013018       ?c2_b_cv17@?1??c2_Modbus_getReadResponse@@9@9 0000000180093018     c2_wwtp3.obj
 0003:00013040       ?c2_b_cv10@?1??c2_Modbus_getReadResponse@@9@9 0000000180093040     c2_wwtp3.obj
 0003:00013068       ?c2_b_cv11@?1??c2_Modbus_getReadResponse@@9@9 0000000180093068     c2_wwtp3.obj
 0003:00013090       ?c2_b_cv14@?1??c2_Modbus_getReadResponse@@9@9 0000000180093090     c2_wwtp3.obj
 0003:000130b4       $SG33572                   00000001800930b4     c2_wwtp3.obj
 0003:000130b8       ?c2_b_cv7@?1??c2_Modbus_getReadResponse@@9@9 00000001800930b8     c2_wwtp3.obj
 0003:000130d8       ?c2_b_cv12@?1??c2_Modbus_getReadResponse@@9@9 00000001800930d8     c2_wwtp3.obj
 0003:000130f8       ?c2_b_cv13@?1??c2_Modbus_getReadResponse@@9@9 00000001800930f8     c2_wwtp3.obj
 0003:00013118       ?c2_b_cv8@?1??c2_Modbus_getReadResponse@@9@9 0000000180093118     c2_wwtp3.obj
 0003:00013138       ?c2_b_cv9@?1??c2_Modbus_getReadResponse@@9@9 0000000180093138     c2_wwtp3.obj
 0003:00013158       ?c2_b_cv6@?1??c2_Modbus_getReadResponse@@9@9 0000000180093158     c2_wwtp3.obj
 0003:00013178       ?c2_b_cv2@?1??c2_Modbus_getReadResponse@@9@9 0000000180093178     c2_wwtp3.obj
 0003:00013194       $SG33573                   0000000180093194     c2_wwtp3.obj
 0003:00013198       ?c2_b_cv3@?1??c2_Modbus_getReadResponse@@9@9 0000000180093198     c2_wwtp3.obj
 0003:000131b0       ?c2_b_cv16@?1??c2_Modbus_getReadResponse@@9@9 00000001800931b0     c2_wwtp3.obj
 0003:000131c8       ?c2_b_cv4@?1??c2_Modbus_getReadResponse@@9@9 00000001800931c8     c2_wwtp3.obj
 0003:000131d0       ?c2_b_cv5@?1??c2_Modbus_getReadResponse@@9@9 00000001800931d0     c2_wwtp3.obj
 0003:000131d8       ?c2_cv18@?1??c2_Modbus_getReadResponse@@9@9 00000001800931d8     c2_wwtp3.obj
 0003:000131e0       $SG33558                   00000001800931e0     c2_wwtp3.obj
 0003:000131f8       $SG33560                   00000001800931f8     c2_wwtp3.obj
 0003:00013200       $SG33574                   0000000180093200     c2_wwtp3.obj
 0003:00013208       $SG33575                   0000000180093208     c2_wwtp3.obj
 0003:00013214       $SG33576                   0000000180093214     c2_wwtp3.obj
 0003:0001321c       $SG33591                   000000018009321c     c2_wwtp3.obj
 0003:00013220       $SG33592                   0000000180093220     c2_wwtp3.obj
 0003:00013224       $SG33600                   0000000180093224     c2_wwtp3.obj
 0003:00013228       $SG33593                   0000000180093228     c2_wwtp3.obj
 0003:00013230       $SG33594                   0000000180093230     c2_wwtp3.obj
 0003:0001323c       $SG33595                   000000018009323c     c2_wwtp3.obj
 0003:00013244       $SG33601                   0000000180093244     c2_wwtp3.obj
 0003:00013248       $SG33602                   0000000180093248     c2_wwtp3.obj
 0003:00013250       $SG33603                   0000000180093250     c2_wwtp3.obj
 0003:0001325c       $SG33604                   000000018009325c     c2_wwtp3.obj
 0003:00013264       $SG33605                   0000000180093264     c2_wwtp3.obj
 0003:00013268       $SG33606                   0000000180093268     c2_wwtp3.obj
 0003:0001326c       $SG33607                   000000018009326c     c2_wwtp3.obj
 0003:00013270       $SG33608                   0000000180093270     c2_wwtp3.obj
 0003:00013278       $SG33609                   0000000180093278     c2_wwtp3.obj
 0003:00013284       $SG33610                   0000000180093284     c2_wwtp3.obj
 0003:0001328c       $SG33614                   000000018009328c     c2_wwtp3.obj
 0003:00013290       $SG33615                   0000000180093290     c2_wwtp3.obj
 0003:00013294       $SG33619                   0000000180093294     c2_wwtp3.obj
 0003:00013298       $SG33616                   0000000180093298     c2_wwtp3.obj
 0003:000132a0       $SG33617                   00000001800932a0     c2_wwtp3.obj
 0003:000132ac       $SG33618                   00000001800932ac     c2_wwtp3.obj
 0003:000132b4       $SG33620                   00000001800932b4     c2_wwtp3.obj
 0003:000132b8       $SG33621                   00000001800932b8     c2_wwtp3.obj
 0003:000132c0       $SG33622                   00000001800932c0     c2_wwtp3.obj
 0003:000132cc       $SG33623                   00000001800932cc     c2_wwtp3.obj
 0003:000132d4       $SG33625                   00000001800932d4     c2_wwtp3.obj
 0003:000132d8       $SG33626                   00000001800932d8     c2_wwtp3.obj
 0003:000132dc       $SG33633                   00000001800932dc     c2_wwtp3.obj
 0003:000132e0       $SG33627                   00000001800932e0     c2_wwtp3.obj
 0003:000132e8       $SG33628                   00000001800932e8     c2_wwtp3.obj
 0003:000132f4       $SG33629                   00000001800932f4     c2_wwtp3.obj
 0003:000132fc       $SG33634                   00000001800932fc     c2_wwtp3.obj
 0003:00013300       $SG33635                   0000000180093300     c2_wwtp3.obj
 0003:00013308       $SG33636                   0000000180093308     c2_wwtp3.obj
 0003:00013314       $SG33637                   0000000180093314     c2_wwtp3.obj
 0003:0001331c       $SG33638                   000000018009331c     c2_wwtp3.obj
 0003:00013320       $SG33639                   0000000180093320     c2_wwtp3.obj
 0003:00013324       $SG33644                   0000000180093324     c2_wwtp3.obj
 0003:00013328       $SG33640                   0000000180093328     c2_wwtp3.obj
 0003:00013330       $SG33641                   0000000180093330     c2_wwtp3.obj
 0003:0001333c       $SG33642                   000000018009333c     c2_wwtp3.obj
 0003:00013344       $SG33645                   0000000180093344     c2_wwtp3.obj
 0003:00013348       $SG33646                   0000000180093348     c2_wwtp3.obj
 0003:00013350       $SG33647                   0000000180093350     c2_wwtp3.obj
 0003:0001335c       $SG33648                   000000018009335c     c2_wwtp3.obj
 0003:00013364       $SG33650                   0000000180093364     c2_wwtp3.obj
 0003:00013368       $SG33651                   0000000180093368     c2_wwtp3.obj
 0003:0001336c       $SG33652                   000000018009336c     c2_wwtp3.obj
 0003:00013370       $SG33653                   0000000180093370     c2_wwtp3.obj
 0003:00013378       $SG33654                   0000000180093378     c2_wwtp3.obj
 0003:00013384       $SG33655                   0000000180093384     c2_wwtp3.obj
 0003:0001338c       $SG33657                   000000018009338c     c2_wwtp3.obj
 0003:00013390       $SG33658                   0000000180093390     c2_wwtp3.obj
 0003:00013394       $SG33670                   0000000180093394     c2_wwtp3.obj
 0003:00013398       $SG33659                   0000000180093398     c2_wwtp3.obj
 0003:000133a0       $SG33660                   00000001800933a0     c2_wwtp3.obj
 0003:000133ac       $SG33661                   00000001800933ac     c2_wwtp3.obj
 0003:000133b4       $SG33671                   00000001800933b4     c2_wwtp3.obj
 0003:000133b8       $SG33672                   00000001800933b8     c2_wwtp3.obj
 0003:000133bc       $SG33682                   00000001800933bc     c2_wwtp3.obj
 0003:000133c0       $SG33673                   00000001800933c0     c2_wwtp3.obj
 0003:000133c8       $SG33674                   00000001800933c8     c2_wwtp3.obj
 0003:000133d4       $SG33675                   00000001800933d4     c2_wwtp3.obj
 0003:000133dc       $SG33683                   00000001800933dc     c2_wwtp3.obj
 0003:000133e0       $SG33684                   00000001800933e0     c2_wwtp3.obj
 0003:000133e4       $SG33685                   00000001800933e4     c2_wwtp3.obj
 0003:000133e8       $SG33686                   00000001800933e8     c2_wwtp3.obj
 0003:000133f0       $SG33687                   00000001800933f0     c2_wwtp3.obj
 0003:000133fc       $SG33688                   00000001800933fc     c2_wwtp3.obj
 0003:00013404       $SG33702                   0000000180093404     c2_wwtp3.obj
 0003:00013408       $SG33703                   0000000180093408     c2_wwtp3.obj
 0003:0001340c       $SG33705                   000000018009340c     c2_wwtp3.obj
 0003:00013410       $SG33704                   0000000180093410     c2_wwtp3.obj
 0003:00013428       $SG33706                   0000000180093428     c2_wwtp3.obj
 0003:00013440       $SG33707                   0000000180093440     c2_wwtp3.obj
 0003:00013448       $SG33708                   0000000180093448     c2_wwtp3.obj
 0003:00013454       $SG33709                   0000000180093454     c2_wwtp3.obj
 0003:0001345c       $SG33711                   000000018009345c     c2_wwtp3.obj
 0003:00013460       $SG33712                   0000000180093460     c2_wwtp3.obj
 0003:00013464       ?c2_b_cv@?1??c2_AsyncIOTransportChannel_get_StructData@@9@9 0000000180093464     c2_wwtp3.obj
 0003:0001346c       $SG33885                   000000018009346c     c2_wwtp3.obj
 0003:00013470       $SG33886                   0000000180093470     c2_wwtp3.obj
 0003:00013474       $SG33887                   0000000180093474     c2_wwtp3.obj
 0003:00013478       $SG33888                   0000000180093478     c2_wwtp3.obj
 0003:00013480       $SG33889                   0000000180093480     c2_wwtp3.obj
 0003:0001348c       $SG33890                   000000018009348c     c2_wwtp3.obj
 0003:00013494       $SG33892                   0000000180093494     c2_wwtp3.obj
 0003:00013498       $SG33893                   0000000180093498     c2_wwtp3.obj
 0003:0001349c       $SG33894                   000000018009349c     c2_wwtp3.obj
 0003:000134a0       $SG33895                   00000001800934a0     c2_wwtp3.obj
 0003:000134a8       $SG33896                   00000001800934a8     c2_wwtp3.obj
 0003:000134b4       $SG33897                   00000001800934b4     c2_wwtp3.obj
 0003:000134bc       $SG33899                   00000001800934bc     c2_wwtp3.obj
 0003:000134c0       $SG33900                   00000001800934c0     c2_wwtp3.obj
 0003:000134c4       $SG33901                   00000001800934c4     c2_wwtp3.obj
 0003:000134c8       $SG33902                   00000001800934c8     c2_wwtp3.obj
 0003:000134d0       $SG33903                   00000001800934d0     c2_wwtp3.obj
 0003:000134dc       $SG33904                   00000001800934dc     c2_wwtp3.obj
 0003:000134e4       $SG33906                   00000001800934e4     c2_wwtp3.obj
 0003:000134e8       $SG33907                   00000001800934e8     c2_wwtp3.obj
 0003:000134ec       $SG33908                   00000001800934ec     c2_wwtp3.obj
 0003:000134f0       $SG33909                   00000001800934f0     c2_wwtp3.obj
 0003:000134f8       $SG33910                   00000001800934f8     c2_wwtp3.obj
 0003:00013504       $SG33911                   0000000180093504     c2_wwtp3.obj
 0003:0001350c       $SG34052                   000000018009350c     c2_wwtp3.obj
 0003:00013510       ?c2_b_cv2@?1??c2_AsyncIOTransportChannel_readRaw@@9@9 0000000180093510     c2_wwtp3.obj
 0003:00013538       ?c2_b_cv@?1??c2_AsyncIOTransportChannel_readRaw@@9@9 0000000180093538     c2_wwtp3.obj
 0003:00013558       ?c2_b_cv1@?1??c2_AsyncIOTransportChannel_readRaw@@9@9 0000000180093558     c2_wwtp3.obj
 0003:00013560       $SG34053                   0000000180093560     c2_wwtp3.obj
 0003:00013564       $SG34058                   0000000180093564     c2_wwtp3.obj
 0003:00013568       $SG34059                   0000000180093568     c2_wwtp3.obj
 0003:0001356c       $SG34069                   000000018009356c     c2_wwtp3.obj
 0003:00013570       $SG34060                   0000000180093570     c2_wwtp3.obj
 0003:00013578       $SG34061                   0000000180093578     c2_wwtp3.obj
 0003:00013584       $SG34062                   0000000180093584     c2_wwtp3.obj
 0003:0001358c       $SG34070                   000000018009358c     c2_wwtp3.obj
 0003:00013590       $SG34071                   0000000180093590     c2_wwtp3.obj
 0003:00013598       $SG34072                   0000000180093598     c2_wwtp3.obj
 0003:000135a4       $SG34073                   00000001800935a4     c2_wwtp3.obj
 0003:000135ac       $SG34075                   00000001800935ac     c2_wwtp3.obj
 0003:000135b0       $SG34076                   00000001800935b0     c2_wwtp3.obj
 0003:000135b4       $SG34401                   00000001800935b4     c2_wwtp3.obj
 0003:000135b8       $SG34077                   00000001800935b8     c2_wwtp3.obj
 0003:000135c0       $SG34078                   00000001800935c0     c2_wwtp3.obj
 0003:000135cc       $SG34079                   00000001800935cc     c2_wwtp3.obj
 0003:000135d4       $SG34402                   00000001800935d4     c2_wwtp3.obj
 0003:000135d8       ?c2_b_cv@?1??c2_BufferChannel_readRaw@@9@9 00000001800935d8     c2_wwtp3.obj
 0003:00013614       $SG34405                   0000000180093614     c2_wwtp3.obj
 0003:0001361c       $SG34425                   000000018009361c     c2_wwtp3.obj
 0003:00013620       ?c2_b_cv1@?1??c2_BufferChannel_readRaw@@9@9 0000000180093620     c2_wwtp3.obj
 0003:00013648       ?c2_b_cv2@?1??c2_BufferChannel_readRaw@@9@9 0000000180093648     c2_wwtp3.obj
 0003:00013670       $SG34403                   0000000180093670     c2_wwtp3.obj
 0003:00013678       $SG34404                   0000000180093678     c2_wwtp3.obj
 0003:00013684       $SG34426                   0000000180093684     c2_wwtp3.obj
 0003:00013688       $SG34427                   0000000180093688     c2_wwtp3.obj
 0003:00013690       $SG34428                   0000000180093690     c2_wwtp3.obj
 0003:0001369c       $SG34429                   000000018009369c     c2_wwtp3.obj
 0003:000136a4       $SG34435                   00000001800936a4     c2_wwtp3.obj
 0003:000136a8       $SG34436                   00000001800936a8     c2_wwtp3.obj
 0003:000136ac       $SG34462                   00000001800936ac     c2_wwtp3.obj
 0003:000136b0       $SG34437                   00000001800936b0     c2_wwtp3.obj
 0003:000136b8       $SG34438                   00000001800936b8     c2_wwtp3.obj
 0003:000136c4       $SG34439                   00000001800936c4     c2_wwtp3.obj
 0003:000136cc       $SG34463                   00000001800936cc     c2_wwtp3.obj
 0003:000136d0       $SG34464                   00000001800936d0     c2_wwtp3.obj
 0003:000136d8       $SG34465                   00000001800936d8     c2_wwtp3.obj
 0003:000136e4       $SG34466                   00000001800936e4     c2_wwtp3.obj
 0003:000136ec       $SG34472                   00000001800936ec     c2_wwtp3.obj
 0003:000136f0       $SG34473                   00000001800936f0     c2_wwtp3.obj
 0003:000136f4       $SG34628                   00000001800936f4     c2_wwtp3.obj
 0003:000136f8       $SG34474                   00000001800936f8     c2_wwtp3.obj
 0003:00013700       $SG34475                   0000000180093700     c2_wwtp3.obj
 0003:0001370c       $SG34476                   000000018009370c     c2_wwtp3.obj
 0003:00013714       $SG34629                   0000000180093714     c2_wwtp3.obj
 0003:00013718       $SG34630                   0000000180093718     c2_wwtp3.obj
 0003:00013720       $SG34631                   0000000180093720     c2_wwtp3.obj
 0003:0001372c       $SG34632                   000000018009372c     c2_wwtp3.obj
 0003:00013734       $SG34757                   0000000180093734     c2_wwtp3.obj
 0003:00013738       ?c2_iv@?1??c2_InputStream_read@@9@9 0000000180093738     c2_wwtp3.obj
 0003:00013740       $SG34758                   0000000180093740     c2_wwtp3.obj
 0003:00013744       $SG34767                   0000000180093744     c2_wwtp3.obj
 0003:00013748       $SG34759                   0000000180093748     c2_wwtp3.obj
 0003:00013750       $SG34760                   0000000180093750     c2_wwtp3.obj
 0003:0001375c       $SG34761                   000000018009375c     c2_wwtp3.obj
 0003:00013764       $SG34768                   0000000180093764     c2_wwtp3.obj
 0003:00013768       $SG34769                   0000000180093768     c2_wwtp3.obj
 0003:00013770       $SG34770                   0000000180093770     c2_wwtp3.obj
 0003:0001377c       $SG34771                   000000018009377c     c2_wwtp3.obj
 0003:00013784       ?c2_b_cv1@?1??c2_b_Stream_wait@@9@9 0000000180093784     c2_wwtp3.obj
 0003:0001378c       ?c2_b_cv2@?1??c2_b_Stream_wait@@9@9 000000018009378c     c2_wwtp3.obj
 0003:00013794       ?c2_b_cv3@?1??c2_b_Stream_wait@@9@9 0000000180093794     c2_wwtp3.obj
 0003:0001379c       ?c2_b_cv@?1??c2_b_Stream_wait@@9@9 000000018009379c     c2_wwtp3.obj
 0003:000137a0       $SG35082                   00000001800937a0     c2_wwtp3.obj
 0003:000137a4       $SG35083                   00000001800937a4     c2_wwtp3.obj
 0003:000137a8       $SG35084                   00000001800937a8     c2_wwtp3.obj
 0003:000137ac       $SG35085                   00000001800937ac     c2_wwtp3.obj
 0003:000137b0       ?c2_b_cv@?1??c2_InputStream_readPackets@@9@9 00000001800937b0     c2_wwtp3.obj
 0003:000137c8       $SG35347                   00000001800937c8     c2_wwtp3.obj
 0003:000137cc       $SG35348                   00000001800937cc     c2_wwtp3.obj
 0003:000137d0       $SG35349                   00000001800937d0     c2_wwtp3.obj
 0003:000137d4       $SG35350                   00000001800937d4     c2_wwtp3.obj
 0003:000137d8       $SG35351                   00000001800937d8     c2_wwtp3.obj
 0003:000137e0       $SG35352                   00000001800937e0     c2_wwtp3.obj
 0003:000137ec       $SG35353                   00000001800937ec     c2_wwtp3.obj
 0003:000137f4       $SG35357                   00000001800937f4     c2_wwtp3.obj
 0003:000137f8       $SG35358                   00000001800937f8     c2_wwtp3.obj
 0003:000137fc       $SG35365                   00000001800937fc     c2_wwtp3.obj
 0003:00013800       $SG35359                   0000000180093800     c2_wwtp3.obj
 0003:00013808       $SG35360                   0000000180093808     c2_wwtp3.obj
 0003:00013814       $SG35361                   0000000180093814     c2_wwtp3.obj
 0003:0001381c       $SG35366                   000000018009381c     c2_wwtp3.obj
 0003:00013824       $SG35386                   0000000180093824     c2_wwtp3.obj
 0003:0001382c       $SG35477                   000000018009382c     c2_wwtp3.obj
 0003:00013830       ?c2_b_cv@?1??c2_cat@@9@9   0000000180093830     c2_wwtp3.obj
 0003:00013858       $SG35478                   0000000180093858     c2_wwtp3.obj
 0003:0001385c       $SG35487                   000000018009385c     c2_wwtp3.obj
 0003:00013860       $SG35479                   0000000180093860     c2_wwtp3.obj
 0003:00013868       $SG35480                   0000000180093868     c2_wwtp3.obj
 0003:00013874       $SG35481                   0000000180093874     c2_wwtp3.obj
 0003:0001387c       $SG35488                   000000018009387c     c2_wwtp3.obj
 0003:00013880       $SG35489                   0000000180093880     c2_wwtp3.obj
 0003:00013888       $SG35490                   0000000180093888     c2_wwtp3.obj
 0003:00013894       $SG35491                   0000000180093894     c2_wwtp3.obj
 0003:0001389c       $SG35516                   000000018009389c     c2_wwtp3.obj
 0003:000138a0       ?c2_b_cv@?1??c2_check_forloop_overflow_error@@9@9 00000001800938a0     c2_wwtp3.obj
 0003:000138c4       ?c2_b_cv1@?1??c2_check_forloop_overflow_error@@9@9 00000001800938c4     c2_wwtp3.obj
 0003:000138cc       $SG35517                   00000001800938cc     c2_wwtp3.obj
 0003:000138d0       $SG35518                   00000001800938d0     c2_wwtp3.obj
 0003:000138d4       $SG35656                   00000001800938d4     c2_wwtp3.obj
 0003:000138d8       $SG35519                   00000001800938d8     c2_wwtp3.obj
 0003:000138e0       $SG35520                   00000001800938e0     c2_wwtp3.obj
 0003:000138ec       $SG35521                   00000001800938ec     c2_wwtp3.obj
 0003:000138f4       $SG35657                   00000001800938f4     c2_wwtp3.obj
 0003:000138f8       ?c2_iv@?1??c2_b_InputStream_read@@9@9 00000001800938f8     c2_wwtp3.obj
 0003:00013900       $SG35658                   0000000180093900     c2_wwtp3.obj
 0003:00013908       $SG35659                   0000000180093908     c2_wwtp3.obj
 0003:00013914       $SG35660                   0000000180093914     c2_wwtp3.obj
 0003:0001391c       $SG35666                   000000018009391c     c2_wwtp3.obj
 0003:00013920       $SG35667                   0000000180093920     c2_wwtp3.obj
 0003:00013924       ?c2_b_cv2@?1??c2_BufferChannel_write@@9@9 0000000180093924     c2_wwtp3.obj
 0003:00013928       $SG35668                   0000000180093928     c2_wwtp3.obj
 0003:00013930       $SG35669                   0000000180093930     c2_wwtp3.obj
 0003:0001393c       $SG35670                   000000018009393c     c2_wwtp3.obj
 0003:00013944       ?c2_b_cv5@?1??c2_BufferChannel_write@@9@9 0000000180093944     c2_wwtp3.obj
 0003:00013948       ?c2_b_cv1@?1??c2_BufferChannel_write@@9@9 0000000180093948     c2_wwtp3.obj
 0003:00013978       ?c2_b_cv4@?1??c2_BufferChannel_write@@9@9 0000000180093978     c2_wwtp3.obj
 0003:000139a8       ?c2_b_cv@?1??c2_BufferChannel_write@@9@9 00000001800939a8     c2_wwtp3.obj
 0003:000139d0       ?c2_b_cv3@?1??c2_BufferChannel_write@@9@9 00000001800939d0     c2_wwtp3.obj
 0003:000139f4       $SG35830                   00000001800939f4     c2_wwtp3.obj
 0003:000139f8       ?c2_b_cv6@?1??c2_BufferChannel_write@@9@9 00000001800939f8     c2_wwtp3.obj
 0003:00013a1c       $SG35831                   0000000180093a1c     c2_wwtp3.obj
 0003:00013a20       $SG35832                   0000000180093a20     c2_wwtp3.obj
 0003:00013a24       $SG35837                   0000000180093a24     c2_wwtp3.obj
 0003:00013a28       $SG35833                   0000000180093a28     c2_wwtp3.obj
 0003:00013a30       $SG35834                   0000000180093a30     c2_wwtp3.obj
 0003:00013a3c       $SG35835                   0000000180093a3c     c2_wwtp3.obj
 0003:00013a44       $SG35838                   0000000180093a44     c2_wwtp3.obj
 0003:00013a48       $SG35839                   0000000180093a48     c2_wwtp3.obj
 0003:00013a4c       $SG35859                   0000000180093a4c     c2_wwtp3.obj
 0003:00013a50       $SG35840                   0000000180093a50     c2_wwtp3.obj
 0003:00013a58       $SG35841                   0000000180093a58     c2_wwtp3.obj
 0003:00013a64       $SG35842                   0000000180093a64     c2_wwtp3.obj
 0003:00013a6c       $SG35852                   0000000180093a6c     c2_wwtp3.obj
 0003:00013a74       $SG35860                   0000000180093a74     c2_wwtp3.obj
 0003:00013a78       $SG35861                   0000000180093a78     c2_wwtp3.obj
 0003:00013a80       $SG35862                   0000000180093a80     c2_wwtp3.obj
 0003:00013a8c       $SG35863                   0000000180093a8c     c2_wwtp3.obj
 0003:00013a94       ?c2_b_cv@?1??c2_i_strcmp@@9@9 0000000180093a94     c2_wwtp3.obj
 0003:00013a9c       $SG35976                   0000000180093a9c     c2_wwtp3.obj
 0003:00013aa0       $SG35977                   0000000180093aa0     c2_wwtp3.obj
 0003:00013aa4       $SG35978                   0000000180093aa4     c2_wwtp3.obj
 0003:00013aa8       $SG35979                   0000000180093aa8     c2_wwtp3.obj
 0003:00013ab0       $SG35980                   0000000180093ab0     c2_wwtp3.obj
 0003:00013abc       $SG35981                   0000000180093abc     c2_wwtp3.obj
 0003:00013ac4       $SG35983                   0000000180093ac4     c2_wwtp3.obj
 0003:00013ac8       $SG35984                   0000000180093ac8     c2_wwtp3.obj
 0003:00013acc       $SG35985                   0000000180093acc     c2_wwtp3.obj
 0003:00013ad0       $SG35986                   0000000180093ad0     c2_wwtp3.obj
 0003:00013ad8       $SG35987                   0000000180093ad8     c2_wwtp3.obj
 0003:00013ae4       $SG35988                   0000000180093ae4     c2_wwtp3.obj
 0003:00013aec       $SG35990                   0000000180093aec     c2_wwtp3.obj
 0003:00013af0       $SG35991                   0000000180093af0     c2_wwtp3.obj
 0003:00013af4       $SG35992                   0000000180093af4     c2_wwtp3.obj
 0003:00013af8       $SG35993                   0000000180093af8     c2_wwtp3.obj
 0003:00013b00       $SG35994                   0000000180093b00     c2_wwtp3.obj
 0003:00013b0c       $SG35995                   0000000180093b0c     c2_wwtp3.obj
 0003:00013b14       $SG35997                   0000000180093b14     c2_wwtp3.obj
 0003:00013b18       $SG35998                   0000000180093b18     c2_wwtp3.obj
 0003:00013b1c       $SG35999                   0000000180093b1c     c2_wwtp3.obj
 0003:00013b20       $SG36000                   0000000180093b20     c2_wwtp3.obj
 0003:00013b28       $SG36001                   0000000180093b28     c2_wwtp3.obj
 0003:00013b34       $SG36002                   0000000180093b34     c2_wwtp3.obj
 0003:00013b3c       $SG36043                   0000000180093b3c     c2_wwtp3.obj
 0003:00013b40       $SG36044                   0000000180093b40     c2_wwtp3.obj
 0003:00013b44       $SG36165                   0000000180093b44     c2_wwtp3.obj
 0003:00013b48       $SG36045                   0000000180093b48     c2_wwtp3.obj
 0003:00013b50       $SG36046                   0000000180093b50     c2_wwtp3.obj
 0003:00013b5c       $SG36047                   0000000180093b5c     c2_wwtp3.obj
 0003:00013b64       $SG36166                   0000000180093b64     c2_wwtp3.obj
 0003:00013b68       ?c2_iv@?1??c2_Modbus_isReadFunction@@9@9 0000000180093b68     c2_wwtp3.obj
 0003:00013b70       $SG36167                   0000000180093b70     c2_wwtp3.obj
 0003:00013b78       $SG36168                   0000000180093b78     c2_wwtp3.obj
 0003:00013b84       $SG36169                   0000000180093b84     c2_wwtp3.obj
 0003:00013b8c       $SG36463                   0000000180093b8c     c2_wwtp3.obj
 0003:00013b90       ?c2_b_cv1@?1??c2_DataConverter_convertReadValues@@9@9 0000000180093b90     c2_wwtp3.obj
 0003:00013bb8       ?c2_b_cv@?1??c2_DataConverter_convertReadValues@@9@9 0000000180093bb8     c2_wwtp3.obj
 0003:00013be0       $SG36464                   0000000180093be0     c2_wwtp3.obj
 0003:00013be4       $SG36465                   0000000180093be4     c2_wwtp3.obj
 0003:00013be8       $SG36466                   0000000180093be8     c2_wwtp3.obj
 0003:00013bec       $SG36472                   0000000180093bec     c2_wwtp3.obj
 0003:00013bf0       $SG36467                   0000000180093bf0     c2_wwtp3.obj
 0003:00013bf8       $SG36468                   0000000180093bf8     c2_wwtp3.obj
 0003:00013c04       $SG36469                   0000000180093c04     c2_wwtp3.obj
 0003:00013c0c       $SG36473                   0000000180093c0c     c2_wwtp3.obj
 0003:00013c10       $SG36474                   0000000180093c10     c2_wwtp3.obj
 0003:00013c18       $SG36475                   0000000180093c18     c2_wwtp3.obj
 0003:00013c24       $SG36476                   0000000180093c24     c2_wwtp3.obj
 0003:00013c2c       $SG36478                   0000000180093c2c     c2_wwtp3.obj
 0003:00013c30       $SG36479                   0000000180093c30     c2_wwtp3.obj
 0003:00013c34       $SG36484                   0000000180093c34     c2_wwtp3.obj
 0003:00013c38       $SG36480                   0000000180093c38     c2_wwtp3.obj
 0003:00013c40       $SG36481                   0000000180093c40     c2_wwtp3.obj
 0003:00013c4c       $SG36482                   0000000180093c4c     c2_wwtp3.obj
 0003:00013c54       $SG36485                   0000000180093c54     c2_wwtp3.obj
 0003:00013c58       $SG36486                   0000000180093c58     c2_wwtp3.obj
 0003:00013c60       $SG36487                   0000000180093c60     c2_wwtp3.obj
 0003:00013c6c       $SG36488                   0000000180093c6c     c2_wwtp3.obj
 0003:00013c74       $SG36502                   0000000180093c74     c2_wwtp3.obj
 0003:00013c78       $SG36503                   0000000180093c78     c2_wwtp3.obj
 0003:00013c7c       $SG36504                   0000000180093c7c     c2_wwtp3.obj
 0003:00013c80       $SG36505                   0000000180093c80     c2_wwtp3.obj
 0003:00013c88       $SG36506                   0000000180093c88     c2_wwtp3.obj
 0003:00013c94       $SG36507                   0000000180093c94     c2_wwtp3.obj
 0003:00013c9c       $SG36509                   0000000180093c9c     c2_wwtp3.obj
 0003:00013ca0       $SG36510                   0000000180093ca0     c2_wwtp3.obj
 0003:00013ca4       $SG36511                   0000000180093ca4     c2_wwtp3.obj
 0003:00013ca8       $SG36512                   0000000180093ca8     c2_wwtp3.obj
 0003:00013cb0       $SG36513                   0000000180093cb0     c2_wwtp3.obj
 0003:00013cbc       $SG36514                   0000000180093cbc     c2_wwtp3.obj
 0003:00013cc4       $SG36516                   0000000180093cc4     c2_wwtp3.obj
 0003:00013cc8       $SG36517                   0000000180093cc8     c2_wwtp3.obj
 0003:00013ccc       $SG36518                   0000000180093ccc     c2_wwtp3.obj
 0003:00013cd0       $SG36519                   0000000180093cd0     c2_wwtp3.obj
 0003:00013cd8       $SG36520                   0000000180093cd8     c2_wwtp3.obj
 0003:00013ce4       $SG36521                   0000000180093ce4     c2_wwtp3.obj
 0003:00013cec       $SG36523                   0000000180093cec     c2_wwtp3.obj
 0003:00013cf0       $SG36524                   0000000180093cf0     c2_wwtp3.obj
 0003:00013cf4       $SG36525                   0000000180093cf4     c2_wwtp3.obj
 0003:00013cf8       $SG36526                   0000000180093cf8     c2_wwtp3.obj
 0003:00013d00       $SG36527                   0000000180093d00     c2_wwtp3.obj
 0003:00013d0c       $SG36528                   0000000180093d0c     c2_wwtp3.obj
 0003:00013d14       ?c2_b_cv@?1??c2_warning@@9@9 0000000180093d14     c2_wwtp3.obj
 0003:00013d1c       $SG36650                   0000000180093d1c     c2_wwtp3.obj
 0003:00013d20       ?c2_msgID@?1??c2_warning@@9@9 0000000180093d20     c2_wwtp3.obj
 0003:00013d48       ?c2_b_cv1@?1??c2_warning@@9@9 0000000180093d48     c2_wwtp3.obj
 0003:00013d50       $SG36651                   0000000180093d50     c2_wwtp3.obj
 0003:00013d54       $SG36652                   0000000180093d54     c2_wwtp3.obj
 0003:00013d58       $SG36738                   0000000180093d58     c2_wwtp3.obj
 0003:00013d68       ?c2_bv1@?1??c2_d_emlrt_marshallIn@@9@9 0000000180093d68     c2_wwtp3.obj
 0003:00013d6c       ?c2_bv1@?1??c2_f_emlrt_marshallIn@@9@9 0000000180093d6c     c2_wwtp3.obj
 0003:00013d70       $SG36922                   0000000180093d70     c2_wwtp3.obj
 0003:00013d78       $SG36924                   0000000180093d78     c2_wwtp3.obj
 0003:00013d80       $SG36926                   0000000180093d80     c2_wwtp3.obj
 0003:00013d88       $SG36928                   0000000180093d88     c2_wwtp3.obj
 0003:00013d90       $SG36945                   0000000180093d90     c2_wwtp3.obj
 0003:00013d98       $SG36958                   0000000180093d98     c2_wwtp3.obj
 0003:00013da0       $SG36971                   0000000180093da0     c2_wwtp3.obj
 0003:00013da4       $SG37094                   0000000180093da4     c2_wwtp3.obj
 0003:00013da8       $SG36986                   0000000180093da8     c2_wwtp3.obj
 0003:00013db4       $SG37012                   0000000180093db4     c2_wwtp3.obj
 0003:00013dc0       $SG36997                   0000000180093dc0     c2_wwtp3.obj
 0003:00013dd0       $SG37025                   0000000180093dd0     c2_wwtp3.obj
 0003:00013df4       $SG37040                   0000000180093df4     c2_wwtp3.obj
 0003:00013e00       $SG37053                   0000000180093e00     c2_wwtp3.obj
 0003:00013e24       $SG37068                   0000000180093e24     c2_wwtp3.obj
 0003:00013e30       $SG37081                   0000000180093e30     c2_wwtp3.obj
 0003:00013e58       $SG37109                   0000000180093e58     c2_wwtp3.obj
 0003:00013e68       $SG37120                   0000000180093e68     c2_wwtp3.obj
 0003:00013e74       $SG37135                   0000000180093e74     c2_wwtp3.obj
 0003:00013e80       $SG37148                   0000000180093e80     c2_wwtp3.obj
 0003:00013ea4       $SG37163                   0000000180093ea4     c2_wwtp3.obj
 0003:00013eb0       $SG37176                   0000000180093eb0     c2_wwtp3.obj
 0003:00013ed4       $SG37191                   0000000180093ed4     c2_wwtp3.obj
 0003:00013ee0       $SG37204                   0000000180093ee0     c2_wwtp3.obj
 0003:00013f08       $SG37215                   0000000180093f08     c2_wwtp3.obj
 0003:00013f30       $SG37227                   0000000180093f30     c2_wwtp3.obj
 0003:00013f38       $SG37242                   0000000180093f38     c2_wwtp3.obj
 0003:00013f40       $SG37254                   0000000180093f40     c2_wwtp3.obj
 0003:00013f48       $SG38249                   0000000180093f48     c2_wwtp3.obj
 0003:00013f78       $SG38250                   0000000180093f78     c2_wwtp3.obj
 0003:00013fb8       $SG38251                   0000000180093fb8     c2_wwtp3.obj
 0003:00013fe0       $SG38252                   0000000180093fe0     c2_wwtp3.obj
 0003:00014008       $SG38264                   0000000180094008     c2_wwtp3.obj
 0003:00014018       $SG38266                   0000000180094018     c2_wwtp3.obj
 0003:00014028       $SG38268                   0000000180094028     c2_wwtp3.obj
 0003:00014040       $SG38270                   0000000180094040     c2_wwtp3.obj
 0003:00014058       $SG38272                   0000000180094058     c2_wwtp3.obj
 0003:0001406c       $SG38273                   000000018009406c     c2_wwtp3.obj
 0003:00014078       $SG38274                   0000000180094078     c2_wwtp3.obj
 0003:00014080       $SG38277                   0000000180094080     c2_wwtp3.obj
 0003:00014088       $SG38290                   0000000180094088     c2_wwtp3.obj
 0003:00014098       $SG38292                   0000000180094098     c2_wwtp3.obj
 0003:000140a0       $SG38293                   00000001800940a0     c2_wwtp3.obj
 0003:00014188       $SG38438                   0000000180094188     c2_wwtp3.obj
 0003:00014198       $SG38439                   0000000180094198     c2_wwtp3.obj
 0003:000141b0       $SG38385                   00000001800941b0     c2_wwtp3.obj
 0003:00014200       $SG38387                   0000000180094200     c2_wwtp3.obj
 0003:00014250       $SG38389                   0000000180094250     c2_wwtp3.obj
 0003:000142a0       $SG38391                   00000001800942a0     c2_wwtp3.obj
 0003:000142f0       $SG38393                   00000001800942f0     c2_wwtp3.obj
 0003:00014340       $SG38395                   0000000180094340     c2_wwtp3.obj
 0003:00014390       $SG38397                   0000000180094390     c2_wwtp3.obj
 0003:000143e0       $SG38399                   00000001800943e0     c2_wwtp3.obj
 0003:00014430       $SG38401                   0000000180094430     c2_wwtp3.obj
 0003:00014480       $SG38403                   0000000180094480     c2_wwtp3.obj
 0003:000144d0       $SG38405                   00000001800944d0     c2_wwtp3.obj
 0003:00014520       $SG38407                   0000000180094520     c2_wwtp3.obj
 0003:00014570       $SG38409                   0000000180094570     c2_wwtp3.obj
 0003:000145c0       $SG38411                   00000001800945c0     c2_wwtp3.obj
 0003:00014610       $SG38413                   0000000180094610     c2_wwtp3.obj
 0003:00014660       $SG38415                   0000000180094660     c2_wwtp3.obj
 0003:000146b0       $SG38417                   00000001800946b0     c2_wwtp3.obj
 0003:00014700       $SG38419                   0000000180094700     c2_wwtp3.obj
 0003:00014750       $SG38421                   0000000180094750     c2_wwtp3.obj
 0003:000147a0       $SG38423                   00000001800947a0     c2_wwtp3.obj
 0003:000147f0       $SG38425                   00000001800947f0     c2_wwtp3.obj
 0003:00014810       $SG38461                   0000000180094810     c2_wwtp3.obj
 0003:00014840       $SG38476                   0000000180094840     c2_wwtp3.obj
 0003:000148a0       $SG26301                   00000001800948a0     c4_wwtp3.obj
 0003:000148b0       $SG26302                   00000001800948b0     c4_wwtp3.obj
 0003:00014908       $SG26304                   0000000180094908     c4_wwtp3.obj
 0003:00014918       $SG26307                   0000000180094918     c4_wwtp3.obj
 0003:00014930       $SG26305                   0000000180094930     c4_wwtp3.obj
 0003:00014988       $SG26310                   0000000180094988     c4_wwtp3.obj
 0003:00014998       $SG26316                   0000000180094998     c4_wwtp3.obj
 0003:000149a0       $SG26308                   00000001800949a0     c4_wwtp3.obj
 0003:00014a00       $SG26311                   0000000180094a00     c4_wwtp3.obj
 0003:00014a5c       $SG26319                   0000000180094a5c     c4_wwtp3.obj
 0003:00014a60       $SG26313                   0000000180094a60     c4_wwtp3.obj
 0003:00014a70       $SG26314                   0000000180094a70     c4_wwtp3.obj
 0003:00014ae0       $SG26317                   0000000180094ae0     c4_wwtp3.obj
 0003:00014b50       $SG26320                   0000000180094b50     c4_wwtp3.obj
 0003:00014bb8       $SG26322                   0000000180094bb8     c4_wwtp3.obj
 0003:00014bc0       $SG26323                   0000000180094bc0     c4_wwtp3.obj
 0003:00014c28       $SG26325                   0000000180094c28     c4_wwtp3.obj
 0003:00014c30       $SG26326                   0000000180094c30     c4_wwtp3.obj
 0003:00014c98       $SG26328                   0000000180094c98     c4_wwtp3.obj
 0003:00014ca0       $SG26329                   0000000180094ca0     c4_wwtp3.obj
 0003:00014d08       $SG26331                   0000000180094d08     c4_wwtp3.obj
 0003:00014d10       $SG26332                   0000000180094d10     c4_wwtp3.obj
 0003:00014d78       $SG26334                   0000000180094d78     c4_wwtp3.obj
 0003:00014d80       $SG26335                   0000000180094d80     c4_wwtp3.obj
 0003:00014de8       $SG26337                   0000000180094de8     c4_wwtp3.obj
 0003:00014df0       $SG26338                   0000000180094df0     c4_wwtp3.obj
 0003:00014e58       $SG26340                   0000000180094e58     c4_wwtp3.obj
 0003:00014e60       $SG26341                   0000000180094e60     c4_wwtp3.obj
 0003:00014ec8       $SG26343                   0000000180094ec8     c4_wwtp3.obj
 0003:00014ed0       $SG26344                   0000000180094ed0     c4_wwtp3.obj
 0003:00014f38       $SG26346                   0000000180094f38     c4_wwtp3.obj
 0003:00014f40       $SG26347                   0000000180094f40     c4_wwtp3.obj
 0003:00014fa8       $SG26349                   0000000180094fa8     c4_wwtp3.obj
 0003:00014fb0       $SG26350                   0000000180094fb0     c4_wwtp3.obj
 0003:00015018       $SG26352                   0000000180095018     c4_wwtp3.obj
 0003:00015020       $SG26353                   0000000180095020     c4_wwtp3.obj
 0003:00015088       $SG26355                   0000000180095088     c4_wwtp3.obj
 0003:00015090       $SG26356                   0000000180095090     c4_wwtp3.obj
 0003:000150f8       $SG26358                   00000001800950f8     c4_wwtp3.obj
 0003:00015100       $SG26359                   0000000180095100     c4_wwtp3.obj
 0003:00015168       $SG26361                   0000000180095168     c4_wwtp3.obj
 0003:00015170       $SG26362                   0000000180095170     c4_wwtp3.obj
 0003:000151d8       $SG26364                   00000001800951d8     c4_wwtp3.obj
 0003:000151e0       $SG26365                   00000001800951e0     c4_wwtp3.obj
 0003:00015248       $SG26367                   0000000180095248     c4_wwtp3.obj
 0003:00015250       $SG26368                   0000000180095250     c4_wwtp3.obj
 0003:000152b8       $SG26370                   00000001800952b8     c4_wwtp3.obj
 0003:000152c0       $SG26371                   00000001800952c0     c4_wwtp3.obj
 0003:00015308       $SG26373                   0000000180095308     c4_wwtp3.obj
 0003:00015310       $SG26374                   0000000180095310     c4_wwtp3.obj
 0003:00015378       $SG26376                   0000000180095378     c4_wwtp3.obj
 0003:00015388       $SG26385                   0000000180095388     c4_wwtp3.obj
 0003:00015390       $SG26377                   0000000180095390     c4_wwtp3.obj
 0003:00015414       $SG26388                   0000000180095414     c4_wwtp3.obj
 0003:0001541c       $SG26424                   000000018009541c     c4_wwtp3.obj
 0003:00015420       $SG26379                   0000000180095420     c4_wwtp3.obj
 0003:00015430       $SG26380                   0000000180095430     c4_wwtp3.obj
 0003:000154b4       $SG26403                   00000001800954b4     c4_wwtp3.obj
 0003:000154bc       $SG26430                   00000001800954bc     c4_wwtp3.obj
 0003:000154c0       $SG26382                   00000001800954c0     c4_wwtp3.obj
 0003:000154d0       $SG26383                   00000001800954d0     c4_wwtp3.obj
 0003:00015558       $SG26391                   0000000180095558     c4_wwtp3.obj
 0003:00015570       $SG26386                   0000000180095570     c4_wwtp3.obj
 0003:000155d8       $SG26394                   00000001800955d8     c4_wwtp3.obj
 0003:000155f0       $SG26389                   00000001800955f0     c4_wwtp3.obj
 0003:00015658       $SG26406                   0000000180095658     c4_wwtp3.obj
 0003:00015668       $SG26409                   0000000180095668     c4_wwtp3.obj
 0003:00015678       $SG26418                   0000000180095678     c4_wwtp3.obj
 0003:00015690       $SG26392                   0000000180095690     c4_wwtp3.obj
 0003:000156e8       $SG26421                   00000001800956e8     c4_wwtp3.obj
 0003:00015700       $SG26395                   0000000180095700     c4_wwtp3.obj
 0003:0001579c       $SG26556                   000000018009579c     c4_wwtp3.obj
 0003:000157a0       $SG26397                   00000001800957a0     c4_wwtp3.obj
 0003:000157b0       $SG26398                   00000001800957b0     c4_wwtp3.obj
 0003:00015814       $SG26559                   0000000180095814     c4_wwtp3.obj
 0003:00015818       $SG26400                   0000000180095818     c4_wwtp3.obj
 0003:00015828       $SG26427                   0000000180095828     c4_wwtp3.obj
 0003:00015848       $SG26433                   0000000180095848     c4_wwtp3.obj
 0003:00015860       $SG26401                   0000000180095860     c4_wwtp3.obj
 0003:000158d0       $SG26404                   00000001800958d0     c4_wwtp3.obj
 0003:00015940       $SG26407                   0000000180095940     c4_wwtp3.obj
 0003:000159c8       $SG26412                   00000001800959c8     c4_wwtp3.obj
 0003:000159d4       $SG26442                   00000001800959d4     c4_wwtp3.obj
 0003:000159e0       $SG26410                   00000001800959e0     c4_wwtp3.obj
 0003:00015a38       $SG26415                   0000000180095a38     c4_wwtp3.obj
 0003:00015a44       $SG26445                   0000000180095a44     c4_wwtp3.obj
 0003:00015a50       $SG26413                   0000000180095a50     c4_wwtp3.obj
 0003:00015ac0       $SG26416                   0000000180095ac0     c4_wwtp3.obj
 0003:00015b30       $SG26419                   0000000180095b30     c4_wwtp3.obj
 0003:00015b88       $SG26436                   0000000180095b88     c4_wwtp3.obj
 0003:00015b98       $SG26439                   0000000180095b98     c4_wwtp3.obj
 0003:00015bb0       $SG26422                   0000000180095bb0     c4_wwtp3.obj
 0003:00015c08       $SG26448                   0000000180095c08     c4_wwtp3.obj
 0003:00015c18       $SG26451                   0000000180095c18     c4_wwtp3.obj
 0003:00015c20       $SG26425                   0000000180095c20     c4_wwtp3.obj
 0003:00015c64       $SG26454                   0000000180095c64     c4_wwtp3.obj
 0003:00015c70       $SG26428                   0000000180095c70     c4_wwtp3.obj
 0003:00015cd0       $SG26431                   0000000180095cd0     c4_wwtp3.obj
 0003:00015d18       $SG26457                   0000000180095d18     c4_wwtp3.obj
 0003:00015d20       $SG26434                   0000000180095d20     c4_wwtp3.obj
 0003:00015d80       $SG26437                   0000000180095d80     c4_wwtp3.obj
 0003:00015de0       $SG26440                   0000000180095de0     c4_wwtp3.obj
 0003:00015e38       $SG26460                   0000000180095e38     c4_wwtp3.obj
 0003:00015e40       $SG26443                   0000000180095e40     c4_wwtp3.obj
 0003:00015e84       $SG26463                   0000000180095e84     c4_wwtp3.obj
 0003:00015e90       $SG26446                   0000000180095e90     c4_wwtp3.obj
 0003:00015ed4       $SG26466                   0000000180095ed4     c4_wwtp3.obj
 0003:00015ee0       $SG26449                   0000000180095ee0     c4_wwtp3.obj
 0003:00015f34       $SG26469                   0000000180095f34     c4_wwtp3.obj
 0003:00015f40       $SG26452                   0000000180095f40     c4_wwtp3.obj
 0003:00015fa8       $SG26472                   0000000180095fa8     c4_wwtp3.obj
 0003:00015fb0       $SG26455                   0000000180095fb0     c4_wwtp3.obj
 0003:00016018       $SG26478                   0000000180096018     c4_wwtp3.obj
 0003:00016020       $SG26458                   0000000180096020     c4_wwtp3.obj
 0003:00016088       $SG26481                   0000000180096088     c4_wwtp3.obj
 0003:00016090       $SG26461                   0000000180096090     c4_wwtp3.obj
 0003:000160f8       $SG26484                   00000001800960f8     c4_wwtp3.obj
 0003:00016100       $SG26464                   0000000180096100     c4_wwtp3.obj
 0003:00016168       $SG26487                   0000000180096168     c4_wwtp3.obj
 0003:00016170       $SG26467                   0000000180096170     c4_wwtp3.obj
 0003:000161d8       $SG26490                   00000001800961d8     c4_wwtp3.obj
 0003:000161e0       $SG26470                   00000001800961e0     c4_wwtp3.obj
 0003:00016248       $SG26493                   0000000180096248     c4_wwtp3.obj
 0003:00016250       $SG26473                   0000000180096250     c4_wwtp3.obj
 0003:000162b8       $SG26475                   00000001800962b8     c4_wwtp3.obj
 0003:000162c4       $SG26496                   00000001800962c4     c4_wwtp3.obj
 0003:000162d0       $SG26476                   00000001800962d0     c4_wwtp3.obj
 0003:00016320       $SG26479                   0000000180096320     c4_wwtp3.obj
 0003:00016364       $SG26499                   0000000180096364     c4_wwtp3.obj
 0003:00016370       $SG26482                   0000000180096370     c4_wwtp3.obj
 0003:000163e0       $SG26485                   00000001800963e0     c4_wwtp3.obj
 0003:00016450       $SG26488                   0000000180096450     c4_wwtp3.obj
 0003:000164c0       $SG26491                   00000001800964c0     c4_wwtp3.obj
 0003:00016530       $SG26494                   0000000180096530     c4_wwtp3.obj
 0003:000165a0       $SG26497                   00000001800965a0     c4_wwtp3.obj
 0003:00016608       $SG26502                   0000000180096608     c4_wwtp3.obj
 0003:00016618       $SG26511                   0000000180096618     c4_wwtp3.obj
 0003:00016620       $SG26500                   0000000180096620     c4_wwtp3.obj
 0003:00016688       $SG26505                   0000000180096688     c4_wwtp3.obj
 0003:00016698       $SG26520                   0000000180096698     c4_wwtp3.obj
 0003:000166b0       $SG26503                   00000001800966b0     c4_wwtp3.obj
 0003:00016720       $SG26506                   0000000180096720     c4_wwtp3.obj
 0003:0001678c       $SG26562                   000000018009678c     c4_wwtp3.obj
 0003:00016790       $SG26508                   0000000180096790     c4_wwtp3.obj
 0003:000167a0       $SG26509                   00000001800967a0     c4_wwtp3.obj
 0003:00016810       $SG26512                   0000000180096810     c4_wwtp3.obj
 0003:0001687c       $SG26565                   000000018009687c     c4_wwtp3.obj
 0003:00016880       $SG26514                   0000000180096880     c4_wwtp3.obj
 0003:00016890       $SG26515                   0000000180096890     c4_wwtp3.obj
 0003:000168fc       $SG26568                   00000001800968fc     c4_wwtp3.obj
 0003:00016900       $SG26517                   0000000180096900     c4_wwtp3.obj
 0003:00016910       $SG26518                   0000000180096910     c4_wwtp3.obj
 0003:00016980       $SG26521                   0000000180096980     c4_wwtp3.obj
 0003:000169d0       $SG26523                   00000001800969d0     c4_wwtp3.obj
 0003:000169e0       $SG26524                   00000001800969e0     c4_wwtp3.obj
 0003:00016a50       $SG26526                   0000000180096a50     c4_wwtp3.obj
 0003:00016a60       $SG26527                   0000000180096a60     c4_wwtp3.obj
 0003:00016ad0       $SG26529                   0000000180096ad0     c4_wwtp3.obj
 0003:00016ae0       $SG26530                   0000000180096ae0     c4_wwtp3.obj
 0003:00016b50       $SG26532                   0000000180096b50     c4_wwtp3.obj
 0003:00016b58       $SG26535                   0000000180096b58     c4_wwtp3.obj
 0003:00016b60       $SG26533                   0000000180096b60     c4_wwtp3.obj
 0003:00016ba8       $SG26538                   0000000180096ba8     c4_wwtp3.obj
 0003:00016bb0       $SG26536                   0000000180096bb0     c4_wwtp3.obj
 0003:00016bf8       $SG26541                   0000000180096bf8     c4_wwtp3.obj
 0003:00016c00       $SG26539                   0000000180096c00     c4_wwtp3.obj
 0003:00016c48       $SG26544                   0000000180096c48     c4_wwtp3.obj
 0003:00016c50       $SG26542                   0000000180096c50     c4_wwtp3.obj
 0003:00016cc0       $SG26545                   0000000180096cc0     c4_wwtp3.obj
 0003:00016d2c       $SG26571                   0000000180096d2c     c4_wwtp3.obj
 0003:00016d30       $SG26547                   0000000180096d30     c4_wwtp3.obj
 0003:00016d38       $SG26550                   0000000180096d38     c4_wwtp3.obj
 0003:00016d40       $SG26548                   0000000180096d40     c4_wwtp3.obj
 0003:00016db0       $SG26551                   0000000180096db0     c4_wwtp3.obj
 0003:00016e1c       $SG26646                   0000000180096e1c     c4_wwtp3.obj
 0003:00016e20       $SG26553                   0000000180096e20     c4_wwtp3.obj
 0003:00016e28       $SG26580                   0000000180096e28     c4_wwtp3.obj
 0003:00016e30       $SG26554                   0000000180096e30     c4_wwtp3.obj
 0003:00016ea0       $SG26557                   0000000180096ea0     c4_wwtp3.obj
 0003:00016f08       $SG26583                   0000000180096f08     c4_wwtp3.obj
 0003:00016f10       $SG26560                   0000000180096f10     c4_wwtp3.obj
 0003:00016f78       $SG26598                   0000000180096f78     c4_wwtp3.obj
 0003:00016f80       $SG26563                   0000000180096f80     c4_wwtp3.obj
 0003:00016fe8       $SG26601                   0000000180096fe8     c4_wwtp3.obj
 0003:00017000       $SG26566                   0000000180097000     c4_wwtp3.obj
 0003:00017068       $SG26637                   0000000180097068     c4_wwtp3.obj
 0003:00017070       $SG26569                   0000000180097070     c4_wwtp3.obj
 0003:000170d8       $SG26640                   00000001800970d8     c4_wwtp3.obj
 0003:000170e0       $SG26572                   00000001800970e0     c4_wwtp3.obj
 0003:00017148       $SG26574                   0000000180097148     c4_wwtp3.obj
 0003:00017154       $SG26649                   0000000180097154     c4_wwtp3.obj
 0003:00017158       $SG26643                   0000000180097158     c4_wwtp3.obj
 0003:00017160       $SG26575                   0000000180097160     c4_wwtp3.obj
 0003:000171d0       $SG26577                   00000001800971d0     c4_wwtp3.obj
 0003:000171e0       $SG26578                   00000001800971e0     c4_wwtp3.obj
 0003:00017250       $SG26581                   0000000180097250     c4_wwtp3.obj
 0003:000172c0       $SG26584                   00000001800972c0     c4_wwtp3.obj
 0003:0001732c       $SG26652                   000000018009732c     c4_wwtp3.obj
 0003:00017334       $SG26664                   0000000180097334     c4_wwtp3.obj
 0003:00017338       $SG26586                   0000000180097338     c4_wwtp3.obj
 0003:00017344       $SG26655                   0000000180097344     c4_wwtp3.obj
 0003:00017350       $SG26587                   0000000180097350     c4_wwtp3.obj
 0003:000173c0       $SG26589                   00000001800973c0     c4_wwtp3.obj
 0003:000173d0       $SG26590                   00000001800973d0     c4_wwtp3.obj
 0003:00017440       $SG26592                   0000000180097440     c4_wwtp3.obj
 0003:00017450       $SG26593                   0000000180097450     c4_wwtp3.obj
 0003:000174c0       $SG26595                   00000001800974c0     c4_wwtp3.obj
 0003:000174d0       $SG26596                   00000001800974d0     c4_wwtp3.obj
 0003:00017540       $SG26599                   0000000180097540     c4_wwtp3.obj
 0003:000175b0       $SG26602                   00000001800975b0     c4_wwtp3.obj
 0003:0001764c       $SG26832                   000000018009764c     c4_wwtp3.obj
 0003:00017650       $SG26604                   0000000180097650     c4_wwtp3.obj
 0003:00017660       $SG26605                   0000000180097660     c4_wwtp3.obj
 0003:000176d0       $SG26607                   00000001800976d0     c4_wwtp3.obj
 0003:000176e0       $SG26608                   00000001800976e0     c4_wwtp3.obj
 0003:00017764       $SG26658                   0000000180097764     c4_wwtp3.obj
 0003:0001776c       $SG26835                   000000018009776c     c4_wwtp3.obj
 0003:00017770       $SG26610                   0000000180097770     c4_wwtp3.obj
 0003:00017780       $SG26611                   0000000180097780     c4_wwtp3.obj
 0003:00017804       $SG26667                   0000000180097804     c4_wwtp3.obj
 0003:0001780c       $SG26862                   000000018009780c     c4_wwtp3.obj
 0003:00017810       $SG26613                   0000000180097810     c4_wwtp3.obj
 0003:00017820       $SG26614                   0000000180097820     c4_wwtp3.obj
 0003:000178a4       $SG26670                   00000001800978a4     c4_wwtp3.obj
 0003:000178ac       $SG26874                   00000001800978ac     c4_wwtp3.obj
 0003:000178b0       $SG26616                   00000001800978b0     c4_wwtp3.obj
 0003:000178c0       $SG26617                   00000001800978c0     c4_wwtp3.obj
 0003:00017944       $SG26673                   0000000180097944     c4_wwtp3.obj
 0003:0001794c       $SG26886                   000000018009794c     c4_wwtp3.obj
 0003:00017950       $SG26619                   0000000180097950     c4_wwtp3.obj
 0003:00017960       $SG26620                   0000000180097960     c4_wwtp3.obj
 0003:000179e4       $SG26676                   00000001800979e4     c4_wwtp3.obj
 0003:000179ec       $SG26892                   00000001800979ec     c4_wwtp3.obj
 0003:000179f0       $SG26622                   00000001800979f0     c4_wwtp3.obj
 0003:00017a00       $SG26623                   0000000180097a00     c4_wwtp3.obj
 0003:00017a84       $SG26679                   0000000180097a84     c4_wwtp3.obj
 0003:00017a8c       $SG26898                   0000000180097a8c     c4_wwtp3.obj
 0003:00017a90       $SG26625                   0000000180097a90     c4_wwtp3.obj
 0003:00017aa0       $SG26626                   0000000180097aa0     c4_wwtp3.obj
 0003:00017b24       $SG26682                   0000000180097b24     c4_wwtp3.obj
 0003:00017b2c       $SG26904                   0000000180097b2c     c4_wwtp3.obj
 0003:00017b30       $SG26628                   0000000180097b30     c4_wwtp3.obj
 0003:00017b40       $SG26629                   0000000180097b40     c4_wwtp3.obj
 0003:00017bc4       $SG26685                   0000000180097bc4     c4_wwtp3.obj
 0003:00017bcc       $SG26922                   0000000180097bcc     c4_wwtp3.obj
 0003:00017bd0       $SG26631                   0000000180097bd0     c4_wwtp3.obj
 0003:00017be0       $SG26632                   0000000180097be0     c4_wwtp3.obj
 0003:00017c64       $SG26688                   0000000180097c64     c4_wwtp3.obj
 0003:00017c6c       $SG26928                   0000000180097c6c     c4_wwtp3.obj
 0003:00017c70       $SG26634                   0000000180097c70     c4_wwtp3.obj
 0003:00017c80       $SG26635                   0000000180097c80     c4_wwtp3.obj
 0003:00017d08       $SG26661                   0000000180097d08     c4_wwtp3.obj
 0003:00017d10       $SG26638                   0000000180097d10     c4_wwtp3.obj
 0003:00017d80       $SG26641                   0000000180097d80     c4_wwtp3.obj
 0003:00017df0       $SG26644                   0000000180097df0     c4_wwtp3.obj
 0003:00017e60       $SG26647                   0000000180097e60     c4_wwtp3.obj
 0003:00017ec8       $SG26697                   0000000180097ec8     c4_wwtp3.obj
 0003:00017ed0       $SG26650                   0000000180097ed0     c4_wwtp3.obj
 0003:00017f38       $SG26700                   0000000180097f38     c4_wwtp3.obj
 0003:00017f40       $SG26653                   0000000180097f40     c4_wwtp3.obj
 0003:00017fb0       $SG26656                   0000000180097fb0     c4_wwtp3.obj
 0003:00018020       $SG26659                   0000000180098020     c4_wwtp3.obj
 0003:00018090       $SG26662                   0000000180098090     c4_wwtp3.obj
 0003:00018100       $SG26665                   0000000180098100     c4_wwtp3.obj
 0003:00018168       $SG26703                   0000000180098168     c4_wwtp3.obj
 0003:00018170       $SG26668                   0000000180098170     c4_wwtp3.obj
 0003:000181e0       $SG26671                   00000001800981e0     c4_wwtp3.obj
 0003:00018250       $SG26674                   0000000180098250     c4_wwtp3.obj
 0003:000182c0       $SG26677                   00000001800982c0     c4_wwtp3.obj
 0003:00018330       $SG26680                   0000000180098330     c4_wwtp3.obj
 0003:00018398       $SG26691                   0000000180098398     c4_wwtp3.obj
 0003:000183a8       $SG26706                   00000001800983a8     c4_wwtp3.obj
 0003:000183b0       $SG26683                   00000001800983b0     c4_wwtp3.obj
 0003:00018418       $SG26694                   0000000180098418     c4_wwtp3.obj
 0003:00018428       $SG26709                   0000000180098428     c4_wwtp3.obj
 0003:00018430       $SG26686                   0000000180098430     c4_wwtp3.obj
 0003:000184a0       $SG26689                   00000001800984a0     c4_wwtp3.obj
 0003:00018508       $SG26712                   0000000180098508     c4_wwtp3.obj
 0003:00018510       $SG26692                   0000000180098510     c4_wwtp3.obj
 0003:00018584       $SG26715                   0000000180098584     c4_wwtp3.obj
 0003:00018590       $SG26695                   0000000180098590     c4_wwtp3.obj
 0003:00018600       $SG26698                   0000000180098600     c4_wwtp3.obj
 0003:00018668       $SG26718                   0000000180098668     c4_wwtp3.obj
 0003:00018670       $SG26701                   0000000180098670     c4_wwtp3.obj
 0003:000186d8       $SG26721                   00000001800986d8     c4_wwtp3.obj
 0003:000186e8       $SG26730                   00000001800986e8     c4_wwtp3.obj
 0003:000186f0       $SG26704                   00000001800986f0     c4_wwtp3.obj
 0003:00018758       $SG26724                   0000000180098758     c4_wwtp3.obj
 0003:00018768       $SG26733                   0000000180098768     c4_wwtp3.obj
 0003:00018770       $SG26707                   0000000180098770     c4_wwtp3.obj
 0003:000187d8       $SG26727                   00000001800987d8     c4_wwtp3.obj
 0003:000187e8       $SG26736                   00000001800987e8     c4_wwtp3.obj
 0003:000187f0       $SG26710                   00000001800987f0     c4_wwtp3.obj
 0003:00018858       $SG26739                   0000000180098858     c4_wwtp3.obj
 0003:00018860       $SG26713                   0000000180098860     c4_wwtp3.obj
 0003:000188c8       $SG26742                   00000001800988c8     c4_wwtp3.obj
 0003:000188d0       $SG26716                   00000001800988d0     c4_wwtp3.obj
 0003:00018938       $SG26745                   0000000180098938     c4_wwtp3.obj
 0003:00018940       $SG26719                   0000000180098940     c4_wwtp3.obj
 0003:000189a8       $SG26748                   00000001800989a8     c4_wwtp3.obj
 0003:000189c0       $SG26722                   00000001800989c0     c4_wwtp3.obj
 0003:00018a30       $SG26725                   0000000180098a30     c4_wwtp3.obj
 0003:00018aa0       $SG26728                   0000000180098aa0     c4_wwtp3.obj
 0003:00018b10       $SG26731                   0000000180098b10     c4_wwtp3.obj
 0003:00018b60       $SG26734                   0000000180098b60     c4_wwtp3.obj
 0003:00018bb0       $SG26737                   0000000180098bb0     c4_wwtp3.obj
 0003:00018c00       $SG26740                   0000000180098c00     c4_wwtp3.obj
 0003:00018c50       $SG26743                   0000000180098c50     c4_wwtp3.obj
 0003:00018ca0       $SG26746                   0000000180098ca0     c4_wwtp3.obj
 0003:00018ce8       $SG26751                   0000000180098ce8     c4_wwtp3.obj
 0003:00018cf8       $SG26799                   0000000180098cf8     c4_wwtp3.obj
 0003:00018d00       $SG26749                   0000000180098d00     c4_wwtp3.obj
 0003:00018d54       $SG26802                   0000000180098d54     c4_wwtp3.obj
 0003:00018d60       $SG26752                   0000000180098d60     c4_wwtp3.obj
 0003:00018dcc       $SG27102                   0000000180098dcc     c4_wwtp3.obj
 0003:00018dd0       $SG26754                   0000000180098dd0     c4_wwtp3.obj
 0003:00018de0       $SG26755                   0000000180098de0     c4_wwtp3.obj
 0003:00018e4c       $SG27108                   0000000180098e4c     c4_wwtp3.obj
 0003:00018e50       $SG26757                   0000000180098e50     c4_wwtp3.obj
 0003:00018e60       $SG26758                   0000000180098e60     c4_wwtp3.obj
 0003:00018ecc       $SG27114                   0000000180098ecc     c4_wwtp3.obj
 0003:00018ed0       $SG26760                   0000000180098ed0     c4_wwtp3.obj
 0003:00018ee0       $SG26761                   0000000180098ee0     c4_wwtp3.obj
 0003:00018f4c       $SG27117                   0000000180098f4c     c4_wwtp3.obj
 0003:00018f50       $SG26763                   0000000180098f50     c4_wwtp3.obj
 0003:00018f60       $SG26764                   0000000180098f60     c4_wwtp3.obj
 0003:00018fac       $SG27126                   0000000180098fac     c4_wwtp3.obj
 0003:00018fb0       $SG26766                   0000000180098fb0     c4_wwtp3.obj
 0003:00018fc0       $SG26767                   0000000180098fc0     c4_wwtp3.obj
 0003:00019034       $SG27129                   0000000180099034     c4_wwtp3.obj
 0003:00019038       $SG26769                   0000000180099038     c4_wwtp3.obj
 0003:00019048       $SG26805                   0000000180099048     c4_wwtp3.obj
 0003:00019050       $SG26770                   0000000180099050     c4_wwtp3.obj
 0003:000190c4       $SG27243                   00000001800990c4     c4_wwtp3.obj
 0003:000190c8       $SG26772                   00000001800990c8     c4_wwtp3.obj
 0003:000190d8       $SG26808                   00000001800990d8     c4_wwtp3.obj
 0003:000190e0       $SG26773                   00000001800990e0     c4_wwtp3.obj
 0003:0001914c       $SG27279                   000000018009914c     c4_wwtp3.obj
 0003:00019150       $SG26775                   0000000180099150     c4_wwtp3.obj
 0003:00019160       $SG26776                   0000000180099160     c4_wwtp3.obj
 0003:000191cc       $SG27351                   00000001800991cc     c4_wwtp3.obj
 0003:000191d0       $SG26778                   00000001800991d0     c4_wwtp3.obj
 0003:000191e0       $SG26779                   00000001800991e0     c4_wwtp3.obj
 0003:0001924c       $SG27354                   000000018009924c     c4_wwtp3.obj
 0003:00019250       $SG26781                   0000000180099250     c4_wwtp3.obj
 0003:00019260       $SG26782                   0000000180099260     c4_wwtp3.obj
 0003:000192cc       $SG27357                   00000001800992cc     c4_wwtp3.obj
 0003:000192d0       $SG26784                   00000001800992d0     c4_wwtp3.obj
 0003:000192e0       $SG26785                   00000001800992e0     c4_wwtp3.obj
 0003:0001934c       $SG27360                   000000018009934c     c4_wwtp3.obj
 0003:00019350       $SG26787                   0000000180099350     c4_wwtp3.obj
 0003:00019360       $SG26788                   0000000180099360     c4_wwtp3.obj
 0003:000193cc       $SG27363                   00000001800993cc     c4_wwtp3.obj
 0003:000193d0       $SG26790                   00000001800993d0     c4_wwtp3.obj
 0003:000193e0       $SG26791                   00000001800993e0     c4_wwtp3.obj
 0003:00019454       $SG27366                   0000000180099454     c4_wwtp3.obj
 0003:00019458       $SG26793                   0000000180099458     c4_wwtp3.obj
 0003:00019468       $SG26811                   0000000180099468     c4_wwtp3.obj
 0003:00019470       $SG26794                   0000000180099470     c4_wwtp3.obj
 0003:000194e4       $SG27369                   00000001800994e4     c4_wwtp3.obj
 0003:000194e8       $SG26796                   00000001800994e8     c4_wwtp3.obj
 0003:000194f8       $SG26829                   00000001800994f8     c4_wwtp3.obj
 0003:00019500       $SG26797                   0000000180099500     c4_wwtp3.obj
 0003:00019578       $SG26814                   0000000180099578     c4_wwtp3.obj
 0003:00019588       $SG26838                   0000000180099588     c4_wwtp3.obj
 0003:00019590       $SG26800                   0000000180099590     c4_wwtp3.obj
 0003:000195f8       $SG26841                   00000001800995f8     c4_wwtp3.obj
 0003:00019600       $SG26803                   0000000180099600     c4_wwtp3.obj
 0003:00019670       $SG26806                   0000000180099670     c4_wwtp3.obj
 0003:000196e0       $SG26809                   00000001800996e0     c4_wwtp3.obj
 0003:00019750       $SG26812                   0000000180099750     c4_wwtp3.obj
 0003:000197c0       $SG26815                   00000001800997c0     c4_wwtp3.obj
 0003:00019830       $SG26817                   0000000180099830     c4_wwtp3.obj
 0003:00019840       $SG26818                   0000000180099840     c4_wwtp3.obj
 0003:000198b0       $SG26820                   00000001800998b0     c4_wwtp3.obj
 0003:000198c0       $SG26821                   00000001800998c0     c4_wwtp3.obj
 0003:00019930       $SG26823                   0000000180099930     c4_wwtp3.obj
 0003:00019940       $SG26824                   0000000180099940     c4_wwtp3.obj
 0003:000199b0       $SG26826                   00000001800999b0     c4_wwtp3.obj
 0003:000199c0       $SG26827                   00000001800999c0     c4_wwtp3.obj
 0003:00019a30       $SG26830                   0000000180099a30     c4_wwtp3.obj
 0003:00019aa0       $SG26833                   0000000180099aa0     c4_wwtp3.obj
 0003:00019b08       $SG26844                   0000000180099b08     c4_wwtp3.obj
 0003:00019b10       $SG26836                   0000000180099b10     c4_wwtp3.obj
 0003:00019b78       $SG26847                   0000000180099b78     c4_wwtp3.obj
 0003:00019b80       $SG26839                   0000000180099b80     c4_wwtp3.obj
 0003:00019bf0       $SG26842                   0000000180099bf0     c4_wwtp3.obj
 0003:00019c60       $SG26845                   0000000180099c60     c4_wwtp3.obj
 0003:00019cd0       $SG26848                   0000000180099cd0     c4_wwtp3.obj
 0003:00019d3c       $SG26850                   0000000180099d3c     c4_wwtp3.obj
 0003:00019d44       $SG26853                   0000000180099d44     c4_wwtp3.obj
 0003:00019d50       $SG26851                   0000000180099d50     c4_wwtp3.obj
 0003:00019dc0       $SG26854                   0000000180099dc0     c4_wwtp3.obj
 0003:00019e2c       $SG26856                   0000000180099e2c     c4_wwtp3.obj
 0003:00019e34       $SG26859                   0000000180099e34     c4_wwtp3.obj
 0003:00019e40       $SG26857                   0000000180099e40     c4_wwtp3.obj
 0003:00019eb0       $SG26860                   0000000180099eb0     c4_wwtp3.obj
 0003:00019f20       $SG26863                   0000000180099f20     c4_wwtp3.obj
 0003:00019f64       $SG27372                   0000000180099f64     c4_wwtp3.obj
 0003:00019f68       $SG26865                   0000000180099f68     c4_wwtp3.obj
 0003:00019f70       $SG26866                   0000000180099f70     c4_wwtp3.obj
 0003:00019fd0       $SG26868                   0000000180099fd0     c4_wwtp3.obj
 0003:00019fe0       $SG26869                   0000000180099fe0     c4_wwtp3.obj
 0003:0001a044       $SG27375                   000000018009a044     c4_wwtp3.obj
 0003:0001a048       $SG26871                   000000018009a048     c4_wwtp3.obj
 0003:0001a058       $SG26877                   000000018009a058     c4_wwtp3.obj
 0003:0001a060       $SG26872                   000000018009a060     c4_wwtp3.obj
 0003:0001a0c4       $SG26880                   000000018009a0c4     c4_wwtp3.obj
 0003:0001a0d0       $SG26875                   000000018009a0d0     c4_wwtp3.obj
 0003:0001a114       $SG26883                   000000018009a114     c4_wwtp3.obj
 0003:0001a120       $SG26878                   000000018009a120     c4_wwtp3.obj
 0003:0001a190       $SG26881                   000000018009a190     c4_wwtp3.obj
 0003:0001a1d8       $SG26889                   000000018009a1d8     c4_wwtp3.obj
 0003:0001a1e0       $SG26884                   000000018009a1e0     c4_wwtp3.obj
 0003:0001a250       $SG26887                   000000018009a250     c4_wwtp3.obj
 0003:0001a2b8       $SG26901                   000000018009a2b8     c4_wwtp3.obj
 0003:0001a2c0       $SG26890                   000000018009a2c0     c4_wwtp3.obj
 0003:0001a330       $SG26893                   000000018009a330     c4_wwtp3.obj
 0003:0001a398       $SG26895                   000000018009a398     c4_wwtp3.obj
 0003:0001a3a8       $SG26919                   000000018009a3a8     c4_wwtp3.obj
 0003:0001a3b0       $SG26896                   000000018009a3b0     c4_wwtp3.obj
 0003:0001a420       $SG26899                   000000018009a420     c4_wwtp3.obj
 0003:0001a488       $SG26925                   000000018009a488     c4_wwtp3.obj
 0003:0001a490       $SG26902                   000000018009a490     c4_wwtp3.obj
 0003:0001a500       $SG26905                   000000018009a500     c4_wwtp3.obj
 0003:0001a568       $SG26907                   000000018009a568     c4_wwtp3.obj
 0003:0001a578       $SG26931                   000000018009a578     c4_wwtp3.obj
 0003:0001a580       $SG26908                   000000018009a580     c4_wwtp3.obj
 0003:0001a5f0       $SG26910                   000000018009a5f0     c4_wwtp3.obj
 0003:0001a600       $SG26911                   000000018009a600     c4_wwtp3.obj
 0003:0001a670       $SG26913                   000000018009a670     c4_wwtp3.obj
 0003:0001a680       $SG26914                   000000018009a680     c4_wwtp3.obj
 0003:0001a6f0       $SG26916                   000000018009a6f0     c4_wwtp3.obj
 0003:0001a700       $SG26917                   000000018009a700     c4_wwtp3.obj
 0003:0001a770       $SG26920                   000000018009a770     c4_wwtp3.obj
 0003:0001a7e0       $SG26923                   000000018009a7e0     c4_wwtp3.obj
 0003:0001a848       $SG26934                   000000018009a848     c4_wwtp3.obj
 0003:0001a850       $SG26926                   000000018009a850     c4_wwtp3.obj
 0003:0001a8c0       $SG26929                   000000018009a8c0     c4_wwtp3.obj
 0003:0001a928       $SG26937                   000000018009a928     c4_wwtp3.obj
 0003:0001a930       $SG26932                   000000018009a930     c4_wwtp3.obj
 0003:0001a9a0       $SG26935                   000000018009a9a0     c4_wwtp3.obj
 0003:0001aa10       $SG26938                   000000018009aa10     c4_wwtp3.obj
 0003:0001aa7c       $SG26940                   000000018009aa7c     c4_wwtp3.obj
 0003:0001aa84       $SG26943                   000000018009aa84     c4_wwtp3.obj
 0003:0001aa90       $SG26941                   000000018009aa90     c4_wwtp3.obj
 0003:0001ab00       $SG26944                   000000018009ab00     c4_wwtp3.obj
 0003:0001ab6c       $SG26946                   000000018009ab6c     c4_wwtp3.obj
 0003:0001ab74       $SG26949                   000000018009ab74     c4_wwtp3.obj
 0003:0001ab80       $SG26947                   000000018009ab80     c4_wwtp3.obj
 0003:0001abf0       $SG26950                   000000018009abf0     c4_wwtp3.obj
 0003:0001ac5c       $SG26952                   000000018009ac5c     c4_wwtp3.obj
 0003:0001ac64       $SG26955                   000000018009ac64     c4_wwtp3.obj
 0003:0001ac70       $SG26953                   000000018009ac70     c4_wwtp3.obj
 0003:0001ace0       $SG26956                   000000018009ace0     c4_wwtp3.obj
 0003:0001ad4c       $SG26958                   000000018009ad4c     c4_wwtp3.obj
 0003:0001ad54       $SG26961                   000000018009ad54     c4_wwtp3.obj
 0003:0001ad60       $SG26959                   000000018009ad60     c4_wwtp3.obj
 0003:0001add0       $SG26962                   000000018009add0     c4_wwtp3.obj
 0003:0001ae3c       $SG26964                   000000018009ae3c     c4_wwtp3.obj
 0003:0001ae44       $SG26967                   000000018009ae44     c4_wwtp3.obj
 0003:0001ae50       $SG26965                   000000018009ae50     c4_wwtp3.obj
 0003:0001aec0       $SG26968                   000000018009aec0     c4_wwtp3.obj
 0003:0001af2c       $SG26970                   000000018009af2c     c4_wwtp3.obj
 0003:0001af34       $SG26973                   000000018009af34     c4_wwtp3.obj
 0003:0001af40       $SG26971                   000000018009af40     c4_wwtp3.obj
 0003:0001afb0       $SG26974                   000000018009afb0     c4_wwtp3.obj
 0003:0001b01c       $SG27393                   000000018009b01c     c4_wwtp3.obj
 0003:0001b020       $SG26976                   000000018009b020     c4_wwtp3.obj
 0003:0001b030       $SG26977                   000000018009b030     c4_wwtp3.obj
 0003:0001b0b4       $SG26982                   000000018009b0b4     c4_wwtp3.obj
 0003:0001b0bc       $SG27396                   000000018009b0bc     c4_wwtp3.obj
 0003:0001b0c0       $SG26979                   000000018009b0c0     c4_wwtp3.obj
 0003:0001b0d0       $SG26980                   000000018009b0d0     c4_wwtp3.obj
 0003:0001b140       $SG26983                   000000018009b140     c4_wwtp3.obj
 0003:0001b1ac       $SG26985                   000000018009b1ac     c4_wwtp3.obj
 0003:0001b1b8       $SG26988                   000000018009b1b8     c4_wwtp3.obj
 0003:0001b1c8       $SG27027                   000000018009b1c8     c4_wwtp3.obj
 0003:0001b1d8       $SG27081                   000000018009b1d8     c4_wwtp3.obj
 0003:0001b1e0       $SG26986                   000000018009b1e0     c4_wwtp3.obj
 0003:0001b250       $SG26989                   000000018009b250     c4_wwtp3.obj
 0003:0001b2d4       $SG27105                   000000018009b2d4     c4_wwtp3.obj
 0003:0001b2dc       $SG27411                   000000018009b2dc     c4_wwtp3.obj
 0003:0001b2e0       $SG26991                   000000018009b2e0     c4_wwtp3.obj
 0003:0001b2f0       $SG26992                   000000018009b2f0     c4_wwtp3.obj
 0003:0001b374       $SG27144                   000000018009b374     c4_wwtp3.obj
 0003:0001b37c       $SG27414                   000000018009b37c     c4_wwtp3.obj
 0003:0001b380       $SG26994                   000000018009b380     c4_wwtp3.obj
 0003:0001b390       $SG26995                   000000018009b390     c4_wwtp3.obj
 0003:0001b414       $SG27147                   000000018009b414     c4_wwtp3.obj
 0003:0001b41c       $SG27429                   000000018009b41c     c4_wwtp3.obj
 0003:0001b420       $SG26997                   000000018009b420     c4_wwtp3.obj
 0003:0001b430       $SG26998                   000000018009b430     c4_wwtp3.obj
 0003:0001b4b4       $SG27168                   000000018009b4b4     c4_wwtp3.obj
 0003:0001b4bc       $SG27432                   000000018009b4bc     c4_wwtp3.obj
 0003:0001b4c0       $SG27000                   000000018009b4c0     c4_wwtp3.obj
 0003:0001b4d0       $SG27001                   000000018009b4d0     c4_wwtp3.obj
 0003:0001b554       $SG27183                   000000018009b554     c4_wwtp3.obj
 0003:0001b55c       $SG27468                   000000018009b55c     c4_wwtp3.obj
 0003:0001b560       $SG27003                   000000018009b560     c4_wwtp3.obj
 0003:0001b570       $SG27004                   000000018009b570     c4_wwtp3.obj
 0003:0001b5f4       $SG27186                   000000018009b5f4     c4_wwtp3.obj
 0003:0001b5fc       $SG27471                   000000018009b5fc     c4_wwtp3.obj
 0003:0001b600       $SG27006                   000000018009b600     c4_wwtp3.obj
 0003:0001b610       $SG27007                   000000018009b610     c4_wwtp3.obj
 0003:0001b694       $SG27204                   000000018009b694     c4_wwtp3.obj
 0003:0001b69c       $SG27483                   000000018009b69c     c4_wwtp3.obj
 0003:0001b6a0       $SG27009                   000000018009b6a0     c4_wwtp3.obj
 0003:0001b6b0       $SG27010                   000000018009b6b0     c4_wwtp3.obj
 0003:0001b734       $SG27207                   000000018009b734     c4_wwtp3.obj
 0003:0001b73c       $SG27549                   000000018009b73c     c4_wwtp3.obj
 0003:0001b740       $SG27012                   000000018009b740     c4_wwtp3.obj
 0003:0001b750       $SG27013                   000000018009b750     c4_wwtp3.obj
 0003:0001b7d4       $SG27210                   000000018009b7d4     c4_wwtp3.obj
 0003:0001b7dc       $SG27552                   000000018009b7dc     c4_wwtp3.obj
 0003:0001b7e0       $SG27015                   000000018009b7e0     c4_wwtp3.obj
 0003:0001b7f0       $SG27016                   000000018009b7f0     c4_wwtp3.obj
 0003:0001b874       $SG27213                   000000018009b874     c4_wwtp3.obj
 0003:0001b87c       $SG27605                   000000018009b87c     c4_wwtp3.obj
 0003:0001b880       $SG27018                   000000018009b880     c4_wwtp3.obj
 0003:0001b890       $SG27019                   000000018009b890     c4_wwtp3.obj
 0003:0001b914       $SG27219                   000000018009b914     c4_wwtp3.obj
 0003:0001b91c       $SG27743                   000000018009b91c     c4_wwtp3.obj
 0003:0001b920       $SG27021                   000000018009b920     c4_wwtp3.obj
 0003:0001b930       $SG27022                   000000018009b930     c4_wwtp3.obj
 0003:0001b9b4       $SG27222                   000000018009b9b4     c4_wwtp3.obj
 0003:0001b9bc       $SG27746                   000000018009b9bc     c4_wwtp3.obj
 0003:0001b9c0       $SG27024                   000000018009b9c0     c4_wwtp3.obj
 0003:0001b9d0       $SG27025                   000000018009b9d0     c4_wwtp3.obj
 0003:0001ba58       $SG27030                   000000018009ba58     c4_wwtp3.obj
 0003:0001ba64       $SG27156                   000000018009ba64     c4_wwtp3.obj
 0003:0001ba70       $SG27028                   000000018009ba70     c4_wwtp3.obj
 0003:0001bac8       $SG27033                   000000018009bac8     c4_wwtp3.obj
 0003:0001bad4       $SG27171                   000000018009bad4     c4_wwtp3.obj
 0003:0001bae0       $SG27031                   000000018009bae0     c4_wwtp3.obj
 0003:0001bb50       $SG27034                   000000018009bb50     c4_wwtp3.obj
 0003:0001bbc0       $SG27036                   000000018009bbc0     c4_wwtp3.obj
 0003:0001bbd0       $SG27037                   000000018009bbd0     c4_wwtp3.obj
 0003:0001bc40       $SG27039                   000000018009bc40     c4_wwtp3.obj
 0003:0001bc50       $SG27040                   000000018009bc50     c4_wwtp3.obj
 0003:0001bcc0       $SG27042                   000000018009bcc0     c4_wwtp3.obj
 0003:0001bcd0       $SG27043                   000000018009bcd0     c4_wwtp3.obj
 0003:0001bd40       $SG27045                   000000018009bd40     c4_wwtp3.obj
 0003:0001bd50       $SG27046                   000000018009bd50     c4_wwtp3.obj
 0003:0001bdc0       $SG27048                   000000018009bdc0     c4_wwtp3.obj
 0003:0001bdd0       $SG27049                   000000018009bdd0     c4_wwtp3.obj
 0003:0001be40       $SG27051                   000000018009be40     c4_wwtp3.obj
 0003:0001be50       $SG27052                   000000018009be50     c4_wwtp3.obj
 0003:0001bec0       $SG27054                   000000018009bec0     c4_wwtp3.obj
 0003:0001bed0       $SG27055                   000000018009bed0     c4_wwtp3.obj
 0003:0001bf40       $SG27057                   000000018009bf40     c4_wwtp3.obj
 0003:0001bf50       $SG27058                   000000018009bf50     c4_wwtp3.obj
 0003:0001bfc0       $SG27060                   000000018009bfc0     c4_wwtp3.obj
 0003:0001bfd0       $SG27061                   000000018009bfd0     c4_wwtp3.obj
 0003:0001c040       $SG27063                   000000018009c040     c4_wwtp3.obj
 0003:0001c050       $SG27064                   000000018009c050     c4_wwtp3.obj
 0003:0001c0c0       $SG27066                   000000018009c0c0     c4_wwtp3.obj
 0003:0001c0d0       $SG27067                   000000018009c0d0     c4_wwtp3.obj
 0003:0001c140       $SG27069                   000000018009c140     c4_wwtp3.obj
 0003:0001c150       $SG27070                   000000018009c150     c4_wwtp3.obj
 0003:0001c1c0       $SG27072                   000000018009c1c0     c4_wwtp3.obj
 0003:0001c1d0       $SG27073                   000000018009c1d0     c4_wwtp3.obj
 0003:0001c240       $SG27075                   000000018009c240     c4_wwtp3.obj
 0003:0001c250       $SG27076                   000000018009c250     c4_wwtp3.obj
 0003:0001c2c0       $SG27078                   000000018009c2c0     c4_wwtp3.obj
 0003:0001c2d0       $SG27079                   000000018009c2d0     c4_wwtp3.obj
 0003:0001c340       $SG27082                   000000018009c340     c4_wwtp3.obj
 0003:0001c3ac       $SG27225                   000000018009c3ac     c4_wwtp3.obj
 0003:0001c3b8       $SG27084                   000000018009c3b8     c4_wwtp3.obj
 0003:0001c3c4       $SG27228                   000000018009c3c4     c4_wwtp3.obj
 0003:0001c3d0       $SG27085                   000000018009c3d0     c4_wwtp3.obj
 0003:0001c440       $SG27087                   000000018009c440     c4_wwtp3.obj
 0003:0001c450       $SG27088                   000000018009c450     c4_wwtp3.obj
 0003:0001c4c0       $SG27090                   000000018009c4c0     c4_wwtp3.obj
 0003:0001c4d0       $SG27091                   000000018009c4d0     c4_wwtp3.obj
 0003:0001c540       $SG27093                   000000018009c540     c4_wwtp3.obj
 0003:0001c550       $SG27094                   000000018009c550     c4_wwtp3.obj
 0003:0001c5c0       $SG27096                   000000018009c5c0     c4_wwtp3.obj
 0003:0001c5d0       $SG27097                   000000018009c5d0     c4_wwtp3.obj
 0003:0001c640       $SG27099                   000000018009c640     c4_wwtp3.obj
 0003:0001c650       $SG27100                   000000018009c650     c4_wwtp3.obj
 0003:0001c6c0       $SG27103                   000000018009c6c0     c4_wwtp3.obj
 0003:0001c728       $SG27150                   000000018009c728     c4_wwtp3.obj
 0003:0001c740       $SG27106                   000000018009c740     c4_wwtp3.obj
 0003:0001c788       $SG27120                   000000018009c788     c4_wwtp3.obj
 0003:0001c7a8       $SG27174                   000000018009c7a8     c4_wwtp3.obj
 0003:0001c7b8       $SG27231                   000000018009c7b8     c4_wwtp3.obj
 0003:0001c7c0       $SG27109                   000000018009c7c0     c4_wwtp3.obj
 0003:0001c828       $SG27111                   000000018009c828     c4_wwtp3.obj
 0003:0001c834       $SG27234                   000000018009c834     c4_wwtp3.obj
 0003:0001c840       $SG27112                   000000018009c840     c4_wwtp3.obj
 0003:0001c8b0       $SG27115                   000000018009c8b0     c4_wwtp3.obj
 0003:0001c918       $SG27237                   000000018009c918     c4_wwtp3.obj
 0003:0001c920       $SG27118                   000000018009c920     c4_wwtp3.obj
 0003:0001c968       $SG27123                   000000018009c968     c4_wwtp3.obj
 0003:0001c978       $SG27240                   000000018009c978     c4_wwtp3.obj
 0003:0001c980       $SG27121                   000000018009c980     c4_wwtp3.obj
 0003:0001c9e0       $SG27124                   000000018009c9e0     c4_wwtp3.obj
 0003:0001ca68       $SG27132                   000000018009ca68     c4_wwtp3.obj
 0003:0001ca78       $SG27246                   000000018009ca78     c4_wwtp3.obj
 0003:0001ca90       $SG27127                   000000018009ca90     c4_wwtp3.obj
 0003:0001cad8       $SG27249                   000000018009cad8     c4_wwtp3.obj
 0003:0001cae0       $SG27130                   000000018009cae0     c4_wwtp3.obj
 0003:0001cb28       $SG27252                   000000018009cb28     c4_wwtp3.obj
 0003:0001cb30       $SG27133                   000000018009cb30     c4_wwtp3.obj
 0003:0001cbb8       $SG27135                   000000018009cbb8     c4_wwtp3.obj
 0003:0001cbc8       $SG27255                   000000018009cbc8     c4_wwtp3.obj
 0003:0001cbd0       $SG27136                   000000018009cbd0     c4_wwtp3.obj
 0003:0001cc58       $SG27138                   000000018009cc58     c4_wwtp3.obj
 0003:0001cc68       $SG27258                   000000018009cc68     c4_wwtp3.obj
 0003:0001cc70       $SG27139                   000000018009cc70     c4_wwtp3.obj
 0003:0001ccf8       $SG27141                   000000018009ccf8     c4_wwtp3.obj
 0003:0001cd08       $SG27261                   000000018009cd08     c4_wwtp3.obj
 0003:0001cd10       $SG27142                   000000018009cd10     c4_wwtp3.obj
 0003:0001cd98       $SG27153                   000000018009cd98     c4_wwtp3.obj
 0003:0001cda8       $SG27264                   000000018009cda8     c4_wwtp3.obj
 0003:0001cdb0       $SG27145                   000000018009cdb0     c4_wwtp3.obj
 0003:0001ce20       $SG27148                   000000018009ce20     c4_wwtp3.obj
 0003:0001ce68       $SG27159                   000000018009ce68     c4_wwtp3.obj
 0003:0001ce78       $SG27267                   000000018009ce78     c4_wwtp3.obj
 0003:0001ce80       $SG27151                   000000018009ce80     c4_wwtp3.obj
 0003:0001cedc       $SG27315                   000000018009cedc     c4_wwtp3.obj
 0003:0001cee8       $SG27162                   000000018009cee8     c4_wwtp3.obj
 0003:0001cef8       $SG27270                   000000018009cef8     c4_wwtp3.obj
 0003:0001cf00       $SG27154                   000000018009cf00     c4_wwtp3.obj
 0003:0001cf50       $SG27157                   000000018009cf50     c4_wwtp3.obj
 0003:0001cf98       $SG27273                   000000018009cf98     c4_wwtp3.obj
 0003:0001cfa0       $SG27160                   000000018009cfa0     c4_wwtp3.obj
 0003:0001cff0       $SG27163                   000000018009cff0     c4_wwtp3.obj
 0003:0001d040       $SG27165                   000000018009d040     c4_wwtp3.obj
 0003:0001d050       $SG27166                   000000018009d050     c4_wwtp3.obj
 0003:0001d0a0       $SG27169                   000000018009d0a0     c4_wwtp3.obj
 0003:0001d0e8       $SG27276                   000000018009d0e8     c4_wwtp3.obj
 0003:0001d0f0       $SG27172                   000000018009d0f0     c4_wwtp3.obj
 0003:0001d138       $SG27177                   000000018009d138     c4_wwtp3.obj
 0003:0001d148       $SG27282                   000000018009d148     c4_wwtp3.obj
 0003:0001d150       $SG27175                   000000018009d150     c4_wwtp3.obj
 0003:0001d1a8       $SG27180                   000000018009d1a8     c4_wwtp3.obj
 0003:0001d1b8       $SG27297                   000000018009d1b8     c4_wwtp3.obj
 0003:0001d1cc       $SG27390                   000000018009d1cc     c4_wwtp3.obj
 0003:0001d1d8       $SG27189                   000000018009d1d8     c4_wwtp3.obj
 0003:0001d1e4       $SG27444                   000000018009d1e4     c4_wwtp3.obj
 0003:0001d1f0       $SG27178                   000000018009d1f0     c4_wwtp3.obj
 0003:0001d240       $SG27181                   000000018009d240     c4_wwtp3.obj
 0003:0001d290       $SG27184                   000000018009d290     c4_wwtp3.obj
 0003:0001d300       $SG27187                   000000018009d300     c4_wwtp3.obj
 0003:0001d370       $SG27190                   000000018009d370     c4_wwtp3.obj
 0003:0001d3e0       $SG27192                   000000018009d3e0     c4_wwtp3.obj
 0003:0001d3f0       $SG27193                   000000018009d3f0     c4_wwtp3.obj
 0003:0001d460       $SG27195                   000000018009d460     c4_wwtp3.obj
 0003:0001d470       $SG27196                   000000018009d470     c4_wwtp3.obj
 0003:0001d4f8       $SG27198                   000000018009d4f8     c4_wwtp3.obj
 0003:0001d508       $SG27300                   000000018009d508     c4_wwtp3.obj
 0003:0001d51c       $SG27450                   000000018009d51c     c4_wwtp3.obj
 0003:0001d528       $SG27201                   000000018009d528     c4_wwtp3.obj
 0003:0001d538       $SG27303                   000000018009d538     c4_wwtp3.obj
 0003:0001d54c       $SG27453                   000000018009d54c     c4_wwtp3.obj
 0003:0001d558       $SG27285                   000000018009d558     c4_wwtp3.obj
 0003:0001d568       $SG27318                   000000018009d568     c4_wwtp3.obj
 0003:0001d57c       $SG27456                   000000018009d57c     c4_wwtp3.obj
 0003:0001d588       $SG27288                   000000018009d588     c4_wwtp3.obj
 0003:0001d598       $SG27339                   000000018009d598     c4_wwtp3.obj
 0003:0001d5b0       $SG27199                   000000018009d5b0     c4_wwtp3.obj
 0003:0001d638       $SG27291                   000000018009d638     c4_wwtp3.obj
 0003:0001d648       $SG27345                   000000018009d648     c4_wwtp3.obj
 0003:0001d650       $SG27202                   000000018009d650     c4_wwtp3.obj
 0003:0001d6d8       $SG27294                   000000018009d6d8     c4_wwtp3.obj
 0003:0001d6e8       $SG27348                   000000018009d6e8     c4_wwtp3.obj
 0003:0001d6f0       $SG27205                   000000018009d6f0     c4_wwtp3.obj
 0003:0001d758       $SG27306                   000000018009d758     c4_wwtp3.obj
 0003:0001d768       $SG27462                   000000018009d768     c4_wwtp3.obj
 0003:0001d770       $SG27208                   000000018009d770     c4_wwtp3.obj
 0003:0001d7d8       $SG27309                   000000018009d7d8     c4_wwtp3.obj
 0003:0001d7e8       $SG27525                   000000018009d7e8     c4_wwtp3.obj
 0003:0001d7f0       $SG27211                   000000018009d7f0     c4_wwtp3.obj
 0003:0001d858       $SG27312                   000000018009d858     c4_wwtp3.obj
 0003:0001d868       $SG27528                   000000018009d868     c4_wwtp3.obj
 0003:0001d870       $SG27214                   000000018009d870     c4_wwtp3.obj
 0003:0001d8b8       $SG27216                   000000018009d8b8     c4_wwtp3.obj
 0003:0001d8c8       $SG27298                   000000018009d8c8     c4_wwtp3.obj
 0003:0001d8d8       $SG27321                   000000018009d8d8     c4_wwtp3.obj
 0003:0001d8e8       $SG27540                   000000018009d8e8     c4_wwtp3.obj
 0003:0001d8f0       $SG27217                   000000018009d8f0     c4_wwtp3.obj
 0003:0001d940       $SG27220                   000000018009d940     c4_wwtp3.obj
 0003:0001d9a8       $SG27324                   000000018009d9a8     c4_wwtp3.obj
 0003:0001d9b8       $SG27601                   000000018009d9b8     c4_wwtp3.obj
 0003:0001d9c0       $SG27223                   000000018009d9c0     c4_wwtp3.obj
 0003:0001da28       $SG27327                   000000018009da28     c4_wwtp3.obj
 0003:0001da38       $SG27619                   000000018009da38     c4_wwtp3.obj
 0003:0001da40       $SG27226                   000000018009da40     c4_wwtp3.obj
 0003:0001daa8       $SG27330                   000000018009daa8     c4_wwtp3.obj
 0003:0001dab8       $SG27623                   000000018009dab8     c4_wwtp3.obj
 0003:0001dad0       $SG27229                   000000018009dad0     c4_wwtp3.obj
 0003:0001db40       $SG27232                   000000018009db40     c4_wwtp3.obj
 0003:0001dbb0       $SG27235                   000000018009dbb0     c4_wwtp3.obj
 0003:0001dc20       $SG27238                   000000018009dc20     c4_wwtp3.obj
 0003:0001dc90       $SG27241                   000000018009dc90     c4_wwtp3.obj
 0003:0001dd00       $SG27244                   000000018009dd00     c4_wwtp3.obj
 0003:0001dd68       $SG27658                   000000018009dd68     c4_wwtp3.obj
 0003:0001dd70       $SG27247                   000000018009dd70     c4_wwtp3.obj
 0003:0001ddc8       $SG27662                   000000018009ddc8     c4_wwtp3.obj
 0003:0001ddd0       $SG27250                   000000018009ddd0     c4_wwtp3.obj
 0003:0001de40       $SG27253                   000000018009de40     c4_wwtp3.obj
 0003:0001deb0       $SG27256                   000000018009deb0     c4_wwtp3.obj
 0003:0001df20       $SG27259                   000000018009df20     c4_wwtp3.obj
 0003:0001df90       $SG27262                   000000018009df90     c4_wwtp3.obj
 0003:0001e000       $SG27265                   000000018009e000     c4_wwtp3.obj
 0003:0001e070       $SG27268                   000000018009e070     c4_wwtp3.obj
 0003:0001e0e0       $SG27271                   000000018009e0e0     c4_wwtp3.obj
 0003:0001e150       $SG27274                   000000018009e150     c4_wwtp3.obj
 0003:0001e1c0       $SG27277                   000000018009e1c0     c4_wwtp3.obj
 0003:0001e21c       $SG27665                   000000018009e21c     c4_wwtp3.obj
 0003:0001e228       $SG27333                   000000018009e228     c4_wwtp3.obj
 0003:0001e238       $SG27669                   000000018009e238     c4_wwtp3.obj
 0003:0001e240       $SG27280                   000000018009e240     c4_wwtp3.obj
 0003:0001e2a8       $SG27672                   000000018009e2a8     c4_wwtp3.obj
 0003:0001e2b0       $SG27283                   000000018009e2b0     c4_wwtp3.obj
 0003:0001e320       $SG27286                   000000018009e320     c4_wwtp3.obj
 0003:0001e3a8       $SG27301                   000000018009e3a8     c4_wwtp3.obj
 0003:0001e3b8       $SG27336                   000000018009e3b8     c4_wwtp3.obj
 0003:0001e3c8       $SG27676                   000000018009e3c8     c4_wwtp3.obj
 0003:0001e3d0       $SG27289                   000000018009e3d0     c4_wwtp3.obj
 0003:0001e458       $SG27304                   000000018009e458     c4_wwtp3.obj
 0003:0001e468       $SG27378                   000000018009e468     c4_wwtp3.obj
 0003:0001e478       $SG27679                   000000018009e478     c4_wwtp3.obj
 0003:0001e480       $SG27292                   000000018009e480     c4_wwtp3.obj
 0003:0001e508       $SG27319                   000000018009e508     c4_wwtp3.obj
 0003:0001e518       $SG27381                   000000018009e518     c4_wwtp3.obj
 0003:0001e528       $SG27683                   000000018009e528     c4_wwtp3.obj
 0003:0001e530       $SG27295                   000000018009e530     c4_wwtp3.obj
 0003:0001e5b8       $SG27384                   000000018009e5b8     c4_wwtp3.obj
 0003:0001e5c8       $SG27696                   000000018009e5c8     c4_wwtp3.obj
 0003:0001e5d0       $SG27307                   000000018009e5d0     c4_wwtp3.obj
 0003:0001e640       $SG27310                   000000018009e640     c4_wwtp3.obj
 0003:0001e6b0       $SG27313                   000000018009e6b0     c4_wwtp3.obj
 0003:0001e720       $SG27316                   000000018009e720     c4_wwtp3.obj
 0003:0001e788       $SG27387                   000000018009e788     c4_wwtp3.obj
 0003:0001e798       $SG27721                   000000018009e798     c4_wwtp3.obj
 0003:0001e7a0       $SG27322                   000000018009e7a0     c4_wwtp3.obj
 0003:0001e818       $SG27399                   000000018009e818     c4_wwtp3.obj
 0003:0001e824       $SG27755                   000000018009e824     c4_wwtp3.obj
 0003:0001e830       $SG27325                   000000018009e830     c4_wwtp3.obj
 0003:0001e8a0       $SG27328                   000000018009e8a0     c4_wwtp3.obj
 0003:0001e910       $SG27331                   000000018009e910     c4_wwtp3.obj
 0003:0001e980       $SG27334                   000000018009e980     c4_wwtp3.obj
 0003:0001e9f0       $SG27337                   000000018009e9f0     c4_wwtp3.obj
 0003:0001ea60       $SG27340                   000000018009ea60     c4_wwtp3.obj
 0003:0001eb00       $SG27342                   000000018009eb00     c4_wwtp3.obj
 0003:0001eb10       $SG27343                   000000018009eb10     c4_wwtp3.obj
 0003:0001eb80       $SG27346                   000000018009eb80     c4_wwtp3.obj
 0003:0001ebf0       $SG27349                   000000018009ebf0     c4_wwtp3.obj
 0003:0001ec60       $SG27352                   000000018009ec60     c4_wwtp3.obj
 0003:0001ecc8       $SG27767                   000000018009ecc8     c4_wwtp3.obj
 0003:0001ece0       $SG27355                   000000018009ece0     c4_wwtp3.obj
 0003:0001ed48       $SG27770                   000000018009ed48     c4_wwtp3.obj
 0003:0001ed50       $SG27358                   000000018009ed50     c4_wwtp3.obj
 0003:0001edc0       $SG27361                   000000018009edc0     c4_wwtp3.obj
 0003:0001ee30       $SG27364                   000000018009ee30     c4_wwtp3.obj
 0003:0001eea0       $SG27367                   000000018009eea0     c4_wwtp3.obj
 0003:0001ef10       $SG27370                   000000018009ef10     c4_wwtp3.obj
 0003:0001ef80       $SG27373                   000000018009ef80     c4_wwtp3.obj
 0003:0001eff0       $SG27376                   000000018009eff0     c4_wwtp3.obj
 0003:0001f060       $SG27379                   000000018009f060     c4_wwtp3.obj
 0003:0001f0f0       $SG27382                   000000018009f0f0     c4_wwtp3.obj
 0003:0001f180       $SG27385                   000000018009f180     c4_wwtp3.obj
 0003:0001f210       $SG27388                   000000018009f210     c4_wwtp3.obj
 0003:0001f2a0       $SG27391                   000000018009f2a0     c4_wwtp3.obj
 0003:0001f2f0       $SG27394                   000000018009f2f0     c4_wwtp3.obj
 0003:0001f360       $SG27397                   000000018009f360     c4_wwtp3.obj
 0003:0001f3d0       $SG27400                   000000018009f3d0     c4_wwtp3.obj
 0003:0001f440       $SG27402                   000000018009f440     c4_wwtp3.obj
 0003:0001f450       $SG27403                   000000018009f450     c4_wwtp3.obj
 0003:0001f4c0       $SG27405                   000000018009f4c0     c4_wwtp3.obj
 0003:0001f4d0       $SG27406                   000000018009f4d0     c4_wwtp3.obj
 0003:0001f540       $SG27408                   000000018009f540     c4_wwtp3.obj
 0003:0001f550       $SG27409                   000000018009f550     c4_wwtp3.obj
 0003:0001f5c0       $SG27412                   000000018009f5c0     c4_wwtp3.obj
 0003:0001f630       $SG27415                   000000018009f630     c4_wwtp3.obj
 0003:0001f698       $SG27417                   000000018009f698     c4_wwtp3.obj
 0003:0001f6b0       $SG27418                   000000018009f6b0     c4_wwtp3.obj
 0003:0001f720       $SG27420                   000000018009f720     c4_wwtp3.obj
 0003:0001f730       $SG27421                   000000018009f730     c4_wwtp3.obj
 0003:0001f7a0       $SG27423                   000000018009f7a0     c4_wwtp3.obj
 0003:0001f7b0       $SG27424                   000000018009f7b0     c4_wwtp3.obj
 0003:0001f800       $SG27426                   000000018009f800     c4_wwtp3.obj
 0003:0001f810       $SG27427                   000000018009f810     c4_wwtp3.obj
 0003:0001f880       $SG27430                   000000018009f880     c4_wwtp3.obj
 0003:0001f8f0       $SG27433                   000000018009f8f0     c4_wwtp3.obj
 0003:0001f958       $SG27435                   000000018009f958     c4_wwtp3.obj
 0003:0001f970       $SG27436                   000000018009f970     c4_wwtp3.obj
 0003:0001f9e0       $SG27438                   000000018009f9e0     c4_wwtp3.obj
 0003:0001f9f0       $SG27439                   000000018009f9f0     c4_wwtp3.obj
 0003:0001fa60       $SG27441                   000000018009fa60     c4_wwtp3.obj
 0003:0001fa70       $SG27442                   000000018009fa70     c4_wwtp3.obj
 0003:0001fae0       $SG27445                   000000018009fae0     c4_wwtp3.obj
 0003:0001fb48       $SG27447                   000000018009fb48     c4_wwtp3.obj
 0003:0001fb60       $SG27448                   000000018009fb60     c4_wwtp3.obj
 0003:0001fbd0       $SG27451                   000000018009fbd0     c4_wwtp3.obj
 0003:0001fc40       $SG27454                   000000018009fc40     c4_wwtp3.obj
 0003:0001fcb0       $SG27457                   000000018009fcb0     c4_wwtp3.obj
 0003:0001fd20       $SG27459                   000000018009fd20     c4_wwtp3.obj
 0003:0001fd30       $SG27460                   000000018009fd30     c4_wwtp3.obj
 0003:0001fda0       $SG27463                   000000018009fda0     c4_wwtp3.obj
 0003:0001fe10       $SG27465                   000000018009fe10     c4_wwtp3.obj
 0003:0001fe20       $SG27466                   000000018009fe20     c4_wwtp3.obj
 0003:0001feb0       $SG27469                   000000018009feb0     c4_wwtp3.obj
 0003:0001ff00       $SG27472                   000000018009ff00     c4_wwtp3.obj
 0003:0001ff48       $SG27474                   000000018009ff48     c4_wwtp3.obj
 0003:0001ff60       $SG27475                   000000018009ff60     c4_wwtp3.obj
 0003:0001ffe8       $SG27477                   000000018009ffe8     c4_wwtp3.obj
 0003:00020000       $SG27478                   00000001800a0000     c4_wwtp3.obj
 0003:00020088       $SG27480                   00000001800a0088     c4_wwtp3.obj
 0003:000200a0       $SG27481                   00000001800a00a0     c4_wwtp3.obj
 0003:00020130       $SG27484                   00000001800a0130     c4_wwtp3.obj
 0003:00020178       $SG27486                   00000001800a0178     c4_wwtp3.obj
 0003:00020190       $SG27487                   00000001800a0190     c4_wwtp3.obj
 0003:00020218       $SG27489                   00000001800a0218     c4_wwtp3.obj
 0003:00020230       $SG27490                   00000001800a0230     c4_wwtp3.obj
 0003:000202b8       $SG27492                   00000001800a02b8     c4_wwtp3.obj
 0003:000202d0       $SG27493                   00000001800a02d0     c4_wwtp3.obj
 0003:00020340       $SG27495                   00000001800a0340     c4_wwtp3.obj
 0003:00020350       $SG27496                   00000001800a0350     c4_wwtp3.obj
 0003:000203c0       $SG27498                   00000001800a03c0     c4_wwtp3.obj
 0003:000203d0       $SG27499                   00000001800a03d0     c4_wwtp3.obj
 0003:00020440       $SG27501                   00000001800a0440     c4_wwtp3.obj
 0003:00020450       $SG27502                   00000001800a0450     c4_wwtp3.obj
 0003:000204c0       $SG27504                   00000001800a04c0     c4_wwtp3.obj
 0003:000204d0       $SG27505                   00000001800a04d0     c4_wwtp3.obj
 0003:00020540       $SG27507                   00000001800a0540     c4_wwtp3.obj
 0003:00020550       $SG27508                   00000001800a0550     c4_wwtp3.obj
 0003:000205c0       $SG27510                   00000001800a05c0     c4_wwtp3.obj
 0003:000205d0       $SG27511                   00000001800a05d0     c4_wwtp3.obj
 0003:00020640       $SG27513                   00000001800a0640     c4_wwtp3.obj
 0003:00020650       $SG27514                   00000001800a0650     c4_wwtp3.obj
 0003:000206c0       $SG27516                   00000001800a06c0     c4_wwtp3.obj
 0003:000206d0       $SG27517                   00000001800a06d0     c4_wwtp3.obj
 0003:00020740       $SG27519                   00000001800a0740     c4_wwtp3.obj
 0003:00020750       $SG27520                   00000001800a0750     c4_wwtp3.obj
 0003:000207c0       $SG27522                   00000001800a07c0     c4_wwtp3.obj
 0003:000207d0       $SG27523                   00000001800a07d0     c4_wwtp3.obj
 0003:00020840       $SG27526                   00000001800a0840     c4_wwtp3.obj
 0003:000208b0       $SG27529                   00000001800a08b0     c4_wwtp3.obj
 0003:00020920       $SG27531                   00000001800a0920     c4_wwtp3.obj
 0003:00020930       $SG27532                   00000001800a0930     c4_wwtp3.obj
 0003:000209a0       $SG27534                   00000001800a09a0     c4_wwtp3.obj
 0003:000209b0       $SG27535                   00000001800a09b0     c4_wwtp3.obj
 0003:00020a20       $SG27537                   00000001800a0a20     c4_wwtp3.obj
 0003:00020a30       $SG27538                   00000001800a0a30     c4_wwtp3.obj
 0003:00020aa0       $SG27541                   00000001800a0aa0     c4_wwtp3.obj
 0003:00020ae8       $SG27543                   00000001800a0ae8     c4_wwtp3.obj
 0003:00020b00       $SG27544                   00000001800a0b00     c4_wwtp3.obj
 0003:00020b70       $SG27546                   00000001800a0b70     c4_wwtp3.obj
 0003:00020b80       $SG27547                   00000001800a0b80     c4_wwtp3.obj
 0003:00020bf0       $SG27550                   00000001800a0bf0     c4_wwtp3.obj
 0003:00020c40       $SG27553                   00000001800a0c40     c4_wwtp3.obj
 0003:00020c88       $SG27555                   00000001800a0c88     c4_wwtp3.obj
 0003:00020ca0       $SG27556                   00000001800a0ca0     c4_wwtp3.obj
 0003:00020d28       $SG27558                   00000001800a0d28     c4_wwtp3.obj
 0003:00020d40       $SG27559                   00000001800a0d40     c4_wwtp3.obj
 0003:00020dc8       $SG27562                   00000001800a0dc8     c4_wwtp3.obj
 0003:00020de0       $SG27563                   00000001800a0de0     c4_wwtp3.obj
 0003:00020e50       $SG27566                   00000001800a0e50     c4_wwtp3.obj
 0003:00020e60       $SG27567                   00000001800a0e60     c4_wwtp3.obj
 0003:00020ed0       $SG27570                   00000001800a0ed0     c4_wwtp3.obj
 0003:00020ee0       $SG27571                   00000001800a0ee0     c4_wwtp3.obj
 0003:00020f50       $SG27574                   00000001800a0f50     c4_wwtp3.obj
 0003:00020f60       $SG27575                   00000001800a0f60     c4_wwtp3.obj
 0003:00020fd0       $SG27578                   00000001800a0fd0     c4_wwtp3.obj
 0003:00020fe0       $SG27579                   00000001800a0fe0     c4_wwtp3.obj
 0003:00021050       $SG27581                   00000001800a1050     c4_wwtp3.obj
 0003:00021060       $SG27582                   00000001800a1060     c4_wwtp3.obj
 0003:000210d0       $SG27584                   00000001800a10d0     c4_wwtp3.obj
 0003:000210e0       $SG27585                   00000001800a10e0     c4_wwtp3.obj
 0003:00021150       $SG27587                   00000001800a1150     c4_wwtp3.obj
 0003:00021160       $SG27588                   00000001800a1160     c4_wwtp3.obj
 0003:000211d0       $SG27590                   00000001800a11d0     c4_wwtp3.obj
 0003:000211e0       $SG27591                   00000001800a11e0     c4_wwtp3.obj
 0003:00021250       $SG27594                   00000001800a1250     c4_wwtp3.obj
 0003:00021260       $SG27595                   00000001800a1260     c4_wwtp3.obj
 0003:000212d0       $SG27598                   00000001800a12d0     c4_wwtp3.obj
 0003:000212e0       $SG27599                   00000001800a12e0     c4_wwtp3.obj
 0003:00021350       $SG27602                   00000001800a1350     c4_wwtp3.obj
 0003:000213a0       $SG27606                   00000001800a13a0     c4_wwtp3.obj
 0003:00021408       $SG27608                   00000001800a1408     c4_wwtp3.obj
 0003:00021420       $SG27609                   00000001800a1420     c4_wwtp3.obj
 0003:00021490       $SG27611                   00000001800a1490     c4_wwtp3.obj
 0003:000214a0       $SG27612                   00000001800a14a0     c4_wwtp3.obj
 0003:00021510       $SG27615                   00000001800a1510     c4_wwtp3.obj
 0003:00021520       $SG27616                   00000001800a1520     c4_wwtp3.obj
 0003:00021590       $SG27620                   00000001800a1590     c4_wwtp3.obj
 0003:00021600       $SG27624                   00000001800a1600     c4_wwtp3.obj
 0003:000216a0       $SG27626                   00000001800a16a0     c4_wwtp3.obj
 0003:000216b0       $SG27627                   00000001800a16b0     c4_wwtp3.obj
 0003:00021738       $SG27630                   00000001800a1738     c4_wwtp3.obj
 0003:00021750       $SG27631                   00000001800a1750     c4_wwtp3.obj
 0003:000217d8       $SG27633                   00000001800a17d8     c4_wwtp3.obj
 0003:000217f0       $SG27634                   00000001800a17f0     c4_wwtp3.obj
 0003:00021878       $SG27637                   00000001800a1878     c4_wwtp3.obj
 0003:00021890       $SG27638                   00000001800a1890     c4_wwtp3.obj
 0003:00021918       $SG27640                   00000001800a1918     c4_wwtp3.obj
 0003:00021930       $SG27641                   00000001800a1930     c4_wwtp3.obj
 0003:000219b8       $SG27644                   00000001800a19b8     c4_wwtp3.obj
 0003:000219d0       $SG27645                   00000001800a19d0     c4_wwtp3.obj
 0003:00021a58       $SG27647                   00000001800a1a58     c4_wwtp3.obj
 0003:00021a70       $SG27648                   00000001800a1a70     c4_wwtp3.obj
 0003:00021af8       $SG27651                   00000001800a1af8     c4_wwtp3.obj
 0003:00021b10       $SG27652                   00000001800a1b10     c4_wwtp3.obj
 0003:00021b98       $SG27655                   00000001800a1b98     c4_wwtp3.obj
 0003:00021bb0       $SG27656                   00000001800a1bb0     c4_wwtp3.obj
 0003:00021c20       $SG27659                   00000001800a1c20     c4_wwtp3.obj
 0003:00021c90       $SG27663                   00000001800a1c90     c4_wwtp3.obj
 0003:00021d00       $SG27666                   00000001800a1d00     c4_wwtp3.obj
 0003:00021d70       $SG27670                   00000001800a1d70     c4_wwtp3.obj
 0003:00021de0       $SG27673                   00000001800a1de0     c4_wwtp3.obj
 0003:00021e50       $SG27677                   00000001800a1e50     c4_wwtp3.obj
 0003:00021ec0       $SG27680                   00000001800a1ec0     c4_wwtp3.obj
 0003:00021f30       $SG27684                   00000001800a1f30     c4_wwtp3.obj
 0003:00021fa0       $SG27686                   00000001800a1fa0     c4_wwtp3.obj
 0003:00021fb0       $SG27687                   00000001800a1fb0     c4_wwtp3.obj
 0003:00022020       $SG27689                   00000001800a2020     c4_wwtp3.obj
 0003:00022030       $SG27690                   00000001800a2030     c4_wwtp3.obj
 0003:000220a0       $SG27693                   00000001800a20a0     c4_wwtp3.obj
 0003:000220b0       $SG27694                   00000001800a20b0     c4_wwtp3.obj
 0003:00022120       $SG27697                   00000001800a2120     c4_wwtp3.obj
 0003:00022168       $SG27700                   00000001800a2168     c4_wwtp3.obj
 0003:00022180       $SG27701                   00000001800a2180     c4_wwtp3.obj
 0003:000221f0       $SG27704                   00000001800a21f0     c4_wwtp3.obj
 0003:00022200       $SG27705                   00000001800a2200     c4_wwtp3.obj
 0003:00022270       $SG27707                   00000001800a2270     c4_wwtp3.obj
 0003:00022280       $SG27708                   00000001800a2280     c4_wwtp3.obj
 0003:000222f0       $SG27710                   00000001800a22f0     c4_wwtp3.obj
 0003:00022300       $SG27711                   00000001800a2300     c4_wwtp3.obj
 0003:00022370       $SG27714                   00000001800a2370     c4_wwtp3.obj
 0003:00022380       $SG27715                   00000001800a2380     c4_wwtp3.obj
 0003:000223f0       $SG27718                   00000001800a23f0     c4_wwtp3.obj
 0003:00022400       $SG27719                   00000001800a2400     c4_wwtp3.obj
 0003:00022470       $SG27722                   00000001800a2470     c4_wwtp3.obj
 0003:000224b8       $SG27725                   00000001800a24b8     c4_wwtp3.obj
 0003:000224d0       $SG27726                   00000001800a24d0     c4_wwtp3.obj
 0003:00022540       $SG27729                   00000001800a2540     c4_wwtp3.obj
 0003:00022550       $SG27730                   00000001800a2550     c4_wwtp3.obj
 0003:000225c0       $SG27733                   00000001800a25c0     c4_wwtp3.obj
 0003:000225d0       $SG27734                   00000001800a25d0     c4_wwtp3.obj
 0003:00022640       $SG27737                   00000001800a2640     c4_wwtp3.obj
 0003:00022650       $SG27738                   00000001800a2650     c4_wwtp3.obj
 0003:000226c0       $SG27740                   00000001800a26c0     c4_wwtp3.obj
 0003:000226d0       $SG27741                   00000001800a26d0     c4_wwtp3.obj
 0003:00022740       $SG27744                   00000001800a2740     c4_wwtp3.obj
 0003:00022790       $SG27747                   00000001800a2790     c4_wwtp3.obj
 0003:000227d8       $SG27749                   00000001800a27d8     c4_wwtp3.obj
 0003:000227f0       $SG27750                   00000001800a27f0     c4_wwtp3.obj
 0003:00022860       $SG27752                   00000001800a2860     c4_wwtp3.obj
 0003:00022870       $SG27753                   00000001800a2870     c4_wwtp3.obj
 0003:000228e0       $SG27756                   00000001800a28e0     c4_wwtp3.obj
 0003:00022950       $SG27758                   00000001800a2950     c4_wwtp3.obj
 0003:00022960       $SG27759                   00000001800a2960     c4_wwtp3.obj
 0003:000229e8       $SG27761                   00000001800a29e8     c4_wwtp3.obj
 0003:00022a00       $SG27762                   00000001800a2a00     c4_wwtp3.obj
 0003:00022a70       $SG27764                   00000001800a2a70     c4_wwtp3.obj
 0003:00022a80       $SG27765                   00000001800a2a80     c4_wwtp3.obj
 0003:00022af0       $SG27768                   00000001800a2af0     c4_wwtp3.obj
 0003:00022b40       $SG27771                   00000001800a2b40     c4_wwtp3.obj
 0003:00022b88       c4_emlrtMCI                00000001800a2b88     c4_wwtp3.obj
 0003:00022ba0       c4_b_emlrtMCI              00000001800a2ba0     c4_wwtp3.obj
 0003:00022bb8       c4_c_emlrtMCI              00000001800a2bb8     c4_wwtp3.obj
 0003:00022bd0       c4_d_emlrtMCI              00000001800a2bd0     c4_wwtp3.obj
 0003:00022be8       c4_e_emlrtMCI              00000001800a2be8     c4_wwtp3.obj
 0003:00022c00       c4_f_emlrtMCI              00000001800a2c00     c4_wwtp3.obj
 0003:00022c18       c4_g_emlrtMCI              00000001800a2c18     c4_wwtp3.obj
 0003:00022c30       c4_h_emlrtMCI              00000001800a2c30     c4_wwtp3.obj
 0003:00022c48       c4_i_emlrtMCI              00000001800a2c48     c4_wwtp3.obj
 0003:00022c60       c4_j_emlrtMCI              00000001800a2c60     c4_wwtp3.obj
 0003:00022c78       c4_k_emlrtMCI              00000001800a2c78     c4_wwtp3.obj
 0003:00022c90       c4_l_emlrtMCI              00000001800a2c90     c4_wwtp3.obj
 0003:00022ca8       c4_m_emlrtMCI              00000001800a2ca8     c4_wwtp3.obj
 0003:00022cc0       c4_n_emlrtMCI              00000001800a2cc0     c4_wwtp3.obj
 0003:00022cd8       c4_o_emlrtMCI              00000001800a2cd8     c4_wwtp3.obj
 0003:00022cf0       c4_p_emlrtMCI              00000001800a2cf0     c4_wwtp3.obj
 0003:00022d08       c4_q_emlrtMCI              00000001800a2d08     c4_wwtp3.obj
 0003:00022d20       c4_r_emlrtMCI              00000001800a2d20     c4_wwtp3.obj
 0003:00022d38       c4_s_emlrtMCI              00000001800a2d38     c4_wwtp3.obj
 0003:00022d50       c4_t_emlrtMCI              00000001800a2d50     c4_wwtp3.obj
 0003:00022d68       c4_u_emlrtMCI              00000001800a2d68     c4_wwtp3.obj
 0003:00022d80       c4_v_emlrtMCI              00000001800a2d80     c4_wwtp3.obj
 0003:00022d98       c4_w_emlrtMCI              00000001800a2d98     c4_wwtp3.obj
 0003:00022db0       c4_x_emlrtMCI              00000001800a2db0     c4_wwtp3.obj
 0003:00022dc8       c4_y_emlrtMCI              00000001800a2dc8     c4_wwtp3.obj
 0003:00022de0       c4_ab_emlrtMCI             00000001800a2de0     c4_wwtp3.obj
 0003:00022df8       c4_bb_emlrtMCI             00000001800a2df8     c4_wwtp3.obj
 0003:00022e10       c4_cb_emlrtMCI             00000001800a2e10     c4_wwtp3.obj
 0003:00022e28       c4_db_emlrtMCI             00000001800a2e28     c4_wwtp3.obj
 0003:00022e40       c4_eb_emlrtMCI             00000001800a2e40     c4_wwtp3.obj
 0003:00022e58       c4_fb_emlrtMCI             00000001800a2e58     c4_wwtp3.obj
 0003:00022e70       c4_gb_emlrtMCI             00000001800a2e70     c4_wwtp3.obj
 0003:00022e88       c4_hb_emlrtMCI             00000001800a2e88     c4_wwtp3.obj
 0003:00022ea0       c4_ib_emlrtMCI             00000001800a2ea0     c4_wwtp3.obj
 0003:00022eb8       c4_jb_emlrtMCI             00000001800a2eb8     c4_wwtp3.obj
 0003:00022ed0       c4_kb_emlrtMCI             00000001800a2ed0     c4_wwtp3.obj
 0003:00022ee8       c4_lb_emlrtMCI             00000001800a2ee8     c4_wwtp3.obj
 0003:00022f00       c4_mb_emlrtMCI             00000001800a2f00     c4_wwtp3.obj
 0003:00022f18       c4_nb_emlrtMCI             00000001800a2f18     c4_wwtp3.obj
 0003:00022f30       c4_ob_emlrtMCI             00000001800a2f30     c4_wwtp3.obj
 0003:00022f48       c4_pb_emlrtMCI             00000001800a2f48     c4_wwtp3.obj
 0003:00022f60       c4_qb_emlrtMCI             00000001800a2f60     c4_wwtp3.obj
 0003:00022f78       c4_rb_emlrtMCI             00000001800a2f78     c4_wwtp3.obj
 0003:00022f90       c4_sb_emlrtMCI             00000001800a2f90     c4_wwtp3.obj
 0003:00022fa8       c4_tb_emlrtMCI             00000001800a2fa8     c4_wwtp3.obj
 0003:00022fc0       c4_ub_emlrtMCI             00000001800a2fc0     c4_wwtp3.obj
 0003:00022fd8       c4_vb_emlrtMCI             00000001800a2fd8     c4_wwtp3.obj
 0003:00022ff0       c4_wb_emlrtMCI             00000001800a2ff0     c4_wwtp3.obj
 0003:00023008       c4_yb_emlrtMCI             00000001800a3008     c4_wwtp3.obj
 0003:00023020       c4_ac_emlrtMCI             00000001800a3020     c4_wwtp3.obj
 0003:00023038       c4_bc_emlrtMCI             00000001800a3038     c4_wwtp3.obj
 0003:00023050       c4_cc_emlrtMCI             00000001800a3050     c4_wwtp3.obj
 0003:00023068       c4_dc_emlrtMCI             00000001800a3068     c4_wwtp3.obj
 0003:00023080       c4_ec_emlrtMCI             00000001800a3080     c4_wwtp3.obj
 0003:00023098       c4_fc_emlrtMCI             00000001800a3098     c4_wwtp3.obj
 0003:000230b0       c4_gc_emlrtMCI             00000001800a30b0     c4_wwtp3.obj
 0003:000230c8       c4_hc_emlrtMCI             00000001800a30c8     c4_wwtp3.obj
 0003:000230e0       c4_ic_emlrtMCI             00000001800a30e0     c4_wwtp3.obj
 0003:000230f8       c4_emlrtRSI                00000001800a30f8     c4_wwtp3.obj
 0003:00023110       c4_b_emlrtRSI              00000001800a3110     c4_wwtp3.obj
 0003:00023128       c4_c_emlrtRSI              00000001800a3128     c4_wwtp3.obj
 0003:00023140       c4_d_emlrtRSI              00000001800a3140     c4_wwtp3.obj
 0003:00023158       c4_e_emlrtRSI              00000001800a3158     c4_wwtp3.obj
 0003:00023170       c4_f_emlrtRSI              00000001800a3170     c4_wwtp3.obj
 0003:00023188       c4_g_emlrtRSI              00000001800a3188     c4_wwtp3.obj
 0003:000231a0       c4_h_emlrtRSI              00000001800a31a0     c4_wwtp3.obj
 0003:000231b8       c4_i_emlrtRSI              00000001800a31b8     c4_wwtp3.obj
 0003:000231d0       c4_j_emlrtRSI              00000001800a31d0     c4_wwtp3.obj
 0003:000231e8       c4_k_emlrtRSI              00000001800a31e8     c4_wwtp3.obj
 0003:00023200       c4_l_emlrtRSI              00000001800a3200     c4_wwtp3.obj
 0003:00023218       c4_m_emlrtRSI              00000001800a3218     c4_wwtp3.obj
 0003:00023230       c4_n_emlrtRSI              00000001800a3230     c4_wwtp3.obj
 0003:00023248       c4_o_emlrtRSI              00000001800a3248     c4_wwtp3.obj
 0003:00023260       c4_p_emlrtRSI              00000001800a3260     c4_wwtp3.obj
 0003:00023278       c4_q_emlrtRSI              00000001800a3278     c4_wwtp3.obj
 0003:00023290       c4_r_emlrtRSI              00000001800a3290     c4_wwtp3.obj
 0003:000232a8       c4_s_emlrtRSI              00000001800a32a8     c4_wwtp3.obj
 0003:000232c0       c4_t_emlrtRSI              00000001800a32c0     c4_wwtp3.obj
 0003:000232d8       c4_u_emlrtRSI              00000001800a32d8     c4_wwtp3.obj
 0003:000232f0       c4_v_emlrtRSI              00000001800a32f0     c4_wwtp3.obj
 0003:00023308       c4_w_emlrtRSI              00000001800a3308     c4_wwtp3.obj
 0003:00023320       c4_x_emlrtRSI              00000001800a3320     c4_wwtp3.obj
 0003:00023338       c4_y_emlrtRSI              00000001800a3338     c4_wwtp3.obj
 0003:00023350       c4_ab_emlrtRSI             00000001800a3350     c4_wwtp3.obj
 0003:00023368       c4_bb_emlrtRSI             00000001800a3368     c4_wwtp3.obj
 0003:00023380       c4_cb_emlrtRSI             00000001800a3380     c4_wwtp3.obj
 0003:00023398       c4_db_emlrtRSI             00000001800a3398     c4_wwtp3.obj
 0003:000233b0       c4_eb_emlrtRSI             00000001800a33b0     c4_wwtp3.obj
 0003:000233c8       c4_fb_emlrtRSI             00000001800a33c8     c4_wwtp3.obj
 0003:000233e0       c4_gb_emlrtRSI             00000001800a33e0     c4_wwtp3.obj
 0003:000233f8       c4_hb_emlrtRSI             00000001800a33f8     c4_wwtp3.obj
 0003:00023410       c4_ib_emlrtRSI             00000001800a3410     c4_wwtp3.obj
 0003:00023428       c4_jb_emlrtRSI             00000001800a3428     c4_wwtp3.obj
 0003:00023440       c4_kb_emlrtRSI             00000001800a3440     c4_wwtp3.obj
 0003:00023458       c4_lb_emlrtRSI             00000001800a3458     c4_wwtp3.obj
 0003:00023470       c4_mb_emlrtRSI             00000001800a3470     c4_wwtp3.obj
 0003:00023488       c4_nb_emlrtRSI             00000001800a3488     c4_wwtp3.obj
 0003:000234a0       c4_ob_emlrtRSI             00000001800a34a0     c4_wwtp3.obj
 0003:000234b8       c4_pb_emlrtRSI             00000001800a34b8     c4_wwtp3.obj
 0003:000234d0       c4_qb_emlrtRSI             00000001800a34d0     c4_wwtp3.obj
 0003:000234e8       c4_rb_emlrtRSI             00000001800a34e8     c4_wwtp3.obj
 0003:00023500       c4_sb_emlrtRSI             00000001800a3500     c4_wwtp3.obj
 0003:00023518       c4_tb_emlrtRSI             00000001800a3518     c4_wwtp3.obj
 0003:00023530       c4_ub_emlrtRSI             00000001800a3530     c4_wwtp3.obj
 0003:00023548       c4_vb_emlrtRSI             00000001800a3548     c4_wwtp3.obj
 0003:00023560       c4_wb_emlrtRSI             00000001800a3560     c4_wwtp3.obj
 0003:00023578       c4_xb_emlrtRSI             00000001800a3578     c4_wwtp3.obj
 0003:00023590       c4_yb_emlrtRSI             00000001800a3590     c4_wwtp3.obj
 0003:000235a8       c4_ac_emlrtRSI             00000001800a35a8     c4_wwtp3.obj
 0003:000235c0       c4_bc_emlrtRSI             00000001800a35c0     c4_wwtp3.obj
 0003:000235d8       c4_cc_emlrtRSI             00000001800a35d8     c4_wwtp3.obj
 0003:000235f0       c4_dc_emlrtRSI             00000001800a35f0     c4_wwtp3.obj
 0003:00023608       c4_ec_emlrtRSI             00000001800a3608     c4_wwtp3.obj
 0003:00023620       c4_fc_emlrtRSI             00000001800a3620     c4_wwtp3.obj
 0003:00023638       c4_gc_emlrtRSI             00000001800a3638     c4_wwtp3.obj
 0003:00023650       c4_hc_emlrtRSI             00000001800a3650     c4_wwtp3.obj
 0003:00023668       c4_ic_emlrtRSI             00000001800a3668     c4_wwtp3.obj
 0003:00023680       c4_jc_emlrtRSI             00000001800a3680     c4_wwtp3.obj
 0003:00023698       c4_kc_emlrtRSI             00000001800a3698     c4_wwtp3.obj
 0003:000236b0       c4_lc_emlrtRSI             00000001800a36b0     c4_wwtp3.obj
 0003:000236c8       c4_mc_emlrtRSI             00000001800a36c8     c4_wwtp3.obj
 0003:000236e0       c4_nc_emlrtRSI             00000001800a36e0     c4_wwtp3.obj
 0003:000236f8       c4_oc_emlrtRSI             00000001800a36f8     c4_wwtp3.obj
 0003:00023710       c4_pc_emlrtRSI             00000001800a3710     c4_wwtp3.obj
 0003:00023728       c4_qc_emlrtRSI             00000001800a3728     c4_wwtp3.obj
 0003:00023740       c4_rc_emlrtRSI             00000001800a3740     c4_wwtp3.obj
 0003:00023758       c4_sc_emlrtRSI             00000001800a3758     c4_wwtp3.obj
 0003:00023770       c4_tc_emlrtRSI             00000001800a3770     c4_wwtp3.obj
 0003:00023788       c4_uc_emlrtRSI             00000001800a3788     c4_wwtp3.obj
 0003:000237a0       c4_vc_emlrtRSI             00000001800a37a0     c4_wwtp3.obj
 0003:000237b8       c4_wc_emlrtRSI             00000001800a37b8     c4_wwtp3.obj
 0003:000237d0       c4_xc_emlrtRSI             00000001800a37d0     c4_wwtp3.obj
 0003:000237e8       c4_yc_emlrtRSI             00000001800a37e8     c4_wwtp3.obj
 0003:00023800       c4_ad_emlrtRSI             00000001800a3800     c4_wwtp3.obj
 0003:00023818       c4_bd_emlrtRSI             00000001800a3818     c4_wwtp3.obj
 0003:00023830       c4_cd_emlrtRSI             00000001800a3830     c4_wwtp3.obj
 0003:00023848       c4_dd_emlrtRSI             00000001800a3848     c4_wwtp3.obj
 0003:00023860       c4_ed_emlrtRSI             00000001800a3860     c4_wwtp3.obj
 0003:00023878       c4_fd_emlrtRSI             00000001800a3878     c4_wwtp3.obj
 0003:00023890       c4_gd_emlrtRSI             00000001800a3890     c4_wwtp3.obj
 0003:000238a8       c4_hd_emlrtRSI             00000001800a38a8     c4_wwtp3.obj
 0003:000238c0       c4_id_emlrtRSI             00000001800a38c0     c4_wwtp3.obj
 0003:000238d8       c4_jd_emlrtRSI             00000001800a38d8     c4_wwtp3.obj
 0003:000238f0       c4_kd_emlrtRSI             00000001800a38f0     c4_wwtp3.obj
 0003:00023908       c4_ld_emlrtRSI             00000001800a3908     c4_wwtp3.obj
 0003:00023920       c4_md_emlrtRSI             00000001800a3920     c4_wwtp3.obj
 0003:00023938       c4_nd_emlrtRSI             00000001800a3938     c4_wwtp3.obj
 0003:00023950       c4_od_emlrtRSI             00000001800a3950     c4_wwtp3.obj
 0003:00023968       c4_pd_emlrtRSI             00000001800a3968     c4_wwtp3.obj
 0003:00023980       c4_qd_emlrtRSI             00000001800a3980     c4_wwtp3.obj
 0003:00023998       c4_rd_emlrtRSI             00000001800a3998     c4_wwtp3.obj
 0003:000239b0       c4_sd_emlrtRSI             00000001800a39b0     c4_wwtp3.obj
 0003:000239c8       c4_td_emlrtRSI             00000001800a39c8     c4_wwtp3.obj
 0003:000239e0       c4_vd_emlrtRSI             00000001800a39e0     c4_wwtp3.obj
 0003:000239f8       c4_wd_emlrtRSI             00000001800a39f8     c4_wwtp3.obj
 0003:00023a10       c4_xd_emlrtRSI             00000001800a3a10     c4_wwtp3.obj
 0003:00023a28       c4_yd_emlrtRSI             00000001800a3a28     c4_wwtp3.obj
 0003:00023a40       c4_ae_emlrtRSI             00000001800a3a40     c4_wwtp3.obj
 0003:00023a58       c4_be_emlrtRSI             00000001800a3a58     c4_wwtp3.obj
 0003:00023a70       c4_ce_emlrtRSI             00000001800a3a70     c4_wwtp3.obj
 0003:00023a88       c4_de_emlrtRSI             00000001800a3a88     c4_wwtp3.obj
 0003:00023aa0       c4_ee_emlrtRSI             00000001800a3aa0     c4_wwtp3.obj
 0003:00023ab8       c4_fe_emlrtRSI             00000001800a3ab8     c4_wwtp3.obj
 0003:00023ad0       c4_ge_emlrtRSI             00000001800a3ad0     c4_wwtp3.obj
 0003:00023ae8       c4_he_emlrtRSI             00000001800a3ae8     c4_wwtp3.obj
 0003:00023b00       c4_ie_emlrtRSI             00000001800a3b00     c4_wwtp3.obj
 0003:00023b18       c4_je_emlrtRSI             00000001800a3b18     c4_wwtp3.obj
 0003:00023b30       c4_ke_emlrtRSI             00000001800a3b30     c4_wwtp3.obj
 0003:00023b48       c4_le_emlrtRSI             00000001800a3b48     c4_wwtp3.obj
 0003:00023b60       c4_me_emlrtRSI             00000001800a3b60     c4_wwtp3.obj
 0003:00023b78       c4_ne_emlrtRSI             00000001800a3b78     c4_wwtp3.obj
 0003:00023b90       c4_oe_emlrtRSI             00000001800a3b90     c4_wwtp3.obj
 0003:00023ba8       c4_pe_emlrtRSI             00000001800a3ba8     c4_wwtp3.obj
 0003:00023bc0       c4_qe_emlrtRSI             00000001800a3bc0     c4_wwtp3.obj
 0003:00023bd8       c4_re_emlrtRSI             00000001800a3bd8     c4_wwtp3.obj
 0003:00023bf0       c4_se_emlrtRSI             00000001800a3bf0     c4_wwtp3.obj
 0003:00023c08       c4_te_emlrtRSI             00000001800a3c08     c4_wwtp3.obj
 0003:00023c20       c4_ue_emlrtRSI             00000001800a3c20     c4_wwtp3.obj
 0003:00023c38       c4_ve_emlrtRSI             00000001800a3c38     c4_wwtp3.obj
 0003:00023c50       c4_we_emlrtRSI             00000001800a3c50     c4_wwtp3.obj
 0003:00023c68       c4_xe_emlrtRSI             00000001800a3c68     c4_wwtp3.obj
 0003:00023c80       c4_ye_emlrtRSI             00000001800a3c80     c4_wwtp3.obj
 0003:00023c98       c4_af_emlrtRSI             00000001800a3c98     c4_wwtp3.obj
 0003:00023cb0       c4_bf_emlrtRSI             00000001800a3cb0     c4_wwtp3.obj
 0003:00023cc8       c4_cf_emlrtRSI             00000001800a3cc8     c4_wwtp3.obj
 0003:00023ce0       c4_df_emlrtRSI             00000001800a3ce0     c4_wwtp3.obj
 0003:00023cf8       c4_ef_emlrtRSI             00000001800a3cf8     c4_wwtp3.obj
 0003:00023d10       c4_ff_emlrtRSI             00000001800a3d10     c4_wwtp3.obj
 0003:00023d28       c4_gf_emlrtRSI             00000001800a3d28     c4_wwtp3.obj
 0003:00023d40       c4_hf_emlrtRSI             00000001800a3d40     c4_wwtp3.obj
 0003:00023d58       c4_if_emlrtRSI             00000001800a3d58     c4_wwtp3.obj
 0003:00023d70       c4_jf_emlrtRSI             00000001800a3d70     c4_wwtp3.obj
 0003:00023d88       c4_kf_emlrtRSI             00000001800a3d88     c4_wwtp3.obj
 0003:00023da0       c4_lf_emlrtRSI             00000001800a3da0     c4_wwtp3.obj
 0003:00023db8       c4_mf_emlrtRSI             00000001800a3db8     c4_wwtp3.obj
 0003:00023dd0       c4_nf_emlrtRSI             00000001800a3dd0     c4_wwtp3.obj
 0003:00023de8       c4_of_emlrtRSI             00000001800a3de8     c4_wwtp3.obj
 0003:00023e00       c4_pf_emlrtRSI             00000001800a3e00     c4_wwtp3.obj
 0003:00023e18       c4_qf_emlrtRSI             00000001800a3e18     c4_wwtp3.obj
 0003:00023e30       c4_rf_emlrtRSI             00000001800a3e30     c4_wwtp3.obj
 0003:00023e48       c4_sf_emlrtRSI             00000001800a3e48     c4_wwtp3.obj
 0003:00023e60       c4_tf_emlrtRSI             00000001800a3e60     c4_wwtp3.obj
 0003:00023e78       c4_uf_emlrtRSI             00000001800a3e78     c4_wwtp3.obj
 0003:00023e90       c4_vf_emlrtRSI             00000001800a3e90     c4_wwtp3.obj
 0003:00023ea8       c4_wf_emlrtRSI             00000001800a3ea8     c4_wwtp3.obj
 0003:00023ec0       c4_xf_emlrtRSI             00000001800a3ec0     c4_wwtp3.obj
 0003:00023ed8       c4_yf_emlrtRSI             00000001800a3ed8     c4_wwtp3.obj
 0003:00023ef0       c4_ag_emlrtRSI             00000001800a3ef0     c4_wwtp3.obj
 0003:00023f08       c4_bg_emlrtRSI             00000001800a3f08     c4_wwtp3.obj
 0003:00023f20       c4_cg_emlrtRSI             00000001800a3f20     c4_wwtp3.obj
 0003:00023f38       c4_dg_emlrtRSI             00000001800a3f38     c4_wwtp3.obj
 0003:00023f50       c4_eg_emlrtRSI             00000001800a3f50     c4_wwtp3.obj
 0003:00023f68       c4_fg_emlrtRSI             00000001800a3f68     c4_wwtp3.obj
 0003:00023f80       c4_gg_emlrtRSI             00000001800a3f80     c4_wwtp3.obj
 0003:00023f98       c4_hg_emlrtRSI             00000001800a3f98     c4_wwtp3.obj
 0003:00023fb0       c4_ig_emlrtRSI             00000001800a3fb0     c4_wwtp3.obj
 0003:00023fc8       c4_jg_emlrtRSI             00000001800a3fc8     c4_wwtp3.obj
 0003:00023fe0       c4_kg_emlrtRSI             00000001800a3fe0     c4_wwtp3.obj
 0003:00023ff8       c4_lg_emlrtRSI             00000001800a3ff8     c4_wwtp3.obj
 0003:00024010       c4_mg_emlrtRSI             00000001800a4010     c4_wwtp3.obj
 0003:00024028       c4_ng_emlrtRSI             00000001800a4028     c4_wwtp3.obj
 0003:00024040       c4_og_emlrtRSI             00000001800a4040     c4_wwtp3.obj
 0003:00024058       c4_pg_emlrtRSI             00000001800a4058     c4_wwtp3.obj
 0003:00024070       c4_qg_emlrtRSI             00000001800a4070     c4_wwtp3.obj
 0003:00024088       c4_rg_emlrtRSI             00000001800a4088     c4_wwtp3.obj
 0003:000240a0       c4_sg_emlrtRSI             00000001800a40a0     c4_wwtp3.obj
 0003:000240b8       c4_tg_emlrtRSI             00000001800a40b8     c4_wwtp3.obj
 0003:000240d0       c4_ug_emlrtRSI             00000001800a40d0     c4_wwtp3.obj
 0003:000240e8       c4_vg_emlrtRSI             00000001800a40e8     c4_wwtp3.obj
 0003:00024100       c4_wg_emlrtRSI             00000001800a4100     c4_wwtp3.obj
 0003:00024118       c4_xg_emlrtRSI             00000001800a4118     c4_wwtp3.obj
 0003:00024130       c4_yg_emlrtRSI             00000001800a4130     c4_wwtp3.obj
 0003:00024148       c4_ah_emlrtRSI             00000001800a4148     c4_wwtp3.obj
 0003:00024160       c4_bh_emlrtRSI             00000001800a4160     c4_wwtp3.obj
 0003:00024178       c4_ch_emlrtRSI             00000001800a4178     c4_wwtp3.obj
 0003:00024190       c4_dh_emlrtRSI             00000001800a4190     c4_wwtp3.obj
 0003:000241a8       c4_eh_emlrtRSI             00000001800a41a8     c4_wwtp3.obj
 0003:000241c0       c4_fh_emlrtRSI             00000001800a41c0     c4_wwtp3.obj
 0003:000241d8       c4_gh_emlrtRSI             00000001800a41d8     c4_wwtp3.obj
 0003:000241f0       c4_hh_emlrtRSI             00000001800a41f0     c4_wwtp3.obj
 0003:00024208       c4_ih_emlrtRSI             00000001800a4208     c4_wwtp3.obj
 0003:00024220       c4_jh_emlrtRSI             00000001800a4220     c4_wwtp3.obj
 0003:00024238       c4_kh_emlrtRSI             00000001800a4238     c4_wwtp3.obj
 0003:00024250       c4_lh_emlrtRSI             00000001800a4250     c4_wwtp3.obj
 0003:00024268       c4_mh_emlrtRSI             00000001800a4268     c4_wwtp3.obj
 0003:00024280       c4_nh_emlrtRSI             00000001800a4280     c4_wwtp3.obj
 0003:00024298       c4_oh_emlrtRSI             00000001800a4298     c4_wwtp3.obj
 0003:000242b0       c4_ph_emlrtRSI             00000001800a42b0     c4_wwtp3.obj
 0003:000242c8       c4_qh_emlrtRSI             00000001800a42c8     c4_wwtp3.obj
 0003:000242e0       c4_rh_emlrtRSI             00000001800a42e0     c4_wwtp3.obj
 0003:000242f8       c4_sh_emlrtRSI             00000001800a42f8     c4_wwtp3.obj
 0003:00024310       c4_th_emlrtRSI             00000001800a4310     c4_wwtp3.obj
 0003:00024328       c4_uh_emlrtRSI             00000001800a4328     c4_wwtp3.obj
 0003:00024340       c4_vh_emlrtRSI             00000001800a4340     c4_wwtp3.obj
 0003:00024358       c4_wh_emlrtRSI             00000001800a4358     c4_wwtp3.obj
 0003:00024370       c4_xh_emlrtRSI             00000001800a4370     c4_wwtp3.obj
 0003:00024388       c4_yh_emlrtRSI             00000001800a4388     c4_wwtp3.obj
 0003:000243a0       c4_ai_emlrtRSI             00000001800a43a0     c4_wwtp3.obj
 0003:000243b8       c4_bi_emlrtRSI             00000001800a43b8     c4_wwtp3.obj
 0003:000243d0       c4_ci_emlrtRSI             00000001800a43d0     c4_wwtp3.obj
 0003:000243e8       c4_di_emlrtRSI             00000001800a43e8     c4_wwtp3.obj
 0003:00024400       c4_ei_emlrtRSI             00000001800a4400     c4_wwtp3.obj
 0003:00024418       c4_fi_emlrtRSI             00000001800a4418     c4_wwtp3.obj
 0003:00024430       c4_gi_emlrtRSI             00000001800a4430     c4_wwtp3.obj
 0003:00024448       c4_hi_emlrtRSI             00000001800a4448     c4_wwtp3.obj
 0003:00024460       c4_ii_emlrtRSI             00000001800a4460     c4_wwtp3.obj
 0003:00024478       c4_ji_emlrtRSI             00000001800a4478     c4_wwtp3.obj
 0003:00024490       c4_ki_emlrtRSI             00000001800a4490     c4_wwtp3.obj
 0003:000244a8       c4_li_emlrtRSI             00000001800a44a8     c4_wwtp3.obj
 0003:000244c0       c4_mi_emlrtRSI             00000001800a44c0     c4_wwtp3.obj
 0003:000244d8       c4_ni_emlrtRSI             00000001800a44d8     c4_wwtp3.obj
 0003:000244f0       c4_oi_emlrtRSI             00000001800a44f0     c4_wwtp3.obj
 0003:00024508       c4_pi_emlrtRSI             00000001800a4508     c4_wwtp3.obj
 0003:00024520       c4_qi_emlrtRSI             00000001800a4520     c4_wwtp3.obj
 0003:00024538       c4_ri_emlrtRSI             00000001800a4538     c4_wwtp3.obj
 0003:00024550       c4_si_emlrtRSI             00000001800a4550     c4_wwtp3.obj
 0003:00024568       c4_ti_emlrtRSI             00000001800a4568     c4_wwtp3.obj
 0003:00024580       c4_ui_emlrtRSI             00000001800a4580     c4_wwtp3.obj
 0003:00024598       c4_vi_emlrtRSI             00000001800a4598     c4_wwtp3.obj
 0003:000245b0       c4_wi_emlrtRSI             00000001800a45b0     c4_wwtp3.obj
 0003:000245c8       c4_xi_emlrtRSI             00000001800a45c8     c4_wwtp3.obj
 0003:000245e0       c4_kj_emlrtRSI             00000001800a45e0     c4_wwtp3.obj
 0003:000245f8       c4_lj_emlrtRSI             00000001800a45f8     c4_wwtp3.obj
 0003:00024610       c4_mj_emlrtRSI             00000001800a4610     c4_wwtp3.obj
 0003:00024628       c4_nj_emlrtRSI             00000001800a4628     c4_wwtp3.obj
 0003:00024640       c4_oj_emlrtRSI             00000001800a4640     c4_wwtp3.obj
 0003:00024658       c4_pj_emlrtRSI             00000001800a4658     c4_wwtp3.obj
 0003:00024670       c4_qj_emlrtRSI             00000001800a4670     c4_wwtp3.obj
 0003:00024688       c4_rj_emlrtRSI             00000001800a4688     c4_wwtp3.obj
 0003:000246a0       c4_sj_emlrtRSI             00000001800a46a0     c4_wwtp3.obj
 0003:000246b8       c4_tj_emlrtRSI             00000001800a46b8     c4_wwtp3.obj
 0003:000246d0       c4_uj_emlrtRSI             00000001800a46d0     c4_wwtp3.obj
 0003:000246e8       c4_wj_emlrtRSI             00000001800a46e8     c4_wwtp3.obj
 0003:00024700       c4_xj_emlrtRSI             00000001800a4700     c4_wwtp3.obj
 0003:00024718       c4_yj_emlrtRSI             00000001800a4718     c4_wwtp3.obj
 0003:00024730       c4_ak_emlrtRSI             00000001800a4730     c4_wwtp3.obj
 0003:00024748       c4_bk_emlrtRSI             00000001800a4748     c4_wwtp3.obj
 0003:00024760       c4_ck_emlrtRSI             00000001800a4760     c4_wwtp3.obj
 0003:00024778       c4_dk_emlrtRSI             00000001800a4778     c4_wwtp3.obj
 0003:00024790       c4_ek_emlrtRSI             00000001800a4790     c4_wwtp3.obj
 0003:000247a8       c4_fk_emlrtRSI             00000001800a47a8     c4_wwtp3.obj
 0003:000247c0       c4_gk_emlrtRSI             00000001800a47c0     c4_wwtp3.obj
 0003:000247d8       c4_hk_emlrtRSI             00000001800a47d8     c4_wwtp3.obj
 0003:000247f0       c4_ik_emlrtRSI             00000001800a47f0     c4_wwtp3.obj
 0003:00024808       c4_jk_emlrtRSI             00000001800a4808     c4_wwtp3.obj
 0003:00024820       c4_kk_emlrtRSI             00000001800a4820     c4_wwtp3.obj
 0003:00024838       c4_lk_emlrtRSI             00000001800a4838     c4_wwtp3.obj
 0003:00024850       c4_mk_emlrtRSI             00000001800a4850     c4_wwtp3.obj
 0003:00024868       c4_nk_emlrtRSI             00000001800a4868     c4_wwtp3.obj
 0003:00024880       c4_ok_emlrtRSI             00000001800a4880     c4_wwtp3.obj
 0003:00024898       c4_pk_emlrtRSI             00000001800a4898     c4_wwtp3.obj
 0003:000248b0       c4_qk_emlrtRSI             00000001800a48b0     c4_wwtp3.obj
 0003:000248c8       c4_rk_emlrtRSI             00000001800a48c8     c4_wwtp3.obj
 0003:000248e0       c4_sk_emlrtRSI             00000001800a48e0     c4_wwtp3.obj
 0003:000248f8       c4_tk_emlrtRSI             00000001800a48f8     c4_wwtp3.obj
 0003:00024910       c4_uk_emlrtRSI             00000001800a4910     c4_wwtp3.obj
 0003:00024928       c4_vk_emlrtRSI             00000001800a4928     c4_wwtp3.obj
 0003:00024940       c4_wk_emlrtRSI             00000001800a4940     c4_wwtp3.obj
 0003:00024958       c4_xk_emlrtRSI             00000001800a4958     c4_wwtp3.obj
 0003:00024970       c4_yk_emlrtRSI             00000001800a4970     c4_wwtp3.obj
 0003:00024988       c4_al_emlrtRSI             00000001800a4988     c4_wwtp3.obj
 0003:000249a0       c4_b_emlrtRTEI             00000001800a49a0     c4_wwtp3.obj
 0003:000249b8       c4_c_emlrtRTEI             00000001800a49b8     c4_wwtp3.obj
 0003:000249d0       c4_d_emlrtRTEI             00000001800a49d0     c4_wwtp3.obj
 0003:000249e8       c4_e_emlrtRTEI             00000001800a49e8     c4_wwtp3.obj
 0003:00024a00       c4_f_emlrtRTEI             00000001800a4a00     c4_wwtp3.obj
 0003:00024a18       c4_g_emlrtRTEI             00000001800a4a18     c4_wwtp3.obj
 0003:00024a30       c4_h_emlrtRTEI             00000001800a4a30     c4_wwtp3.obj
 0003:00024a48       c4_i_emlrtRTEI             00000001800a4a48     c4_wwtp3.obj
 0003:00024a60       c4_j_emlrtRTEI             00000001800a4a60     c4_wwtp3.obj
 0003:00024a78       c4_k_emlrtRTEI             00000001800a4a78     c4_wwtp3.obj
 0003:00024a90       c4_l_emlrtRTEI             00000001800a4a90     c4_wwtp3.obj
 0003:00024aa8       c4_m_emlrtRTEI             00000001800a4aa8     c4_wwtp3.obj
 0003:00024ac0       c4_u_emlrtRTEI             00000001800a4ac0     c4_wwtp3.obj
 0003:00024ad8       c4_v_emlrtRTEI             00000001800a4ad8     c4_wwtp3.obj
 0003:00024af0       c4_w_emlrtRTEI             00000001800a4af0     c4_wwtp3.obj
 0003:00024b08       c4_x_emlrtRTEI             00000001800a4b08     c4_wwtp3.obj
 0003:00024b20       c4_db_emlrtRTEI            00000001800a4b20     c4_wwtp3.obj
 0003:00024b38       c4_hb_emlrtRTEI            00000001800a4b38     c4_wwtp3.obj
 0003:00024b50       c4_ib_emlrtRTEI            00000001800a4b50     c4_wwtp3.obj
 0003:00024b68       c4_jb_emlrtRTEI            00000001800a4b68     c4_wwtp3.obj
 0003:00024b80       c4_kb_emlrtRTEI            00000001800a4b80     c4_wwtp3.obj
 0003:00024b98       c4_lb_emlrtRTEI            00000001800a4b98     c4_wwtp3.obj
 0003:00024bb0       c4_mb_emlrtRTEI            00000001800a4bb0     c4_wwtp3.obj
 0003:00024bc8       c4_nb_emlrtRTEI            00000001800a4bc8     c4_wwtp3.obj
 0003:00024be0       c4_ob_emlrtRTEI            00000001800a4be0     c4_wwtp3.obj
 0003:00024bf8       c4_pb_emlrtRTEI            00000001800a4bf8     c4_wwtp3.obj
 0003:00024c10       c4_qb_emlrtRTEI            00000001800a4c10     c4_wwtp3.obj
 0003:00024c28       c4_rb_emlrtRTEI            00000001800a4c28     c4_wwtp3.obj
 0003:00024c40       c4_tb_emlrtRTEI            00000001800a4c40     c4_wwtp3.obj
 0003:00024c58       c4_ub_emlrtRTEI            00000001800a4c58     c4_wwtp3.obj
 0003:00024c70       c4_vb_emlrtRTEI            00000001800a4c70     c4_wwtp3.obj
 0003:00024c88       c4_cc_emlrtRTEI            00000001800a4c88     c4_wwtp3.obj
 0003:00024ca0       c4_dc_emlrtRTEI            00000001800a4ca0     c4_wwtp3.obj
 0003:00024cb8       c4_ec_emlrtRTEI            00000001800a4cb8     c4_wwtp3.obj
 0003:00024cd0       c4_fc_emlrtRTEI            00000001800a4cd0     c4_wwtp3.obj
 0003:00024ce8       c4_gc_emlrtRTEI            00000001800a4ce8     c4_wwtp3.obj
 0003:00024d00       c4_hc_emlrtRTEI            00000001800a4d00     c4_wwtp3.obj
 0003:00024d18       c4_ic_emlrtRTEI            00000001800a4d18     c4_wwtp3.obj
 0003:00024d30       c4_jc_emlrtRTEI            00000001800a4d30     c4_wwtp3.obj
 0003:00024d48       c4_kc_emlrtRTEI            00000001800a4d48     c4_wwtp3.obj
 0003:00024d60       c4_lc_emlrtRTEI            00000001800a4d60     c4_wwtp3.obj
 0003:00024d78       c4_mc_emlrtRTEI            00000001800a4d78     c4_wwtp3.obj
 0003:00024d90       c4_nc_emlrtRTEI            00000001800a4d90     c4_wwtp3.obj
 0003:00024da8       c4_oc_emlrtRTEI            00000001800a4da8     c4_wwtp3.obj
 0003:00024dc0       c4_pc_emlrtRTEI            00000001800a4dc0     c4_wwtp3.obj
 0003:00024dd8       c4_rc_emlrtRTEI            00000001800a4dd8     c4_wwtp3.obj
 0003:00024df0       c4_sc_emlrtRTEI            00000001800a4df0     c4_wwtp3.obj
 0003:00024e08       c4_tc_emlrtRTEI            00000001800a4e08     c4_wwtp3.obj
 0003:00024e20       c4_uc_emlrtRTEI            00000001800a4e20     c4_wwtp3.obj
 0003:00024e38       c4_vc_emlrtRTEI            00000001800a4e38     c4_wwtp3.obj
 0003:00024e50       c4_wc_emlrtRTEI            00000001800a4e50     c4_wwtp3.obj
 0003:00024e68       c4_xc_emlrtRTEI            00000001800a4e68     c4_wwtp3.obj
 0003:00024e80       c4_yc_emlrtRTEI            00000001800a4e80     c4_wwtp3.obj
 0003:00024e98       c4_ad_emlrtRTEI            00000001800a4e98     c4_wwtp3.obj
 0003:00024eb0       c4_bd_emlrtRTEI            00000001800a4eb0     c4_wwtp3.obj
 0003:00024ec8       c4_cd_emlrtRTEI            00000001800a4ec8     c4_wwtp3.obj
 0003:00024ee0       c4_dd_emlrtRTEI            00000001800a4ee0     c4_wwtp3.obj
 0003:00024ef8       c4_ed_emlrtRTEI            00000001800a4ef8     c4_wwtp3.obj
 0003:00024f10       c4_fd_emlrtRTEI            00000001800a4f10     c4_wwtp3.obj
 0003:00024f28       c4_gd_emlrtRTEI            00000001800a4f28     c4_wwtp3.obj
 0003:00024f40       c4_hd_emlrtRTEI            00000001800a4f40     c4_wwtp3.obj
 0003:00024f58       c4_id_emlrtRTEI            00000001800a4f58     c4_wwtp3.obj
 0003:00024f70       c4_jd_emlrtRTEI            00000001800a4f70     c4_wwtp3.obj
 0003:00024f88       c4_emlrtBCI                00000001800a4f88     c4_wwtp3.obj
 0003:00024fb8       c4_b_emlrtBCI              00000001800a4fb8     c4_wwtp3.obj
 0003:00024fe8       c4_c_emlrtBCI              00000001800a4fe8     c4_wwtp3.obj
 0003:00025018       c4_d_emlrtBCI              00000001800a5018     c4_wwtp3.obj
 0003:00025048       c4_e_emlrtBCI              00000001800a5048     c4_wwtp3.obj
 0003:00025078       c4_emlrtDCI                00000001800a5078     c4_wwtp3.obj
 0003:00025098       c4_b_emlrtDCI              00000001800a5098     c4_wwtp3.obj
 0003:000250b8       c4_c_emlrtDCI              00000001800a50b8     c4_wwtp3.obj
 0003:000250d8       c4_d_emlrtDCI              00000001800a50d8     c4_wwtp3.obj
 0003:000250f8       c4_f_emlrtBCI              00000001800a50f8     c4_wwtp3.obj
 0003:00025128       c4_g_emlrtBCI              00000001800a5128     c4_wwtp3.obj
 0003:00025158       c4_e_emlrtDCI              00000001800a5158     c4_wwtp3.obj
 0003:00025178       c4_h_emlrtBCI              00000001800a5178     c4_wwtp3.obj
 0003:000251a8       c4_kd_emlrtRTEI            00000001800a51a8     c4_wwtp3.obj
 0003:000251c0       c4_f_emlrtDCI              00000001800a51c0     c4_wwtp3.obj
 0003:000251e0       c4_i_emlrtBCI              00000001800a51e0     c4_wwtp3.obj
 0003:00025210       c4_j_emlrtBCI              00000001800a5210     c4_wwtp3.obj
 0003:00025240       c4_k_emlrtBCI              00000001800a5240     c4_wwtp3.obj
 0003:00025270       c4_g_emlrtDCI              00000001800a5270     c4_wwtp3.obj
 0003:00025290       c4_l_emlrtBCI              00000001800a5290     c4_wwtp3.obj
 0003:000252c0       c4_h_emlrtDCI              00000001800a52c0     c4_wwtp3.obj
 0003:000252e0       c4_m_emlrtBCI              00000001800a52e0     c4_wwtp3.obj
 0003:00025310       c4_i_emlrtDCI              00000001800a5310     c4_wwtp3.obj
 0003:00025330       c4_n_emlrtBCI              00000001800a5330     c4_wwtp3.obj
 0003:00025360       c4_j_emlrtDCI              00000001800a5360     c4_wwtp3.obj
 0003:00025380       c4_o_emlrtBCI              00000001800a5380     c4_wwtp3.obj
 0003:000253b0       c4_p_emlrtBCI              00000001800a53b0     c4_wwtp3.obj
 0003:000253e0       c4_k_emlrtDCI              00000001800a53e0     c4_wwtp3.obj
 0003:00025400       c4_q_emlrtBCI              00000001800a5400     c4_wwtp3.obj
 0003:00025430       c4_l_emlrtDCI              00000001800a5430     c4_wwtp3.obj
 0003:00025450       c4_r_emlrtBCI              00000001800a5450     c4_wwtp3.obj
 0003:00025480       c4_m_emlrtDCI              00000001800a5480     c4_wwtp3.obj
 0003:000254a0       c4_s_emlrtBCI              00000001800a54a0     c4_wwtp3.obj
 0003:000254d0       c4_n_emlrtDCI              00000001800a54d0     c4_wwtp3.obj
 0003:000254f0       c4_t_emlrtBCI              00000001800a54f0     c4_wwtp3.obj
 0003:00025520       c4_ld_emlrtRTEI            00000001800a5520     c4_wwtp3.obj
 0003:00025538       c4_md_emlrtRTEI            00000001800a5538     c4_wwtp3.obj
 0003:00025550       c4_u_emlrtBCI              00000001800a5550     c4_wwtp3.obj
 0003:00025580       c4_o_emlrtDCI              00000001800a5580     c4_wwtp3.obj
 0003:000255a0       c4_v_emlrtBCI              00000001800a55a0     c4_wwtp3.obj
 0003:000255d0       c4_w_emlrtBCI              00000001800a55d0     c4_wwtp3.obj
 0003:00025600       c4_p_emlrtDCI              00000001800a5600     c4_wwtp3.obj
 0003:00025620       c4_q_emlrtDCI              00000001800a5620     c4_wwtp3.obj
 0003:00025640       c4_x_emlrtBCI              00000001800a5640     c4_wwtp3.obj
 0003:00025670       c4_y_emlrtBCI              00000001800a5670     c4_wwtp3.obj
 0003:000256a0       c4_r_emlrtDCI              00000001800a56a0     c4_wwtp3.obj
 0003:000256c0       c4_ab_emlrtBCI             00000001800a56c0     c4_wwtp3.obj
 0003:000256f0       c4_bb_emlrtBCI             00000001800a56f0     c4_wwtp3.obj
 0003:00025720       c4_cb_emlrtBCI             00000001800a5720     c4_wwtp3.obj
 0003:00025750       c4_db_emlrtBCI             00000001800a5750     c4_wwtp3.obj
 0003:00025780       c4_bl_emlrtRSI             00000001800a5780     c4_wwtp3.obj
 0003:00025798       c4_cl_emlrtRSI             00000001800a5798     c4_wwtp3.obj
 0003:000257b0       c4_dl_emlrtRSI             00000001800a57b0     c4_wwtp3.obj
 0003:000257c8       c4_el_emlrtRSI             00000001800a57c8     c4_wwtp3.obj
 0003:000257e0       c4_fl_emlrtRSI             00000001800a57e0     c4_wwtp3.obj
 0003:000257f8       c4_gl_emlrtRSI             00000001800a57f8     c4_wwtp3.obj
 0003:00025810       c4_hl_emlrtRSI             00000001800a5810     c4_wwtp3.obj
 0003:00025828       c4_il_emlrtRSI             00000001800a5828     c4_wwtp3.obj
 0003:00025840       c4_jl_emlrtRSI             00000001800a5840     c4_wwtp3.obj
 0003:00025858       c4_kl_emlrtRSI             00000001800a5858     c4_wwtp3.obj
 0003:00025870       c4_ll_emlrtRSI             00000001800a5870     c4_wwtp3.obj
 0003:00025888       c4_cv                      00000001800a5888     c4_wwtp3.obj
 0003:00025898       c4_cv2                     00000001800a5898     c4_wwtp3.obj
 0003:000258b8       c4_cv5                     00000001800a58b8     c4_wwtp3.obj
 0003:000258e0       c4_cv1                     00000001800a58e0     c4_wwtp3.obj
 0003:00025960       c4_cv3                     00000001800a5960     c4_wwtp3.obj
 0003:00025990       c4_cv4                     00000001800a5990     c4_wwtp3.obj
 0003:000259a0       c4_cv6                     00000001800a59a0     c4_wwtp3.obj
 0003:000259c8       c4_cv7                     00000001800a59c8     c4_wwtp3.obj
 0003:000259f8       c4_cv8                     00000001800a59f8     c4_wwtp3.obj
 0003:00025a24       $SG29683                   00000001800a5a24     c4_wwtp3.obj
 0003:00025a28       c4_cv9                     00000001800a5a28     c4_wwtp3.obj
 0003:00025a50       c4_cv10                    00000001800a5a50     c4_wwtp3.obj
 0003:00025a70       c4_cv11                    00000001800a5a70     c4_wwtp3.obj
 0003:00025a80       c4_cv12                    00000001800a5a80     c4_wwtp3.obj
 0003:00025a8c       $SG29684                   00000001800a5a8c     c4_wwtp3.obj
 0003:00025a90       c4_cv13                    00000001800a5a90     c4_wwtp3.obj
 0003:00025ab4       $SG29685                   00000001800a5ab4     c4_wwtp3.obj
 0003:00025ab8       c4_cv14                    00000001800a5ab8     c4_wwtp3.obj
 0003:00025ae8       c4_cv15                    00000001800a5ae8     c4_wwtp3.obj
 0003:00025b14       $SG29688                   00000001800a5b14     c4_wwtp3.obj
 0003:00025b1c       $SG29692                   00000001800a5b1c     c4_wwtp3.obj
 0003:00025b20       c4_cv16                    00000001800a5b20     c4_wwtp3.obj
 0003:00025b40       $SG29261                   00000001800a5b40     c4_wwtp3.obj
 0003:00025b4c       $SG29693                   00000001800a5b4c     c4_wwtp3.obj
 0003:00025b50       $SG29262                   00000001800a5b50     c4_wwtp3.obj
 0003:00025b78       $SG29286                   00000001800a5b78     c4_wwtp3.obj
 0003:00025b88       ?c4_iv@?1??sf_gateway_c4_wwtp3@@9@9 00000001800a5b88     c4_wwtp3.obj
 0003:00025b90       ?c4_b_cv4@?1??sf_gateway_c4_wwtp3@@9@9 00000001800a5b90     c4_wwtp3.obj
 0003:00025bb4       $SG29694                   00000001800a5bb4     c4_wwtp3.obj
 0003:00025bb8       ?c4_b_cv2@?1??sf_gateway_c4_wwtp3@@9@9 00000001800a5bb8     c4_wwtp3.obj
 0003:00025bd8       ?c4_b_cv@?1??sf_gateway_c4_wwtp3@@9@9 00000001800a5bd8     c4_wwtp3.obj
 0003:00025bf4       $SG29702                   00000001800a5bf4     c4_wwtp3.obj
 0003:00025bf8       ?c4_b_cv1@?1??sf_gateway_c4_wwtp3@@9@9 00000001800a5bf8     c4_wwtp3.obj
 0003:00025c10       ?c4_b_cv5@?1??sf_gateway_c4_wwtp3@@9@9 00000001800a5c10     c4_wwtp3.obj
 0003:00025c18       ?c4_b_cv3@?1??sf_gateway_c4_wwtp3@@9@9 00000001800a5c18     c4_wwtp3.obj
 0003:00025c20       $SG29686                   00000001800a5c20     c4_wwtp3.obj
 0003:00025c28       $SG29687                   00000001800a5c28     c4_wwtp3.obj
 0003:00025c34       $SG29703                   00000001800a5c34     c4_wwtp3.obj
 0003:00025c38       $SG29695                   00000001800a5c38     c4_wwtp3.obj
 0003:00025c40       $SG29696                   00000001800a5c40     c4_wwtp3.obj
 0003:00025c4c       $SG29697                   00000001800a5c4c     c4_wwtp3.obj
 0003:00025c54       $SG29704                   00000001800a5c54     c4_wwtp3.obj
 0003:00025c58       $SG29705                   00000001800a5c58     c4_wwtp3.obj
 0003:00025c5c       $SG29722                   00000001800a5c5c     c4_wwtp3.obj
 0003:00025c60       $SG29706                   00000001800a5c60     c4_wwtp3.obj
 0003:00025c68       $SG29707                   00000001800a5c68     c4_wwtp3.obj
 0003:00025c74       $SG29708                   00000001800a5c74     c4_wwtp3.obj
 0003:00025c7c       $SG29723                   00000001800a5c7c     c4_wwtp3.obj
 0003:00025c80       $SG29724                   00000001800a5c80     c4_wwtp3.obj
 0003:00025c84       $SG29729                   00000001800a5c84     c4_wwtp3.obj
 0003:00025c88       $SG29725                   00000001800a5c88     c4_wwtp3.obj
 0003:00025c90       $SG29726                   00000001800a5c90     c4_wwtp3.obj
 0003:00025c9c       $SG29727                   00000001800a5c9c     c4_wwtp3.obj
 0003:00025ca4       $SG29730                   00000001800a5ca4     c4_wwtp3.obj
 0003:00025ca8       $SG29731                   00000001800a5ca8     c4_wwtp3.obj
 0003:00025cac       $SG29736                   00000001800a5cac     c4_wwtp3.obj
 0003:00025cb0       $SG29732                   00000001800a5cb0     c4_wwtp3.obj
 0003:00025cb8       $SG29733                   00000001800a5cb8     c4_wwtp3.obj
 0003:00025cc4       $SG29734                   00000001800a5cc4     c4_wwtp3.obj
 0003:00025ccc       $SG29737                   00000001800a5ccc     c4_wwtp3.obj
 0003:00025cd0       $SG29738                   00000001800a5cd0     c4_wwtp3.obj
 0003:00025cd4       $SG29743                   00000001800a5cd4     c4_wwtp3.obj
 0003:00025cd8       $SG29739                   00000001800a5cd8     c4_wwtp3.obj
 0003:00025ce0       $SG29740                   00000001800a5ce0     c4_wwtp3.obj
 0003:00025cec       $SG29741                   00000001800a5cec     c4_wwtp3.obj
 0003:00025cf4       $SG29744                   00000001800a5cf4     c4_wwtp3.obj
 0003:00025cf8       $SG29745                   00000001800a5cf8     c4_wwtp3.obj
 0003:00025cfc       $SG29804                   00000001800a5cfc     c4_wwtp3.obj
 0003:00025d00       $SG29746                   00000001800a5d00     c4_wwtp3.obj
 0003:00025d08       $SG29747                   00000001800a5d08     c4_wwtp3.obj
 0003:00025d14       $SG29748                   00000001800a5d14     c4_wwtp3.obj
 0003:00025d1c       ?c4_b_val@?1??c4_modbus@@9@9 00000001800a5d1c     c4_wwtp3.obj
 0003:00025d20       $SG29811                   00000001800a5d20     c4_wwtp3.obj
 0003:00025d34       ?c4_b_cv4@?1??c4_modbus@@9@9 00000001800a5d34     c4_wwtp3.obj
 0003:00025d38       ?c4_b_cv11@?1??c4_modbus@@9@9 00000001800a5d38     c4_wwtp3.obj
 0003:00025d6c       ?c4_b_cv8@?1??c4_modbus@@9@9 00000001800a5d6c     c4_wwtp3.obj
 0003:00025d70       ?c4_b_cv2@?1??c4_modbus@@9@9 00000001800a5d70     c4_wwtp3.obj
 0003:00025d98       ?c4_b_cv6@?1??c4_modbus@@9@9 00000001800a5d98     c4_wwtp3.obj
 0003:00025dc0       ?c4_b_cv10@?1??c4_modbus@@9@9 00000001800a5dc0     c4_wwtp3.obj
 0003:00025de4       $SG30178                   00000001800a5de4     c4_wwtp3.obj
 0003:00025de8       ?c4_b_cv1@?1??c4_modbus@@9@9 00000001800a5de8     c4_wwtp3.obj
 0003:00025e08       ?c4_b_cv13@?1??c4_modbus@@9@9 00000001800a5e08     c4_wwtp3.obj
 0003:00025e28       ?c4_b_cv5@?1??c4_modbus@@9@9 00000001800a5e28     c4_wwtp3.obj
 0003:00025e48       ?c4_b_cv12@?1??c4_modbus@@9@9 00000001800a5e48     c4_wwtp3.obj
 0003:00025e64       $SG30179                   00000001800a5e64     c4_wwtp3.obj
 0003:00025e68       ?c4_b_cv14@?1??c4_modbus@@9@9 00000001800a5e68     c4_wwtp3.obj
 0003:00025e84       $SG30180                   00000001800a5e84     c4_wwtp3.obj
 0003:00025e88       ?c4_b_cv3@?1??c4_modbus@@9@9 00000001800a5e88     c4_wwtp3.obj
 0003:00025ea4       $SG30181                   00000001800a5ea4     c4_wwtp3.obj
 0003:00025ea8       ?c4_b_cv7@?1??c4_modbus@@9@9 00000001800a5ea8     c4_wwtp3.obj
 0003:00025ec4       $SG30182                   00000001800a5ec4     c4_wwtp3.obj
 0003:00025ec8       ?c4_b_cv@?1??c4_modbus@@9@9 00000001800a5ec8     c4_wwtp3.obj
 0003:00025ed4       ?c4_b_cv9@?1??c4_modbus@@9@9 00000001800a5ed4     c4_wwtp3.obj
 0003:00025edc       ?c4_val@?1??c4_modbus@@9@9 00000001800a5edc     c4_wwtp3.obj
 0003:00025ee4       $SG30185                   00000001800a5ee4     c4_wwtp3.obj
 0003:00025eec       $SG30188                   00000001800a5eec     c4_wwtp3.obj
 0003:00025ef0       $SG30183                   00000001800a5ef0     c4_wwtp3.obj
 0003:00025ef8       $SG30184                   00000001800a5ef8     c4_wwtp3.obj
 0003:00025f04       $SG30189                   00000001800a5f04     c4_wwtp3.obj
 0003:00025f08       $SG30190                   00000001800a5f08     c4_wwtp3.obj
 0003:00025f0c       $SG30191                   00000001800a5f0c     c4_wwtp3.obj
 0003:00025f10       $SG30192                   00000001800a5f10     c4_wwtp3.obj
 0003:00025f14       $SG30200                   00000001800a5f14     c4_wwtp3.obj
 0003:00025f18       $SG30193                   00000001800a5f18     c4_wwtp3.obj
 0003:00025f20       $SG30194                   00000001800a5f20     c4_wwtp3.obj
 0003:00025f2c       $SG30195                   00000001800a5f2c     c4_wwtp3.obj
 0003:00025f34       $SG30201                   00000001800a5f34     c4_wwtp3.obj
 0003:00025f38       $SG30202                   00000001800a5f38     c4_wwtp3.obj
 0003:00025f3c       $SG30210                   00000001800a5f3c     c4_wwtp3.obj
 0003:00025f40       $SG30203                   00000001800a5f40     c4_wwtp3.obj
 0003:00025f48       $SG30204                   00000001800a5f48     c4_wwtp3.obj
 0003:00025f54       $SG30205                   00000001800a5f54     c4_wwtp3.obj
 0003:00025f5c       $SG30211                   00000001800a5f5c     c4_wwtp3.obj
 0003:00025f60       $SG30212                   00000001800a5f60     c4_wwtp3.obj
 0003:00025f64       ?c4_b_cv1@?1??c4_TCPClient_initializeChannel@@9@9 00000001800a5f64     c4_wwtp3.obj
 0003:00025f6c       ?c4_b_cv15@?1??c4_TCPClient_initializeChannel@@9@9 00000001800a5f6c     c4_wwtp3.obj
 0003:00025f70       $SG30213                   00000001800a5f70     c4_wwtp3.obj
 0003:00025f78       $SG30214                   00000001800a5f78     c4_wwtp3.obj
 0003:00025f84       $SG30215                   00000001800a5f84     c4_wwtp3.obj
 0003:00025f8c       ?c4_b_cv10@?1??c4_TCPClient_initializeChannel@@9@9 00000001800a5f8c     c4_wwtp3.obj
 0003:00025f94       ?c4_b_cv6@?1??c4_TCPClient_initializeChannel@@9@9 00000001800a5f94     c4_wwtp3.obj
 0003:00025f98       ?c4_r@?1??c4_TCPClient_initializeChannel@@9@9 00000001800a5f98     c4_wwtp3.obj
 0003:00025fa8       ?c4_iv@?1??c4_TCPClient_initializeChannel@@9@9 00000001800a5fa8     c4_wwtp3.obj
 0003:00025fb0       ?c4_b_cv12@?1??c4_TCPClient_initializeChannel@@9@9 00000001800a5fb0     c4_wwtp3.obj
 0003:00025fdc       ?c4_val@?1??c4_TCPClient_initializeChannel@@9@9 00000001800a5fdc     c4_wwtp3.obj
 0003:00025fe0       ?c4_b_cv14@?1??c4_TCPClient_initializeChannel@@9@9 00000001800a5fe0     c4_wwtp3.obj
 0003:0002600c       $SG30726                   00000001800a600c     c4_wwtp3.obj
 0003:00026010       ?c4_b_cv16@?1??c4_TCPClient_initializeChannel@@9@9 00000001800a6010     c4_wwtp3.obj
 0003:0002603c       $SG30727                   00000001800a603c     c4_wwtp3.obj
 0003:00026040       ?c4_b_cv3@?1??c4_TCPClient_initializeChannel@@9@9 00000001800a6040     c4_wwtp3.obj
 0003:00026064       $SG30729                   00000001800a6064     c4_wwtp3.obj
 0003:00026068       ?c4_b_cv5@?1??c4_TCPClient_initializeChannel@@9@9 00000001800a6068     c4_wwtp3.obj
 0003:0002608c       $SG30733                   00000001800a608c     c4_wwtp3.obj
 0003:00026090       ?c4_b_cv8@?1??c4_TCPClient_initializeChannel@@9@9 00000001800a6090     c4_wwtp3.obj
 0003:000260b4       $SG30734                   00000001800a60b4     c4_wwtp3.obj
 0003:000260b8       ?c4_b_cv7@?1??c4_TCPClient_initializeChannel@@9@9 00000001800a60b8     c4_wwtp3.obj
 0003:000260dc       $SG30738                   00000001800a60dc     c4_wwtp3.obj
 0003:000260e0       ?c4_converterFullName@?1??c4_TCPClient_initializeChannel@@9@9 00000001800a60e0     c4_wwtp3.obj
 0003:000260fc       ?c4_b_cv@?1??c4_TCPClient_initializeChannel@@9@9 00000001800a60fc     c4_wwtp3.obj
 0003:00026104       $SG30739                   00000001800a6104     c4_wwtp3.obj
 0003:00026108       ?c4_b_converterFullName@?1??c4_TCPClient_initializeChannel@@9@9 00000001800a6108     c4_wwtp3.obj
 0003:00026120       ?c4_deviceFullName@?1??c4_TCPClient_initializeChannel@@9@9 00000001800a6120     c4_wwtp3.obj
 0003:00026134       $SG30743                   00000001800a6134     c4_wwtp3.obj
 0003:00026138       ?c4_b_deviceFullName@?1??c4_TCPClient_initializeChannel@@9@9 00000001800a6138     c4_wwtp3.obj
 0003:00026144       $SG30744                   00000001800a6144     c4_wwtp3.obj
 0003:00026148       ?c4_b_cv11@?1??c4_TCPClient_initializeChannel@@9@9 00000001800a6148     c4_wwtp3.obj
 0003:00026150       ?c4_b_cv2@?1??c4_TCPClient_initializeChannel@@9@9 00000001800a6150     c4_wwtp3.obj
 0003:00026158       ?c4_b_cv9@?1??c4_TCPClient_initializeChannel@@9@9 00000001800a6158     c4_wwtp3.obj
 0003:00026160       ?c4_b_cv13@?1??c4_TCPClient_initializeChannel@@9@9 00000001800a6160     c4_wwtp3.obj
 0003:00026168       ?c4_b_cv4@?1??c4_TCPClient_initializeChannel@@9@9 00000001800a6168     c4_wwtp3.obj
 0003:00026170       ?c4_b_val@?1??c4_TCPClient_initializeChannel@@9@9 00000001800a6170     c4_wwtp3.obj
 0003:00026178       $SG30728                   00000001800a6178     c4_wwtp3.obj
 0003:00026190       $SG30732                   00000001800a6190     c4_wwtp3.obj
 0003:000261c0       $SG30737                   00000001800a61c0     c4_wwtp3.obj
 0003:000261f0       $SG30740                   00000001800a61f0     c4_wwtp3.obj
 0003:000261f8       $SG30741                   00000001800a61f8     c4_wwtp3.obj
 0003:00026204       $SG30742                   00000001800a6204     c4_wwtp3.obj
 0003:0002620c       $SG30748                   00000001800a620c     c4_wwtp3.obj
 0003:00026210       $SG30747                   00000001800a6210     c4_wwtp3.obj
 0003:00026240       $SG30749                   00000001800a6240     c4_wwtp3.obj
 0003:00026244       $SG30753                   00000001800a6244     c4_wwtp3.obj
 0003:00026248       $SG30750                   00000001800a6248     c4_wwtp3.obj
 0003:00026250       $SG30751                   00000001800a6250     c4_wwtp3.obj
 0003:0002625c       $SG30752                   00000001800a625c     c4_wwtp3.obj
 0003:00026264       $SG30754                   00000001800a6264     c4_wwtp3.obj
 0003:00026268       $SG30755                   00000001800a6268     c4_wwtp3.obj
 0003:0002626c       $SG30756                   00000001800a626c     c4_wwtp3.obj
 0003:00026270       $SG30757                   00000001800a6270     c4_wwtp3.obj
 0003:00026278       $SG30758                   00000001800a6278     c4_wwtp3.obj
 0003:00026284       $SG30759                   00000001800a6284     c4_wwtp3.obj
 0003:0002628c       $SG30765                   00000001800a628c     c4_wwtp3.obj
 0003:00026290       $SG30766                   00000001800a6290     c4_wwtp3.obj
 0003:00026294       $SG30777                   00000001800a6294     c4_wwtp3.obj
 0003:00026298       $SG30767                   00000001800a6298     c4_wwtp3.obj
 0003:000262a0       $SG30768                   00000001800a62a0     c4_wwtp3.obj
 0003:000262ac       $SG30769                   00000001800a62ac     c4_wwtp3.obj
 0003:000262b4       $SG30778                   00000001800a62b4     c4_wwtp3.obj
 0003:000262b8       $SG30771                   00000001800a62b8     c4_wwtp3.obj
 0003:000262c4       $SG30772                   00000001800a62c4     c4_wwtp3.obj
 0003:000262cc       $SG30780                   00000001800a62cc     c4_wwtp3.obj
 0003:000262d0       $SG30773                   00000001800a62d0     c4_wwtp3.obj
 0003:000262dc       $SG30774                   00000001800a62dc     c4_wwtp3.obj
 0003:000262e4       $SG30784                   00000001800a62e4     c4_wwtp3.obj
 0003:000262e8       $SG30779                   00000001800a62e8     c4_wwtp3.obj
 0003:00026300       $SG30783                   00000001800a6300     c4_wwtp3.obj
 0003:00026330       $SG30785                   00000001800a6330     c4_wwtp3.obj
 0003:00026334       $SG30789                   00000001800a6334     c4_wwtp3.obj
 0003:00026338       $SG30788                   00000001800a6338     c4_wwtp3.obj
 0003:00026368       $SG30790                   00000001800a6368     c4_wwtp3.obj
 0003:0002636c       $SG30794                   00000001800a636c     c4_wwtp3.obj
 0003:00026370       $SG30791                   00000001800a6370     c4_wwtp3.obj
 0003:00026378       $SG30792                   00000001800a6378     c4_wwtp3.obj
 0003:00026384       $SG30793                   00000001800a6384     c4_wwtp3.obj
 0003:0002638c       $SG30795                   00000001800a638c     c4_wwtp3.obj
 0003:00026390       $SG30798                   00000001800a6390     c4_wwtp3.obj
 0003:000263c0       $SG30799                   00000001800a63c0     c4_wwtp3.obj
 0003:000263c4       $SG30800                   00000001800a63c4     c4_wwtp3.obj
 0003:000263c8       $SG30801                   00000001800a63c8     c4_wwtp3.obj
 0003:000263d0       $SG30802                   00000001800a63d0     c4_wwtp3.obj
 0003:000263dc       $SG30803                   00000001800a63dc     c4_wwtp3.obj
 0003:000263e4       $SG30804                   00000001800a63e4     c4_wwtp3.obj
 0003:000263e8       $SG30805                   00000001800a63e8     c4_wwtp3.obj
 0003:000263ec       $SG30806                   00000001800a63ec     c4_wwtp3.obj
 0003:000263f0       $SG30807                   00000001800a63f0     c4_wwtp3.obj
 0003:000263f4       ?c4_b_cv@?1??c4_sprintf@@9@9 00000001800a63f4     c4_wwtp3.obj
 0003:000263fc       ?c4_formatSpec@?1??c4_sprintf@@9@9 00000001800a63fc     c4_wwtp3.obj
 0003:00026400       $SG30808                   00000001800a6400     c4_wwtp3.obj
 0003:00026408       $SG30809                   00000001800a6408     c4_wwtp3.obj
 0003:00026414       $SG30810                   00000001800a6414     c4_wwtp3.obj
 0003:0002641c       $SG30841                   00000001800a641c     c4_wwtp3.obj
 0003:00026420       $SG30842                   00000001800a6420     c4_wwtp3.obj
 0003:00026424       $SG30843                   00000001800a6424     c4_wwtp3.obj
 0003:00026428       $SG30844                   00000001800a6428     c4_wwtp3.obj
 0003:0002643c       $SG30846                   00000001800a643c     c4_wwtp3.obj
 0003:00026444       $SG31315                   00000001800a6444     c4_wwtp3.obj
 0003:00026448       ?c4_b_cv10@?1??c4_API_dispatchInternalError@@9@9 00000001800a6448     c4_wwtp3.obj
 0003:0002647c       ?c4_b_cv11@?1??c4_API_dispatchInternalError@@9@9 00000001800a647c     c4_wwtp3.obj
 0003:00026484       $SG31316                   00000001800a6484     c4_wwtp3.obj
 0003:00026488       ?c4_cv21@?1??c4_API_dispatchInternalError@@9@9 00000001800a6488     c4_wwtp3.obj
 0003:000264bc       ?c4_b_cv13@?1??c4_API_dispatchInternalError@@9@9 00000001800a64bc     c4_wwtp3.obj
 0003:000264c4       $SG31321                   00000001800a64c4     c4_wwtp3.obj
 0003:000264c8       ?c4_b_cv9@?1??c4_API_dispatchInternalError@@9@9 00000001800a64c8     c4_wwtp3.obj
 0003:000264f8       ?c4_cv20@?1??c4_API_dispatchInternalError@@9@9 00000001800a64f8     c4_wwtp3.obj
 0003:00026528       ?c4_b_cv7@?1??c4_API_dispatchInternalError@@9@9 00000001800a6528     c4_wwtp3.obj
 0003:00026550       ?c4_cv18@?1??c4_API_dispatchInternalError@@9@9 00000001800a6550     c4_wwtp3.obj
 0003:00026578       ?c4_b_cv15@?1??c4_API_dispatchInternalError@@9@9 00000001800a6578     c4_wwtp3.obj
 0003:000265a0       ?c4_b_cv4@?1??c4_API_dispatchInternalError@@9@9 00000001800a65a0     c4_wwtp3.obj
 0003:000265c8       ?c4_b_cv6@?1??c4_API_dispatchInternalError@@9@9 00000001800a65c8     c4_wwtp3.obj
 0003:000265ec       $SG31322                   00000001800a65ec     c4_wwtp3.obj
 0003:000265f0       ?c4_cv17@?1??c4_API_dispatchInternalError@@9@9 00000001800a65f0     c4_wwtp3.obj
 0003:00026614       $SG31327                   00000001800a6614     c4_wwtp3.obj
 0003:00026618       ?c4_b_cv8@?1??c4_API_dispatchInternalError@@9@9 00000001800a6618     c4_wwtp3.obj
 0003:0002663c       $SG31328                   00000001800a663c     c4_wwtp3.obj
 0003:00026640       ?c4_cv19@?1??c4_API_dispatchInternalError@@9@9 00000001800a6640     c4_wwtp3.obj
 0003:00026664       $SG31333                   00000001800a6664     c4_wwtp3.obj
 0003:00026668       ?c4_b_cv14@?1??c4_API_dispatchInternalError@@9@9 00000001800a6668     c4_wwtp3.obj
 0003:0002668c       $SG31334                   00000001800a668c     c4_wwtp3.obj
 0003:00026690       ?c4_b_cv3@?1??c4_API_dispatchInternalError@@9@9 00000001800a6690     c4_wwtp3.obj
 0003:000266b4       $SG31339                   00000001800a66b4     c4_wwtp3.obj
 0003:000266b8       ?c4_b_cv12@?1??c4_API_dispatchInternalError@@9@9 00000001800a66b8     c4_wwtp3.obj
 0003:000266dc       $SG31319                   00000001800a66dc     c4_wwtp3.obj
 0003:000266e4       $SG31340                   00000001800a66e4     c4_wwtp3.obj
 0003:000266e8       ?c4_b_cv16@?1??c4_API_dispatchInternalError@@9@9 00000001800a66e8     c4_wwtp3.obj
 0003:0002670c       $SG31325                   00000001800a670c     c4_wwtp3.obj
 0003:00026714       $SG31345                   00000001800a6714     c4_wwtp3.obj
 0003:00026718       ?c4_b_cv2@?1??c4_API_dispatchInternalError@@9@9 00000001800a6718     c4_wwtp3.obj
 0003:0002673c       $SG31331                   00000001800a673c     c4_wwtp3.obj
 0003:00026744       $SG31346                   00000001800a6744     c4_wwtp3.obj
 0003:00026748       ?c4_b_cv5@?1??c4_API_dispatchInternalError@@9@9 00000001800a6748     c4_wwtp3.obj
 0003:0002676c       $SG31337                   00000001800a676c     c4_wwtp3.obj
 0003:00026774       $SG31351                   00000001800a6774     c4_wwtp3.obj
 0003:00026778       ?c4_b_cv@?1??c4_API_dispatchInternalError@@9@9 00000001800a6778     c4_wwtp3.obj
 0003:00026798       ?c4_b_cv1@?1??c4_API_dispatchInternalError@@9@9 00000001800a6798     c4_wwtp3.obj
 0003:000267b8       $SG31317                   00000001800a67b8     c4_wwtp3.obj
 0003:000267c0       $SG31318                   00000001800a67c0     c4_wwtp3.obj
 0003:000267cc       $SG31352                   00000001800a67cc     c4_wwtp3.obj
 0003:000267d0       $SG31323                   00000001800a67d0     c4_wwtp3.obj
 0003:000267d8       $SG31324                   00000001800a67d8     c4_wwtp3.obj
 0003:000267e4       $SG31357                   00000001800a67e4     c4_wwtp3.obj
 0003:000267e8       $SG31329                   00000001800a67e8     c4_wwtp3.obj
 0003:000267f0       $SG31330                   00000001800a67f0     c4_wwtp3.obj
 0003:000267fc       $SG31358                   00000001800a67fc     c4_wwtp3.obj
 0003:00026800       $SG31335                   00000001800a6800     c4_wwtp3.obj
 0003:00026808       $SG31336                   00000001800a6808     c4_wwtp3.obj
 0003:00026814       $SG31363                   00000001800a6814     c4_wwtp3.obj
 0003:00026818       $SG31341                   00000001800a6818     c4_wwtp3.obj
 0003:00026820       $SG31342                   00000001800a6820     c4_wwtp3.obj
 0003:0002682c       $SG31343                   00000001800a682c     c4_wwtp3.obj
 0003:00026834       $SG31364                   00000001800a6834     c4_wwtp3.obj
 0003:00026838       $SG31347                   00000001800a6838     c4_wwtp3.obj
 0003:00026840       $SG31348                   00000001800a6840     c4_wwtp3.obj
 0003:0002684c       $SG31349                   00000001800a684c     c4_wwtp3.obj
 0003:00026854       $SG31369                   00000001800a6854     c4_wwtp3.obj
 0003:00026858       $SG31353                   00000001800a6858     c4_wwtp3.obj
 0003:00026860       $SG31354                   00000001800a6860     c4_wwtp3.obj
 0003:0002686c       $SG31355                   00000001800a686c     c4_wwtp3.obj
 0003:00026874       $SG31370                   00000001800a6874     c4_wwtp3.obj
 0003:00026878       $SG31359                   00000001800a6878     c4_wwtp3.obj
 0003:00026880       $SG31360                   00000001800a6880     c4_wwtp3.obj
 0003:0002688c       $SG31361                   00000001800a688c     c4_wwtp3.obj
 0003:00026894       $SG31375                   00000001800a6894     c4_wwtp3.obj
 0003:00026898       $SG31365                   00000001800a6898     c4_wwtp3.obj
 0003:000268a0       $SG31366                   00000001800a68a0     c4_wwtp3.obj
 0003:000268ac       $SG31367                   00000001800a68ac     c4_wwtp3.obj
 0003:000268b4       $SG31376                   00000001800a68b4     c4_wwtp3.obj
 0003:000268b8       $SG31371                   00000001800a68b8     c4_wwtp3.obj
 0003:000268c0       $SG31372                   00000001800a68c0     c4_wwtp3.obj
 0003:000268cc       $SG31373                   00000001800a68cc     c4_wwtp3.obj
 0003:000268d4       $SG31381                   00000001800a68d4     c4_wwtp3.obj
 0003:000268d8       $SG31377                   00000001800a68d8     c4_wwtp3.obj
 0003:000268e0       $SG31378                   00000001800a68e0     c4_wwtp3.obj
 0003:000268ec       $SG31379                   00000001800a68ec     c4_wwtp3.obj
 0003:000268f4       $SG31382                   00000001800a68f4     c4_wwtp3.obj
 0003:000268f8       $SG31383                   00000001800a68f8     c4_wwtp3.obj
 0003:00026900       $SG31384                   00000001800a6900     c4_wwtp3.obj
 0003:0002690c       $SG31385                   00000001800a690c     c4_wwtp3.obj
 0003:00026914       $SG31387                   00000001800a6914     c4_wwtp3.obj
 0003:00026918       $SG31388                   00000001800a6918     c4_wwtp3.obj
 0003:0002691c       $SG31393                   00000001800a691c     c4_wwtp3.obj
 0003:00026920       $SG31389                   00000001800a6920     c4_wwtp3.obj
 0003:00026928       $SG31390                   00000001800a6928     c4_wwtp3.obj
 0003:00026934       $SG31391                   00000001800a6934     c4_wwtp3.obj
 0003:0002693c       $SG31394                   00000001800a693c     c4_wwtp3.obj
 0003:00026940       $SG31395                   00000001800a6940     c4_wwtp3.obj
 0003:00026944       $SG31400                   00000001800a6944     c4_wwtp3.obj
 0003:00026948       $SG31396                   00000001800a6948     c4_wwtp3.obj
 0003:00026950       $SG31397                   00000001800a6950     c4_wwtp3.obj
 0003:0002695c       $SG31398                   00000001800a695c     c4_wwtp3.obj
 0003:00026964       $SG31401                   00000001800a6964     c4_wwtp3.obj
 0003:00026968       $SG31402                   00000001800a6968     c4_wwtp3.obj
 0003:0002696c       $SG31594                   00000001800a696c     c4_wwtp3.obj
 0003:00026970       $SG31403                   00000001800a6970     c4_wwtp3.obj
 0003:00026978       $SG31404                   00000001800a6978     c4_wwtp3.obj
 0003:00026984       $SG31405                   00000001800a6984     c4_wwtp3.obj
 0003:0002698c       $SG31595                   00000001800a698c     c4_wwtp3.obj
 0003:00026990       $SG31596                   00000001800a6990     c4_wwtp3.obj
 0003:00026994       $SG31597                   00000001800a6994     c4_wwtp3.obj
 0003:00026998       $SG31598                   00000001800a6998     c4_wwtp3.obj
 0003:000269a0       $SG31599                   00000001800a69a0     c4_wwtp3.obj
 0003:000269ac       $SG31600                   00000001800a69ac     c4_wwtp3.obj
 0003:000269b4       $SG31634                   00000001800a69b4     c4_wwtp3.obj
 0003:000269b8       $SG31635                   00000001800a69b8     c4_wwtp3.obj
 0003:000269bc       $SG31664                   00000001800a69bc     c4_wwtp3.obj
 0003:000269c0       $SG31636                   00000001800a69c0     c4_wwtp3.obj
 0003:000269c8       $SG31637                   00000001800a69c8     c4_wwtp3.obj
 0003:000269d4       $SG31638                   00000001800a69d4     c4_wwtp3.obj
 0003:000269dc       $SG31665                   00000001800a69dc     c4_wwtp3.obj
 0003:000269e4       $SG31693                   00000001800a69e4     c4_wwtp3.obj
 0003:000269e8       $SG31694                   00000001800a69e8     c4_wwtp3.obj
 0003:000269ec       $SG31858                   00000001800a69ec     c4_wwtp3.obj
 0003:000269f0       $SG31695                   00000001800a69f0     c4_wwtp3.obj
 0003:000269f8       $SG31696                   00000001800a69f8     c4_wwtp3.obj
 0003:00026a04       $SG31697                   00000001800a6a04     c4_wwtp3.obj
 0003:00026a0c       $SG31859                   00000001800a6a0c     c4_wwtp3.obj
 0003:00026a10       ?c4_b_cv@?1??c4_TCPClient_connect@@9@9 00000001800a6a10     c4_wwtp3.obj
 0003:00026a38       $SG31860                   00000001800a6a38     c4_wwtp3.obj
 0003:00026a40       $SG31861                   00000001800a6a40     c4_wwtp3.obj
 0003:00026a4c       $SG31862                   00000001800a6a4c     c4_wwtp3.obj
 0003:00026a54       $SG31883                   00000001800a6a54     c4_wwtp3.obj
 0003:00026a5c       $SG32073                   00000001800a6a5c     c4_wwtp3.obj
 0003:00026a60       $SG31873                   00000001800a6a60     c4_wwtp3.obj
 0003:00026a68       $SG31874                   00000001800a6a68     c4_wwtp3.obj
 0003:00026a78       $SG31876                   00000001800a6a78     c4_wwtp3.obj
 0003:00026a84       $SG31877                   00000001800a6a84     c4_wwtp3.obj
 0003:00026a8c       $SG31885                   00000001800a6a8c     c4_wwtp3.obj
 0003:00026a94       $SG32074                   00000001800a6a94     c4_wwtp3.obj
 0003:00026a98       $SG31878                   00000001800a6a98     c4_wwtp3.obj
 0003:00026aa4       $SG31879                   00000001800a6aa4     c4_wwtp3.obj
 0003:00026aac       $SG31887                   00000001800a6aac     c4_wwtp3.obj
 0003:00026ab4       $SG32075                   00000001800a6ab4     c4_wwtp3.obj
 0003:00026ab8       $SG31882                   00000001800a6ab8     c4_wwtp3.obj
 0003:00026ac4       $SG32080                   00000001800a6ac4     c4_wwtp3.obj
 0003:00026ac8       $SG31884                   00000001800a6ac8     c4_wwtp3.obj
 0003:00026ad4       $SG32078                   00000001800a6ad4     c4_wwtp3.obj
 0003:00026adc       $SG32081                   00000001800a6adc     c4_wwtp3.obj
 0003:00026ae0       $SG31886                   00000001800a6ae0     c4_wwtp3.obj
 0003:00026af0       $SG31888                   00000001800a6af0     c4_wwtp3.obj
 0003:00026afc       $SG32082                   00000001800a6afc     c4_wwtp3.obj
 0003:00026b00       $SG31889                   00000001800a6b00     c4_wwtp3.obj
 0003:00026b08       $SG31890                   00000001800a6b08     c4_wwtp3.obj
 0003:00026b18       $SG31891                   00000001800a6b18     c4_wwtp3.obj
 0003:00026b20       $SG31892                   00000001800a6b20     c4_wwtp3.obj
 0003:00026b30       $SG31893                   00000001800a6b30     c4_wwtp3.obj
 0003:00026b38       $SG32076                   00000001800a6b38     c4_wwtp3.obj
 0003:00026b40       $SG32077                   00000001800a6b40     c4_wwtp3.obj
 0003:00026b4c       $SG32087                   00000001800a6b4c     c4_wwtp3.obj
 0003:00026b50       $SG32083                   00000001800a6b50     c4_wwtp3.obj
 0003:00026b58       $SG32084                   00000001800a6b58     c4_wwtp3.obj
 0003:00026b64       $SG32085                   00000001800a6b64     c4_wwtp3.obj
 0003:00026b6c       $SG32088                   00000001800a6b6c     c4_wwtp3.obj
 0003:00026b70       $SG32089                   00000001800a6b70     c4_wwtp3.obj
 0003:00026b74       $SG32094                   00000001800a6b74     c4_wwtp3.obj
 0003:00026b78       $SG32090                   00000001800a6b78     c4_wwtp3.obj
 0003:00026b80       $SG32091                   00000001800a6b80     c4_wwtp3.obj
 0003:00026b8c       $SG32092                   00000001800a6b8c     c4_wwtp3.obj
 0003:00026b94       $SG32095                   00000001800a6b94     c4_wwtp3.obj
 0003:00026b98       $SG32096                   00000001800a6b98     c4_wwtp3.obj
 0003:00026b9c       ?c4_b_cv1@?1??c4_Modbus_executeWrite@@9@9 00000001800a6b9c     c4_wwtp3.obj
 0003:00026ba0       $SG32097                   00000001800a6ba0     c4_wwtp3.obj
 0003:00026ba8       $SG32098                   00000001800a6ba8     c4_wwtp3.obj
 0003:00026bb4       $SG32099                   00000001800a6bb4     c4_wwtp3.obj
 0003:00026bbc       $SG32384                   00000001800a6bbc     c4_wwtp3.obj
 0003:00026bc0       ?c4_b_cv@?1??c4_Modbus_executeWrite@@9@9 00000001800a6bc0     c4_wwtp3.obj
 0003:00026be8       ?c4_b_cv2@?1??c4_Modbus_executeWrite@@9@9 00000001800a6be8     c4_wwtp3.obj
 0003:00026c0c       $SG32385                   00000001800a6c0c     c4_wwtp3.obj
 0003:00026c10       $SG32386                   00000001800a6c10     c4_wwtp3.obj
 0003:00026c14       $SG32387                   00000001800a6c14     c4_wwtp3.obj
 0003:00026c18       $SG32388                   00000001800a6c18     c4_wwtp3.obj
 0003:00026c20       $SG32389                   00000001800a6c20     c4_wwtp3.obj
 0003:00026c2c       $SG32390                   00000001800a6c2c     c4_wwtp3.obj
 0003:00026c34       $SG32403                   00000001800a6c34     c4_wwtp3.obj
 0003:00026c3c       $SG32408                   00000001800a6c3c     c4_wwtp3.obj
 0003:00026c40       $SG32409                   00000001800a6c40     c4_wwtp3.obj
 0003:00026c44       $SG32410                   00000001800a6c44     c4_wwtp3.obj
 0003:00026c48       $SG32411                   00000001800a6c48     c4_wwtp3.obj
 0003:00026c50       $SG32412                   00000001800a6c50     c4_wwtp3.obj
 0003:00026c5c       $SG32413                   00000001800a6c5c     c4_wwtp3.obj
 0003:00026c64       $SG32414                   00000001800a6c64     c4_wwtp3.obj
 0003:00026c6c       $SG32415                   00000001800a6c6c     c4_wwtp3.obj
 0003:00026c74       $SG32416                   00000001800a6c74     c4_wwtp3.obj
 0003:00026c7c       $SG32417                   00000001800a6c7c     c4_wwtp3.obj
 0003:00026c84       $SG32458                   00000001800a6c84     c4_wwtp3.obj
 0003:00026c88       $SG32418                   00000001800a6c88     c4_wwtp3.obj
 0003:00026ca8       ?c4_b_cv@?1??c4_TCPClient_validateConnected@@9@9 00000001800a6ca8     c4_wwtp3.obj
 0003:00026cd8       ?c4_b_cv1@?1??c4_TCPClient_validateConnected@@9@9 00000001800a6cd8     c4_wwtp3.obj
 0003:00026ce8       $SG32459                   00000001800a6ce8     c4_wwtp3.obj
 0003:00026cec       $SG32460                   00000001800a6cec     c4_wwtp3.obj
 0003:00026cf0       $SG32461                   00000001800a6cf0     c4_wwtp3.obj
 0003:00026cf8       $SG32462                   00000001800a6cf8     c4_wwtp3.obj
 0003:00026d04       $SG32463                   00000001800a6d04     c4_wwtp3.obj
 0003:00026d0c       $SG32494                   00000001800a6d0c     c4_wwtp3.obj
 0003:00026d10       $SG32495                   00000001800a6d10     c4_wwtp3.obj
 0003:00026d14       $SG32496                   00000001800a6d14     c4_wwtp3.obj
 0003:00026d18       $SG32497                   00000001800a6d18     c4_wwtp3.obj
 0003:00026d1c       ?c4_b_cv1@?1??c4_Stream_wait@@9@9 00000001800a6d1c     c4_wwtp3.obj
 0003:00026d24       ?c4_b_cv@?1??c4_Stream_wait@@9@9 00000001800a6d24     c4_wwtp3.obj
 0003:00026d28       $SG32498                   00000001800a6d28     c4_wwtp3.obj
 0003:00026d30       $SG32499                   00000001800a6d30     c4_wwtp3.obj
 0003:00026d3c       $SG32500                   00000001800a6d3c     c4_wwtp3.obj
 0003:00026d44       ?c4_b_cv2@?1??c4_Stream_wait@@9@9 00000001800a6d44     c4_wwtp3.obj
 0003:00026d4c       ?c4_b_cv3@?1??c4_Stream_wait@@9@9 00000001800a6d4c     c4_wwtp3.obj
 0003:00026d54       $SG32597                   00000001800a6d54     c4_wwtp3.obj
 0003:00026d58       $SG32598                   00000001800a6d58     c4_wwtp3.obj
 0003:00026d5c       $SG32599                   00000001800a6d5c     c4_wwtp3.obj
 0003:00026d60       $SG32600                   00000001800a6d60     c4_wwtp3.obj
 0003:00026d64       $SG32650                   00000001800a6d64     c4_wwtp3.obj
 0003:00026d68       ?c4_b_cv@?1??c4_getTime@@9@9 00000001800a6d68     c4_wwtp3.obj
 0003:00026d8c       $SG32651                   00000001800a6d8c     c4_wwtp3.obj
 0003:00026d90       ?c4_b_cv1@?1??c4_getTime@@9@9 00000001800a6d90     c4_wwtp3.obj
 0003:00026dac       $SG32652                   00000001800a6dac     c4_wwtp3.obj
 0003:00026db0       $SG32653                   00000001800a6db0     c4_wwtp3.obj
 0003:00026db4       $SG32787                   00000001800a6db4     c4_wwtp3.obj
 0003:00026db8       $SG32654                   00000001800a6db8     c4_wwtp3.obj
 0003:00026dc0       $SG32655                   00000001800a6dc0     c4_wwtp3.obj
 0003:00026dcc       $SG32656                   00000001800a6dcc     c4_wwtp3.obj
 0003:00026dd4       $SG32788                   00000001800a6dd4     c4_wwtp3.obj
 0003:00026dd8       $SG32789                   00000001800a6dd8     c4_wwtp3.obj
 0003:00026ddc       $SG32794                   00000001800a6ddc     c4_wwtp3.obj
 0003:00026de0       $SG32790                   00000001800a6de0     c4_wwtp3.obj
 0003:00026de8       $SG32791                   00000001800a6de8     c4_wwtp3.obj
 0003:00026df4       $SG32792                   00000001800a6df4     c4_wwtp3.obj
 0003:00026dfc       $SG32795                   00000001800a6dfc     c4_wwtp3.obj
 0003:00026e00       $SG32796                   00000001800a6e00     c4_wwtp3.obj
 0003:00026e04       $SG32801                   00000001800a6e04     c4_wwtp3.obj
 0003:00026e08       $SG32797                   00000001800a6e08     c4_wwtp3.obj
 0003:00026e10       $SG32798                   00000001800a6e10     c4_wwtp3.obj
 0003:00026e1c       $SG32799                   00000001800a6e1c     c4_wwtp3.obj
 0003:00026e24       $SG32802                   00000001800a6e24     c4_wwtp3.obj
 0003:00026e28       $SG32803                   00000001800a6e28     c4_wwtp3.obj
 0003:00026e2c       $SG32808                   00000001800a6e2c     c4_wwtp3.obj
 0003:00026e30       $SG32804                   00000001800a6e30     c4_wwtp3.obj
 0003:00026e38       $SG32805                   00000001800a6e38     c4_wwtp3.obj
 0003:00026e44       $SG32806                   00000001800a6e44     c4_wwtp3.obj
 0003:00026e4c       $SG32809                   00000001800a6e4c     c4_wwtp3.obj
 0003:00026e50       $SG32810                   00000001800a6e50     c4_wwtp3.obj
 0003:00026e54       ?c4_b_cv@?1??c4_g_strcmp@@9@9 00000001800a6e54     c4_wwtp3.obj
 0003:00026e58       $SG32811                   00000001800a6e58     c4_wwtp3.obj
 0003:00026e60       $SG32812                   00000001800a6e60     c4_wwtp3.obj
 0003:00026e6c       $SG32813                   00000001800a6e6c     c4_wwtp3.obj
 0003:00026e74       $SG32936                   00000001800a6e74     c4_wwtp3.obj
 0003:00026e78       $SG32937                   00000001800a6e78     c4_wwtp3.obj
 0003:00026e7c       $SG32938                   00000001800a6e7c     c4_wwtp3.obj
 0003:00026e80       $SG32939                   00000001800a6e80     c4_wwtp3.obj
 0003:00026e88       $SG32940                   00000001800a6e88     c4_wwtp3.obj
 0003:00026e94       $SG32941                   00000001800a6e94     c4_wwtp3.obj
 0003:00026e9c       $SG32943                   00000001800a6e9c     c4_wwtp3.obj
 0003:00026ea0       $SG32944                   00000001800a6ea0     c4_wwtp3.obj
 0003:00026ea4       $SG32945                   00000001800a6ea4     c4_wwtp3.obj
 0003:00026ea8       $SG32946                   00000001800a6ea8     c4_wwtp3.obj
 0003:00026eb0       $SG32947                   00000001800a6eb0     c4_wwtp3.obj
 0003:00026ebc       $SG32948                   00000001800a6ebc     c4_wwtp3.obj
 0003:00026ec4       $SG32950                   00000001800a6ec4     c4_wwtp3.obj
 0003:00026ec8       $SG32951                   00000001800a6ec8     c4_wwtp3.obj
 0003:00026ecc       $SG32952                   00000001800a6ecc     c4_wwtp3.obj
 0003:00026ed0       $SG32953                   00000001800a6ed0     c4_wwtp3.obj
 0003:00026ed8       $SG32954                   00000001800a6ed8     c4_wwtp3.obj
 0003:00026ee4       $SG32955                   00000001800a6ee4     c4_wwtp3.obj
 0003:00026eec       $SG32957                   00000001800a6eec     c4_wwtp3.obj
 0003:00026ef0       $SG32958                   00000001800a6ef0     c4_wwtp3.obj
 0003:00026ef4       $SG32959                   00000001800a6ef4     c4_wwtp3.obj
 0003:00026ef8       $SG32960                   00000001800a6ef8     c4_wwtp3.obj
 0003:00026f00       $SG32961                   00000001800a6f00     c4_wwtp3.obj
 0003:00026f0c       $SG32962                   00000001800a6f0c     c4_wwtp3.obj
 0003:00026f14       ?c4_b@?1??c4_OutputStream_drain@@9@9 00000001800a6f14     c4_wwtp3.obj
 0003:00026f1c       ?c4_b_cv@?1??c4_OutputStream_drain@@9@9 00000001800a6f1c     c4_wwtp3.obj
 0003:00026f20       ?c4_b_cv3@?1??c4_OutputStream_drain@@9@9 00000001800a6f20     c4_wwtp3.obj
 0003:00026f44       ?c4_b_cv4@?1??c4_OutputStream_drain@@9@9 00000001800a6f44     c4_wwtp3.obj
 0003:00026f4c       ?c4_b_cv1@?1??c4_OutputStream_drain@@9@9 00000001800a6f4c     c4_wwtp3.obj
 0003:00026f54       ?c4_b_cv2@?1??c4_OutputStream_drain@@9@9 00000001800a6f54     c4_wwtp3.obj
 0003:00026f5c       $SG33179                   00000001800a6f5c     c4_wwtp3.obj
 0003:00026f60       $SG33180                   00000001800a6f60     c4_wwtp3.obj
 0003:00026f64       $SG33181                   00000001800a6f64     c4_wwtp3.obj
 0003:00026f68       $SG33182                   00000001800a6f68     c4_wwtp3.obj
 0003:00026f6c       $SG33201                   00000001800a6f6c     c4_wwtp3.obj
 0003:00026f70       $SG33202                   00000001800a6f70     c4_wwtp3.obj
 0003:00026f74       $SG33203                   00000001800a6f74     c4_wwtp3.obj
 0003:00026f78       $SG33204                   00000001800a6f78     c4_wwtp3.obj
 0003:00026f80       $SG33205                   00000001800a6f80     c4_wwtp3.obj
 0003:00026f8c       $SG33206                   00000001800a6f8c     c4_wwtp3.obj
 0003:00026f94       $SG33208                   00000001800a6f94     c4_wwtp3.obj
 0003:00026f98       $SG33209                   00000001800a6f98     c4_wwtp3.obj
 0003:00026f9c       $SG33210                   00000001800a6f9c     c4_wwtp3.obj
 0003:00026fa0       $SG33211                   00000001800a6fa0     c4_wwtp3.obj
 0003:00026fa8       $SG33212                   00000001800a6fa8     c4_wwtp3.obj
 0003:00026fb4       $SG33213                   00000001800a6fb4     c4_wwtp3.obj
 0003:00026fbc       $SG33215                   00000001800a6fbc     c4_wwtp3.obj
 0003:00026fc0       $SG33216                   00000001800a6fc0     c4_wwtp3.obj
 0003:00026fc4       $SG33217                   00000001800a6fc4     c4_wwtp3.obj
 0003:00026fc8       $SG33218                   00000001800a6fc8     c4_wwtp3.obj
 0003:00026fd0       $SG33219                   00000001800a6fd0     c4_wwtp3.obj
 0003:00026fdc       $SG33220                   00000001800a6fdc     c4_wwtp3.obj
 0003:00026fe4       $SG33222                   00000001800a6fe4     c4_wwtp3.obj
 0003:00026fe8       $SG33223                   00000001800a6fe8     c4_wwtp3.obj
 0003:00026fec       $SG33224                   00000001800a6fec     c4_wwtp3.obj
 0003:00026ff0       $SG33225                   00000001800a6ff0     c4_wwtp3.obj
 0003:00026ff8       $SG33226                   00000001800a6ff8     c4_wwtp3.obj
 0003:00027004       $SG33227                   00000001800a7004     c4_wwtp3.obj
 0003:0002700c       $SG33231                   00000001800a700c     c4_wwtp3.obj
 0003:00027010       $SG33232                   00000001800a7010     c4_wwtp3.obj
 0003:00027014       ?c4_b_cv@?1??c4_h_strcmp@@9@9 00000001800a7014     c4_wwtp3.obj
 0003:0002701c       $SG33357                   00000001800a701c     c4_wwtp3.obj
 0003:00027020       $SG33233                   00000001800a7020     c4_wwtp3.obj
 0003:00027028       $SG33234                   00000001800a7028     c4_wwtp3.obj
 0003:00027034       $SG33235                   00000001800a7034     c4_wwtp3.obj
 0003:0002703c       $SG33358                   00000001800a703c     c4_wwtp3.obj
 0003:00027040       $SG33359                   00000001800a7040     c4_wwtp3.obj
 0003:00027044       $SG33364                   00000001800a7044     c4_wwtp3.obj
 0003:00027048       $SG33360                   00000001800a7048     c4_wwtp3.obj
 0003:00027050       $SG33361                   00000001800a7050     c4_wwtp3.obj
 0003:0002705c       $SG33362                   00000001800a705c     c4_wwtp3.obj
 0003:00027064       $SG33365                   00000001800a7064     c4_wwtp3.obj
 0003:00027068       $SG33366                   00000001800a7068     c4_wwtp3.obj
 0003:0002706c       $SG33371                   00000001800a706c     c4_wwtp3.obj
 0003:00027070       $SG33367                   00000001800a7070     c4_wwtp3.obj
 0003:00027078       $SG33368                   00000001800a7078     c4_wwtp3.obj
 0003:00027084       $SG33369                   00000001800a7084     c4_wwtp3.obj
 0003:0002708c       $SG33372                   00000001800a708c     c4_wwtp3.obj
 0003:00027090       $SG33373                   00000001800a7090     c4_wwtp3.obj
 0003:00027094       $SG33378                   00000001800a7094     c4_wwtp3.obj
 0003:00027098       $SG33374                   00000001800a7098     c4_wwtp3.obj
 0003:000270a0       $SG33375                   00000001800a70a0     c4_wwtp3.obj
 0003:000270ac       $SG33376                   00000001800a70ac     c4_wwtp3.obj
 0003:000270b4       $SG33379                   00000001800a70b4     c4_wwtp3.obj
 0003:000270b8       $SG33380                   00000001800a70b8     c4_wwtp3.obj
 0003:000270bc       $SG33778                   00000001800a70bc     c4_wwtp3.obj
 0003:000270c0       $SG33381                   00000001800a70c0     c4_wwtp3.obj
 0003:000270c8       $SG33382                   00000001800a70c8     c4_wwtp3.obj
 0003:000270d4       $SG33383                   00000001800a70d4     c4_wwtp3.obj
 0003:000270dc       $SG33779                   00000001800a70dc     c4_wwtp3.obj
 0003:000270e0       ?c4_b_cv@?1??c4_Modbus_getWriteResponse@@9@9 00000001800a70e0     c4_wwtp3.obj
 0003:00027108       ?c4_b_cv1@?1??c4_Modbus_getWriteResponse@@9@9 00000001800a7108     c4_wwtp3.obj
 0003:00027130       ?c4_b_cv7@?1??c4_Modbus_getWriteResponse@@9@9 00000001800a7130     c4_wwtp3.obj
 0003:00027158       ?c4_b_cv8@?1??c4_Modbus_getWriteResponse@@9@9 00000001800a7158     c4_wwtp3.obj
 0003:00027180       ?c4_b_cv2@?1??c4_Modbus_getWriteResponse@@9@9 00000001800a7180     c4_wwtp3.obj
 0003:0002719c       $SG33780                   00000001800a719c     c4_wwtp3.obj
 0003:000271a0       ?c4_b_cv3@?1??c4_Modbus_getWriteResponse@@9@9 00000001800a71a0     c4_wwtp3.obj
 0003:000271b8       ?c4_b_cv6@?1??c4_Modbus_getWriteResponse@@9@9 00000001800a71b8     c4_wwtp3.obj
 0003:000271cc       ?c4_b_cv10@?1??c4_Modbus_getWriteResponse@@9@9 00000001800a71cc     c4_wwtp3.obj
 0003:000271d4       ?c4_b_cv4@?1??c4_Modbus_getWriteResponse@@9@9 00000001800a71d4     c4_wwtp3.obj
 0003:000271dc       ?c4_b_cv5@?1??c4_Modbus_getWriteResponse@@9@9 00000001800a71dc     c4_wwtp3.obj
 0003:000271e4       ?c4_b_cv9@?1??c4_Modbus_getWriteResponse@@9@9 00000001800a71e4     c4_wwtp3.obj
 0003:000271ec       $SG33768                   00000001800a71ec     c4_wwtp3.obj
 0003:000271f4       $SG33781                   00000001800a71f4     c4_wwtp3.obj
 0003:000271f8       $SG33766                   00000001800a71f8     c4_wwtp3.obj
 0003:00027210       $SG33782                   00000001800a7210     c4_wwtp3.obj
 0003:00027218       $SG33783                   00000001800a7218     c4_wwtp3.obj
 0003:00027224       $SG33784                   00000001800a7224     c4_wwtp3.obj
 0003:0002722c       $SG33799                   00000001800a722c     c4_wwtp3.obj
 0003:00027230       $SG33800                   00000001800a7230     c4_wwtp3.obj
 0003:00027234       $SG33805                   00000001800a7234     c4_wwtp3.obj
 0003:00027238       $SG33801                   00000001800a7238     c4_wwtp3.obj
 0003:00027240       $SG33802                   00000001800a7240     c4_wwtp3.obj
 0003:0002724c       $SG33803                   00000001800a724c     c4_wwtp3.obj
 0003:00027254       $SG33806                   00000001800a7254     c4_wwtp3.obj
 0003:00027258       $SG33807                   00000001800a7258     c4_wwtp3.obj
 0003:00027260       $SG33808                   00000001800a7260     c4_wwtp3.obj
 0003:0002726c       $SG33809                   00000001800a726c     c4_wwtp3.obj
 0003:00027274       $SG33816                   00000001800a7274     c4_wwtp3.obj
 0003:00027278       $SG33817                   00000001800a7278     c4_wwtp3.obj
 0003:0002727c       $SG33818                   00000001800a727c     c4_wwtp3.obj
 0003:00027280       $SG33819                   00000001800a7280     c4_wwtp3.obj
 0003:00027284       $SG33835                   00000001800a7284     c4_wwtp3.obj
 0003:00027288       $SG33820                   00000001800a7288     c4_wwtp3.obj
 0003:00027290       $SG33821                   00000001800a7290     c4_wwtp3.obj
 0003:0002729c       $SG33822                   00000001800a729c     c4_wwtp3.obj
 0003:000272a4       $SG33836                   00000001800a72a4     c4_wwtp3.obj
 0003:000272a8       $SG33837                   00000001800a72a8     c4_wwtp3.obj
 0003:000272ac       $SG33838                   00000001800a72ac     c4_wwtp3.obj
 0003:000272b0       $SG33839                   00000001800a72b0     c4_wwtp3.obj
 0003:000272b8       $SG33840                   00000001800a72b8     c4_wwtp3.obj
 0003:000272c4       $SG33841                   00000001800a72c4     c4_wwtp3.obj
 0003:000272cc       $SG33853                   00000001800a72cc     c4_wwtp3.obj
 0003:000272d0       $SG33854                   00000001800a72d0     c4_wwtp3.obj
 0003:000272d4       $SG33856                   00000001800a72d4     c4_wwtp3.obj
 0003:000272d8       $SG33855                   00000001800a72d8     c4_wwtp3.obj
 0003:000272f0       $SG33857                   00000001800a72f0     c4_wwtp3.obj
 0003:00027308       $SG33858                   00000001800a7308     c4_wwtp3.obj
 0003:00027310       $SG33859                   00000001800a7310     c4_wwtp3.obj
 0003:0002731c       $SG33860                   00000001800a731c     c4_wwtp3.obj
 0003:00027324       $SG33862                   00000001800a7324     c4_wwtp3.obj
 0003:00027328       $SG33863                   00000001800a7328     c4_wwtp3.obj
 0003:0002732c       ?c4_b_cv@?1??c4_AsyncIOTransportChannel_get_StructData@@9@9 00000001800a732c     c4_wwtp3.obj
 0003:00027334       $SG34036                   00000001800a7334     c4_wwtp3.obj
 0003:00027338       $SG34037                   00000001800a7338     c4_wwtp3.obj
 0003:0002733c       $SG34038                   00000001800a733c     c4_wwtp3.obj
 0003:00027340       $SG34039                   00000001800a7340     c4_wwtp3.obj
 0003:00027348       $SG34040                   00000001800a7348     c4_wwtp3.obj
 0003:00027354       $SG34041                   00000001800a7354     c4_wwtp3.obj
 0003:0002735c       $SG34043                   00000001800a735c     c4_wwtp3.obj
 0003:00027360       $SG34044                   00000001800a7360     c4_wwtp3.obj
 0003:00027364       $SG34045                   00000001800a7364     c4_wwtp3.obj
 0003:00027368       $SG34046                   00000001800a7368     c4_wwtp3.obj
 0003:00027370       $SG34047                   00000001800a7370     c4_wwtp3.obj
 0003:0002737c       $SG34048                   00000001800a737c     c4_wwtp3.obj
 0003:00027384       $SG34050                   00000001800a7384     c4_wwtp3.obj
 0003:00027388       $SG34051                   00000001800a7388     c4_wwtp3.obj
 0003:0002738c       $SG34052                   00000001800a738c     c4_wwtp3.obj
 0003:00027390       $SG34053                   00000001800a7390     c4_wwtp3.obj
 0003:00027398       $SG34054                   00000001800a7398     c4_wwtp3.obj
 0003:000273a4       $SG34055                   00000001800a73a4     c4_wwtp3.obj
 0003:000273ac       $SG34057                   00000001800a73ac     c4_wwtp3.obj
 0003:000273b0       $SG34058                   00000001800a73b0     c4_wwtp3.obj
 0003:000273b4       $SG34059                   00000001800a73b4     c4_wwtp3.obj
 0003:000273b8       $SG34060                   00000001800a73b8     c4_wwtp3.obj
 0003:000273c0       $SG34061                   00000001800a73c0     c4_wwtp3.obj
 0003:000273cc       $SG34062                   00000001800a73cc     c4_wwtp3.obj
 0003:000273d4       $SG34203                   00000001800a73d4     c4_wwtp3.obj
 0003:000273d8       ?c4_b_cv2@?1??c4_AsyncIOTransportChannel_readRaw@@9@9 00000001800a73d8     c4_wwtp3.obj
 0003:00027400       ?c4_b_cv@?1??c4_AsyncIOTransportChannel_readRaw@@9@9 00000001800a7400     c4_wwtp3.obj
 0003:00027420       ?c4_b_cv1@?1??c4_AsyncIOTransportChannel_readRaw@@9@9 00000001800a7420     c4_wwtp3.obj
 0003:00027428       $SG34204                   00000001800a7428     c4_wwtp3.obj
 0003:0002742c       $SG34209                   00000001800a742c     c4_wwtp3.obj
 0003:00027430       $SG34210                   00000001800a7430     c4_wwtp3.obj
 0003:00027434       $SG34220                   00000001800a7434     c4_wwtp3.obj
 0003:00027438       $SG34211                   00000001800a7438     c4_wwtp3.obj
 0003:00027440       $SG34212                   00000001800a7440     c4_wwtp3.obj
 0003:0002744c       $SG34213                   00000001800a744c     c4_wwtp3.obj
 0003:00027454       $SG34221                   00000001800a7454     c4_wwtp3.obj
 0003:00027458       $SG34222                   00000001800a7458     c4_wwtp3.obj
 0003:00027460       $SG34223                   00000001800a7460     c4_wwtp3.obj
 0003:0002746c       $SG34224                   00000001800a746c     c4_wwtp3.obj
 0003:00027474       $SG34226                   00000001800a7474     c4_wwtp3.obj
 0003:00027478       $SG34227                   00000001800a7478     c4_wwtp3.obj
 0003:0002747c       $SG34552                   00000001800a747c     c4_wwtp3.obj
 0003:00027480       $SG34228                   00000001800a7480     c4_wwtp3.obj
 0003:00027488       $SG34229                   00000001800a7488     c4_wwtp3.obj
 0003:00027494       $SG34230                   00000001800a7494     c4_wwtp3.obj
 0003:0002749c       $SG34553                   00000001800a749c     c4_wwtp3.obj
 0003:000274a0       ?c4_b_cv@?1??c4_BufferChannel_readRaw@@9@9 00000001800a74a0     c4_wwtp3.obj
 0003:000274dc       $SG34556                   00000001800a74dc     c4_wwtp3.obj
 0003:000274e4       $SG34576                   00000001800a74e4     c4_wwtp3.obj
 0003:000274e8       ?c4_b_cv1@?1??c4_BufferChannel_readRaw@@9@9 00000001800a74e8     c4_wwtp3.obj
 0003:00027510       ?c4_b_cv2@?1??c4_BufferChannel_readRaw@@9@9 00000001800a7510     c4_wwtp3.obj
 0003:00027538       $SG34554                   00000001800a7538     c4_wwtp3.obj
 0003:00027540       $SG34555                   00000001800a7540     c4_wwtp3.obj
 0003:0002754c       $SG34577                   00000001800a754c     c4_wwtp3.obj
 0003:00027550       $SG34578                   00000001800a7550     c4_wwtp3.obj
 0003:00027558       $SG34579                   00000001800a7558     c4_wwtp3.obj
 0003:00027564       $SG34580                   00000001800a7564     c4_wwtp3.obj
 0003:0002756c       $SG34586                   00000001800a756c     c4_wwtp3.obj
 0003:00027570       $SG34587                   00000001800a7570     c4_wwtp3.obj
 0003:00027574       $SG34613                   00000001800a7574     c4_wwtp3.obj
 0003:00027578       $SG34588                   00000001800a7578     c4_wwtp3.obj
 0003:00027580       $SG34589                   00000001800a7580     c4_wwtp3.obj
 0003:0002758c       $SG34590                   00000001800a758c     c4_wwtp3.obj
 0003:00027594       $SG34614                   00000001800a7594     c4_wwtp3.obj
 0003:00027598       $SG34615                   00000001800a7598     c4_wwtp3.obj
 0003:000275a0       $SG34616                   00000001800a75a0     c4_wwtp3.obj
 0003:000275ac       $SG34617                   00000001800a75ac     c4_wwtp3.obj
 0003:000275b4       $SG34623                   00000001800a75b4     c4_wwtp3.obj
 0003:000275b8       $SG34624                   00000001800a75b8     c4_wwtp3.obj
 0003:000275bc       $SG34779                   00000001800a75bc     c4_wwtp3.obj
 0003:000275c0       $SG34625                   00000001800a75c0     c4_wwtp3.obj
 0003:000275c8       $SG34626                   00000001800a75c8     c4_wwtp3.obj
 0003:000275d4       $SG34627                   00000001800a75d4     c4_wwtp3.obj
 0003:000275dc       $SG34780                   00000001800a75dc     c4_wwtp3.obj
 0003:000275e0       $SG34781                   00000001800a75e0     c4_wwtp3.obj
 0003:000275e8       $SG34782                   00000001800a75e8     c4_wwtp3.obj
 0003:000275f4       $SG34783                   00000001800a75f4     c4_wwtp3.obj
 0003:000275fc       $SG34908                   00000001800a75fc     c4_wwtp3.obj
 0003:00027600       ?c4_iv@?1??c4_InputStream_read@@9@9 00000001800a7600     c4_wwtp3.obj
 0003:00027608       $SG34909                   00000001800a7608     c4_wwtp3.obj
 0003:0002760c       $SG34918                   00000001800a760c     c4_wwtp3.obj
 0003:00027610       $SG34910                   00000001800a7610     c4_wwtp3.obj
 0003:00027618       $SG34911                   00000001800a7618     c4_wwtp3.obj
 0003:00027624       $SG34912                   00000001800a7624     c4_wwtp3.obj
 0003:0002762c       $SG34919                   00000001800a762c     c4_wwtp3.obj
 0003:00027630       $SG34920                   00000001800a7630     c4_wwtp3.obj
 0003:00027638       $SG34921                   00000001800a7638     c4_wwtp3.obj
 0003:00027644       $SG34922                   00000001800a7644     c4_wwtp3.obj
 0003:0002764c       ?c4_b_cv1@?1??c4_b_Stream_wait@@9@9 00000001800a764c     c4_wwtp3.obj
 0003:00027654       ?c4_b_cv2@?1??c4_b_Stream_wait@@9@9 00000001800a7654     c4_wwtp3.obj
 0003:0002765c       ?c4_b_cv3@?1??c4_b_Stream_wait@@9@9 00000001800a765c     c4_wwtp3.obj
 0003:00027664       ?c4_b_cv@?1??c4_b_Stream_wait@@9@9 00000001800a7664     c4_wwtp3.obj
 0003:00027668       $SG35233                   00000001800a7668     c4_wwtp3.obj
 0003:0002766c       $SG35234                   00000001800a766c     c4_wwtp3.obj
 0003:00027670       $SG35235                   00000001800a7670     c4_wwtp3.obj
 0003:00027674       $SG35236                   00000001800a7674     c4_wwtp3.obj
 0003:00027678       ?c4_b_cv@?1??c4_InputStream_readPackets@@9@9 00000001800a7678     c4_wwtp3.obj
 0003:00027694       $SG35500                   00000001800a7694     c4_wwtp3.obj
 0003:00027698       ?c4_b_cv1@?1??c4_InputStream_readPackets@@9@9 00000001800a7698     c4_wwtp3.obj
 0003:000276b0       $SG35501                   00000001800a76b0     c4_wwtp3.obj
 0003:000276b4       $SG35502                   00000001800a76b4     c4_wwtp3.obj
 0003:000276b8       $SG35503                   00000001800a76b8     c4_wwtp3.obj
 0003:000276bc       $SG35510                   00000001800a76bc     c4_wwtp3.obj
 0003:000276c0       $SG35504                   00000001800a76c0     c4_wwtp3.obj
 0003:000276c8       $SG35505                   00000001800a76c8     c4_wwtp3.obj
 0003:000276d4       $SG35506                   00000001800a76d4     c4_wwtp3.obj
 0003:000276dc       $SG35511                   00000001800a76dc     c4_wwtp3.obj
 0003:000276e0       $SG35512                   00000001800a76e0     c4_wwtp3.obj
 0003:000276e8       $SG35513                   00000001800a76e8     c4_wwtp3.obj
 0003:000276f4       $SG35514                   00000001800a76f4     c4_wwtp3.obj
 0003:000276fc       $SG35518                   00000001800a76fc     c4_wwtp3.obj
 0003:00027700       $SG35519                   00000001800a7700     c4_wwtp3.obj
 0003:00027708       $SG35539                   00000001800a7708     c4_wwtp3.obj
 0003:00027710       ?c4_b_cv@?1??c4_cat@@9@9   00000001800a7710     c4_wwtp3.obj
 0003:00027738       $SG35630                   00000001800a7738     c4_wwtp3.obj
 0003:0002773c       $SG35631                   00000001800a773c     c4_wwtp3.obj
 0003:00027740       $SG35632                   00000001800a7740     c4_wwtp3.obj
 0003:00027748       $SG35633                   00000001800a7748     c4_wwtp3.obj
 0003:00027754       $SG35634                   00000001800a7754     c4_wwtp3.obj
 0003:0002775c       $SG35640                   00000001800a775c     c4_wwtp3.obj
 0003:00027760       $SG35641                   00000001800a7760     c4_wwtp3.obj
 0003:00027764       $SG35669                   00000001800a7764     c4_wwtp3.obj
 0003:00027768       $SG35642                   00000001800a7768     c4_wwtp3.obj
 0003:00027770       $SG35643                   00000001800a7770     c4_wwtp3.obj
 0003:0002777c       $SG35644                   00000001800a777c     c4_wwtp3.obj
 0003:00027784       $SG35670                   00000001800a7784     c4_wwtp3.obj
 0003:00027788       ?c4_b_cv@?1??c4_check_forloop_overflow_error@@9@9 00000001800a7788     c4_wwtp3.obj
 0003:000277ac       ?c4_b_cv1@?1??c4_check_forloop_overflow_error@@9@9 00000001800a77ac     c4_wwtp3.obj
 0003:000277b4       $SG35671                   00000001800a77b4     c4_wwtp3.obj
 0003:000277b8       $SG35672                   00000001800a77b8     c4_wwtp3.obj
 0003:000277c0       $SG35673                   00000001800a77c0     c4_wwtp3.obj
 0003:000277cc       $SG35674                   00000001800a77cc     c4_wwtp3.obj
 0003:000277d4       $SG35809                   00000001800a77d4     c4_wwtp3.obj
 0003:000277d8       ?c4_iv@?1??c4_b_InputStream_read@@9@9 00000001800a77d8     c4_wwtp3.obj
 0003:000277e0       $SG35810                   00000001800a77e0     c4_wwtp3.obj
 0003:000277e4       $SG35819                   00000001800a77e4     c4_wwtp3.obj
 0003:000277e8       $SG35811                   00000001800a77e8     c4_wwtp3.obj
 0003:000277f0       $SG35812                   00000001800a77f0     c4_wwtp3.obj
 0003:000277fc       $SG35813                   00000001800a77fc     c4_wwtp3.obj
 0003:00027804       $SG35820                   00000001800a7804     c4_wwtp3.obj
 0003:00027808       $SG35821                   00000001800a7808     c4_wwtp3.obj
 0003:00027810       $SG35822                   00000001800a7810     c4_wwtp3.obj
 0003:0002781c       $SG35823                   00000001800a781c     c4_wwtp3.obj
 0003:00027824       ?c4_b_cv2@?1??c4_BufferChannel_write@@9@9 00000001800a7824     c4_wwtp3.obj
 0003:00027828       ?c4_b_cv1@?1??c4_BufferChannel_write@@9@9 00000001800a7828     c4_wwtp3.obj
 0003:00027858       ?c4_b_cv4@?1??c4_BufferChannel_write@@9@9 00000001800a7858     c4_wwtp3.obj
 0003:00027888       ?c4_b_cv@?1??c4_BufferChannel_write@@9@9 00000001800a7888     c4_wwtp3.obj
 0003:000278b0       ?c4_b_cv3@?1??c4_BufferChannel_write@@9@9 00000001800a78b0     c4_wwtp3.obj
 0003:000278d4       ?c4_b_cv5@?1??c4_BufferChannel_write@@9@9 00000001800a78d4     c4_wwtp3.obj
 0003:000278d8       ?c4_b_cv6@?1??c4_BufferChannel_write@@9@9 00000001800a78d8     c4_wwtp3.obj
 0003:000278fc       $SG35983                   00000001800a78fc     c4_wwtp3.obj
 0003:00027900       $SG35984                   00000001800a7900     c4_wwtp3.obj
 0003:00027904       $SG35985                   00000001800a7904     c4_wwtp3.obj
 0003:00027908       $SG35986                   00000001800a7908     c4_wwtp3.obj
 0003:00027910       $SG35987                   00000001800a7910     c4_wwtp3.obj
 0003:0002791c       $SG35988                   00000001800a791c     c4_wwtp3.obj
 0003:00027924       $SG35990                   00000001800a7924     c4_wwtp3.obj
 0003:00027928       $SG35991                   00000001800a7928     c4_wwtp3.obj
 0003:0002792c       $SG35992                   00000001800a792c     c4_wwtp3.obj
 0003:00027930       $SG35993                   00000001800a7930     c4_wwtp3.obj
 0003:00027938       $SG35994                   00000001800a7938     c4_wwtp3.obj
 0003:00027944       $SG35995                   00000001800a7944     c4_wwtp3.obj
 0003:0002794c       $SG36005                   00000001800a794c     c4_wwtp3.obj
 0003:00027954       $SG36012                   00000001800a7954     c4_wwtp3.obj
 0003:00027958       $SG36013                   00000001800a7958     c4_wwtp3.obj
 0003:0002795c       $SG36129                   00000001800a795c     c4_wwtp3.obj
 0003:00027960       $SG36014                   00000001800a7960     c4_wwtp3.obj
 0003:00027968       $SG36015                   00000001800a7968     c4_wwtp3.obj
 0003:00027974       $SG36016                   00000001800a7974     c4_wwtp3.obj
 0003:0002797c       ?c4_b_cv@?1??c4_i_strcmp@@9@9 00000001800a797c     c4_wwtp3.obj
 0003:00027984       $SG36130                   00000001800a7984     c4_wwtp3.obj
 0003:00027988       $SG36131                   00000001800a7988     c4_wwtp3.obj
 0003:0002798c       $SG36136                   00000001800a798c     c4_wwtp3.obj
 0003:00027990       $SG36132                   00000001800a7990     c4_wwtp3.obj
 0003:00027998       $SG36133                   00000001800a7998     c4_wwtp3.obj
 0003:000279a4       $SG36134                   00000001800a79a4     c4_wwtp3.obj
 0003:000279ac       $SG36137                   00000001800a79ac     c4_wwtp3.obj
 0003:000279b0       $SG36138                   00000001800a79b0     c4_wwtp3.obj
 0003:000279b4       $SG36143                   00000001800a79b4     c4_wwtp3.obj
 0003:000279b8       $SG36139                   00000001800a79b8     c4_wwtp3.obj
 0003:000279c0       $SG36140                   00000001800a79c0     c4_wwtp3.obj
 0003:000279cc       $SG36141                   00000001800a79cc     c4_wwtp3.obj
 0003:000279d4       $SG36144                   00000001800a79d4     c4_wwtp3.obj
 0003:000279d8       $SG36145                   00000001800a79d8     c4_wwtp3.obj
 0003:000279dc       $SG36150                   00000001800a79dc     c4_wwtp3.obj
 0003:000279e0       $SG36146                   00000001800a79e0     c4_wwtp3.obj
 0003:000279e8       $SG36147                   00000001800a79e8     c4_wwtp3.obj
 0003:000279f4       $SG36148                   00000001800a79f4     c4_wwtp3.obj
 0003:000279fc       $SG36151                   00000001800a79fc     c4_wwtp3.obj
 0003:00027a00       $SG36152                   00000001800a7a00     c4_wwtp3.obj
 0003:00027a04       $SG36196                   00000001800a7a04     c4_wwtp3.obj
 0003:00027a08       $SG36153                   00000001800a7a08     c4_wwtp3.obj
 0003:00027a10       $SG36154                   00000001800a7a10     c4_wwtp3.obj
 0003:00027a1c       $SG36155                   00000001800a7a1c     c4_wwtp3.obj
 0003:00027a24       $SG36197                   00000001800a7a24     c4_wwtp3.obj
 0003:00027a28       $SG36198                   00000001800a7a28     c4_wwtp3.obj
 0003:00027a30       $SG36199                   00000001800a7a30     c4_wwtp3.obj
 0003:00027a3c       $SG36200                   00000001800a7a3c     c4_wwtp3.obj
 0003:00027a44       $SG36402                   00000001800a7a44     c4_wwtp3.obj
 0003:00027a48       ?c4_b_cv3@?1??c4_Modbus_translateandGenerateServerError@@9@9 00000001800a7a48     c4_wwtp3.obj
 0003:00027a70       ?c4_b_cv4@?1??c4_Modbus_translateandGenerateServerError@@9@9 00000001800a7a70     c4_wwtp3.obj
 0003:00027a98       ?c4_b_cv7@?1??c4_Modbus_translateandGenerateServerError@@9@9 00000001800a7a98     c4_wwtp3.obj
 0003:00027abc       $SG36403                   00000001800a7abc     c4_wwtp3.obj
 0003:00027ac0       ?c4_b_cv@?1??c4_Modbus_translateandGenerateServerError@@9@9 00000001800a7ac0     c4_wwtp3.obj
 0003:00027ae0       ?c4_b_cv5@?1??c4_Modbus_translateandGenerateServerError@@9@9 00000001800a7ae0     c4_wwtp3.obj
 0003:00027b00       ?c4_b_cv1@?1??c4_Modbus_translateandGenerateServerError@@9@9 00000001800a7b00     c4_wwtp3.obj
 0003:00027b20       ?c4_b_cv2@?1??c4_Modbus_translateandGenerateServerError@@9@9 00000001800a7b20     c4_wwtp3.obj
 0003:00027b40       ?c4_b_cv6@?1??c4_Modbus_translateandGenerateServerError@@9@9 00000001800a7b40     c4_wwtp3.obj
 0003:00027b60       $SG36404                   00000001800a7b60     c4_wwtp3.obj
 0003:00027b68       $SG36405                   00000001800a7b68     c4_wwtp3.obj
 0003:00027b74       $SG36406                   00000001800a7b74     c4_wwtp3.obj
 0003:00027b7c       $SG36407                   00000001800a7b7c     c4_wwtp3.obj
 0003:00027b80       $SG36408                   00000001800a7b80     c4_wwtp3.obj
 0003:00027b84       $SG36409                   00000001800a7b84     c4_wwtp3.obj
 0003:00027b88       $SG36410                   00000001800a7b88     c4_wwtp3.obj
 0003:00027b90       $SG36411                   00000001800a7b90     c4_wwtp3.obj
 0003:00027b9c       $SG36412                   00000001800a7b9c     c4_wwtp3.obj
 0003:00027ba4       $SG36416                   00000001800a7ba4     c4_wwtp3.obj
 0003:00027ba8       $SG36417                   00000001800a7ba8     c4_wwtp3.obj
 0003:00027bac       $SG36421                   00000001800a7bac     c4_wwtp3.obj
 0003:00027bb0       $SG36418                   00000001800a7bb0     c4_wwtp3.obj
 0003:00027bb8       $SG36419                   00000001800a7bb8     c4_wwtp3.obj
 0003:00027bc4       $SG36420                   00000001800a7bc4     c4_wwtp3.obj
 0003:00027bcc       $SG36422                   00000001800a7bcc     c4_wwtp3.obj
 0003:00027bd0       $SG36423                   00000001800a7bd0     c4_wwtp3.obj
 0003:00027bd8       $SG36424                   00000001800a7bd8     c4_wwtp3.obj
 0003:00027be4       $SG36425                   00000001800a7be4     c4_wwtp3.obj
 0003:00027bec       $SG36427                   00000001800a7bec     c4_wwtp3.obj
 0003:00027bf0       $SG36428                   00000001800a7bf0     c4_wwtp3.obj
 0003:00027bf4       $SG36435                   00000001800a7bf4     c4_wwtp3.obj
 0003:00027bf8       $SG36429                   00000001800a7bf8     c4_wwtp3.obj
 0003:00027c00       $SG36430                   00000001800a7c00     c4_wwtp3.obj
 0003:00027c0c       $SG36431                   00000001800a7c0c     c4_wwtp3.obj
 0003:00027c14       $SG36436                   00000001800a7c14     c4_wwtp3.obj
 0003:00027c18       $SG36437                   00000001800a7c18     c4_wwtp3.obj
 0003:00027c20       $SG36438                   00000001800a7c20     c4_wwtp3.obj
 0003:00027c2c       $SG36439                   00000001800a7c2c     c4_wwtp3.obj
 0003:00027c34       $SG36440                   00000001800a7c34     c4_wwtp3.obj
 0003:00027c38       $SG36441                   00000001800a7c38     c4_wwtp3.obj
 0003:00027c3c       $SG36446                   00000001800a7c3c     c4_wwtp3.obj
 0003:00027c40       $SG36442                   00000001800a7c40     c4_wwtp3.obj
 0003:00027c48       $SG36443                   00000001800a7c48     c4_wwtp3.obj
 0003:00027c54       $SG36444                   00000001800a7c54     c4_wwtp3.obj
 0003:00027c5c       $SG36447                   00000001800a7c5c     c4_wwtp3.obj
 0003:00027c60       $SG36448                   00000001800a7c60     c4_wwtp3.obj
 0003:00027c68       $SG36449                   00000001800a7c68     c4_wwtp3.obj
 0003:00027c74       $SG36450                   00000001800a7c74     c4_wwtp3.obj
 0003:00027c7c       $SG36452                   00000001800a7c7c     c4_wwtp3.obj
 0003:00027c80       $SG36453                   00000001800a7c80     c4_wwtp3.obj
 0003:00027c84       $SG36454                   00000001800a7c84     c4_wwtp3.obj
 0003:00027c88       $SG36455                   00000001800a7c88     c4_wwtp3.obj
 0003:00027c90       $SG36456                   00000001800a7c90     c4_wwtp3.obj
 0003:00027c9c       $SG36457                   00000001800a7c9c     c4_wwtp3.obj
 0003:00027ca4       $SG36490                   00000001800a7ca4     c4_wwtp3.obj
 0003:00027ca8       ?c4_iv@?1??c4_Modbus_isReadFunction@@9@9 00000001800a7ca8     c4_wwtp3.obj
 0003:00027cb0       $SG36491                   00000001800a7cb0     c4_wwtp3.obj
 0003:00027cb4       ?c4_b_cv@?1??c4_warning@@9@9 00000001800a7cb4     c4_wwtp3.obj
 0003:00027cbc       $SG36612                   00000001800a7cbc     c4_wwtp3.obj
 0003:00027cc0       $SG36492                   00000001800a7cc0     c4_wwtp3.obj
 0003:00027cc8       $SG36493                   00000001800a7cc8     c4_wwtp3.obj
 0003:00027cd4       $SG36494                   00000001800a7cd4     c4_wwtp3.obj
 0003:00027cdc       ?c4_b_cv1@?1??c4_warning@@9@9 00000001800a7cdc     c4_wwtp3.obj
 0003:00027ce4       $SG36613                   00000001800a7ce4     c4_wwtp3.obj
 0003:00027ce8       ?c4_msgID@?1??c4_warning@@9@9 00000001800a7ce8     c4_wwtp3.obj
 0003:00027d10       $SG36614                   00000001800a7d10     c4_wwtp3.obj
 0003:00027d14       ?c4_bv1@?1??c4_d_emlrt_marshallIn@@9@9 00000001800a7d14     c4_wwtp3.obj
 0003:00027d18       $SG36700                   00000001800a7d18     c4_wwtp3.obj
 0003:00027d28       ?c4_bv1@?1??c4_f_emlrt_marshallIn@@9@9 00000001800a7d28     c4_wwtp3.obj
 0003:00027d2c       $SG36884                   00000001800a7d2c     c4_wwtp3.obj
 0003:00027d34       $SG36886                   00000001800a7d34     c4_wwtp3.obj
 0003:00027d3c       $SG36888                   00000001800a7d3c     c4_wwtp3.obj
 0003:00027d44       $SG36890                   00000001800a7d44     c4_wwtp3.obj
 0003:00027d4c       $SG36907                   00000001800a7d4c     c4_wwtp3.obj
 0003:00027d54       $SG36920                   00000001800a7d54     c4_wwtp3.obj
 0003:00027d5c       $SG36933                   00000001800a7d5c     c4_wwtp3.obj
 0003:00027d60       $SG36948                   00000001800a7d60     c4_wwtp3.obj
 0003:00027d6c       $SG36974                   00000001800a7d6c     c4_wwtp3.obj
 0003:00027d74       $SG37056                   00000001800a7d74     c4_wwtp3.obj
 0003:00027d78       $SG36959                   00000001800a7d78     c4_wwtp3.obj
 0003:00027d88       $SG36987                   00000001800a7d88     c4_wwtp3.obj
 0003:00027dac       $SG37002                   00000001800a7dac     c4_wwtp3.obj
 0003:00027db8       $SG37015                   00000001800a7db8     c4_wwtp3.obj
 0003:00027ddc       $SG37030                   00000001800a7ddc     c4_wwtp3.obj
 0003:00027de8       $SG37043                   00000001800a7de8     c4_wwtp3.obj
 0003:00027e10       $SG37071                   00000001800a7e10     c4_wwtp3.obj
 0003:00027e20       $SG37082                   00000001800a7e20     c4_wwtp3.obj
 0003:00027e2c       $SG37097                   00000001800a7e2c     c4_wwtp3.obj
 0003:00027e38       $SG37110                   00000001800a7e38     c4_wwtp3.obj
 0003:00027e5c       $SG37125                   00000001800a7e5c     c4_wwtp3.obj
 0003:00027e68       $SG37138                   00000001800a7e68     c4_wwtp3.obj
 0003:00027e8c       $SG37153                   00000001800a7e8c     c4_wwtp3.obj
 0003:00027e98       $SG37166                   00000001800a7e98     c4_wwtp3.obj
 0003:00027ec0       $SG37177                   00000001800a7ec0     c4_wwtp3.obj
 0003:00027ee8       $SG37189                   00000001800a7ee8     c4_wwtp3.obj
 0003:00027ef0       $SG37204                   00000001800a7ef0     c4_wwtp3.obj
 0003:00027ef8       $SG37216                   00000001800a7ef8     c4_wwtp3.obj
 0003:00027f00       $SG38211                   00000001800a7f00     c4_wwtp3.obj
 0003:00027f30       $SG38212                   00000001800a7f30     c4_wwtp3.obj
 0003:00027f70       $SG38213                   00000001800a7f70     c4_wwtp3.obj
 0003:00027f98       $SG38214                   00000001800a7f98     c4_wwtp3.obj
 0003:00027fc0       $SG38226                   00000001800a7fc0     c4_wwtp3.obj
 0003:00027fd0       $SG38228                   00000001800a7fd0     c4_wwtp3.obj
 0003:00027fe0       $SG38230                   00000001800a7fe0     c4_wwtp3.obj
 0003:00027ff8       $SG38232                   00000001800a7ff8     c4_wwtp3.obj
 0003:00028010       $SG38234                   00000001800a8010     c4_wwtp3.obj
 0003:00028024       $SG38235                   00000001800a8024     c4_wwtp3.obj
 0003:00028030       $SG38236                   00000001800a8030     c4_wwtp3.obj
 0003:00028038       $SG38239                   00000001800a8038     c4_wwtp3.obj
 0003:00028040       $SG38252                   00000001800a8040     c4_wwtp3.obj
 0003:00028050       $SG38254                   00000001800a8050     c4_wwtp3.obj
 0003:00028058       $SG38385                   00000001800a8058     c4_wwtp3.obj
 0003:00028090       $SG38255                   00000001800a8090     c4_wwtp3.obj
 0003:00028138       $SG38398                   00000001800a8138     c4_wwtp3.obj
 0003:00028148       $SG38399                   00000001800a8148     c4_wwtp3.obj
 0003:00028160       $SG38347                   00000001800a8160     c4_wwtp3.obj
 0003:000281b0       $SG38349                   00000001800a81b0     c4_wwtp3.obj
 0003:00028200       $SG38351                   00000001800a8200     c4_wwtp3.obj
 0003:00028250       $SG38353                   00000001800a8250     c4_wwtp3.obj
 0003:000282a0       $SG38355                   00000001800a82a0     c4_wwtp3.obj
 0003:000282f0       $SG38357                   00000001800a82f0     c4_wwtp3.obj
 0003:00028340       $SG38359                   00000001800a8340     c4_wwtp3.obj
 0003:00028390       $SG38361                   00000001800a8390     c4_wwtp3.obj
 0003:000283e0       $SG38363                   00000001800a83e0     c4_wwtp3.obj
 0003:00028430       $SG38365                   00000001800a8430     c4_wwtp3.obj
 0003:00028480       $SG38367                   00000001800a8480     c4_wwtp3.obj
 0003:000284d0       $SG38369                   00000001800a84d0     c4_wwtp3.obj
 0003:00028520       $SG38371                   00000001800a8520     c4_wwtp3.obj
 0003:00028570       $SG38373                   00000001800a8570     c4_wwtp3.obj
 0003:000285c0       $SG38375                   00000001800a85c0     c4_wwtp3.obj
 0003:00028610       $SG38377                   00000001800a8610     c4_wwtp3.obj
 0003:00028660       $SG38379                   00000001800a8660     c4_wwtp3.obj
 0003:000286b0       $SG38381                   00000001800a86b0     c4_wwtp3.obj
 0003:00028700       $SG38383                   00000001800a8700     c4_wwtp3.obj
 0003:00028750       $SG38421                   00000001800a8750     c4_wwtp3.obj
 0003:00028780       $SG38436                   00000001800a8780     c4_wwtp3.obj
 0003:000287e8       $SG25675                   00000001800a87e8     wwtp3_sfun_registry.obj
 0003:00028804       $SG25677                   00000001800a8804     wwtp3_sfun_registry.obj
 0003:0002880c       $SG25998                   00000001800a880c     wwtp3_sfun_registry.obj
 0003:00028814       $SG27862                   00000001800a8814     wwtp3_sfun_registry.obj
 0003:00028818       $SG25713                   00000001800a8818     wwtp3_sfun_registry.obj
 0003:00028830       $SG25715                   00000001800a8830     wwtp3_sfun_registry.obj
 0003:00028838       $SG25751                   00000001800a8838     wwtp3_sfun_registry.obj
 0003:00028850       $SG25753                   00000001800a8850     wwtp3_sfun_registry.obj
 0003:00028858       $SG25789                   00000001800a8858     wwtp3_sfun_registry.obj
 0003:00028878       $SG25791                   00000001800a8878     wwtp3_sfun_registry.obj
 0003:00028880       $SG25827                   00000001800a8880     wwtp3_sfun_registry.obj
 0003:000288a0       $SG25829                   00000001800a88a0     wwtp3_sfun_registry.obj
 0003:000288a8       $SG25849                   00000001800a88a8     wwtp3_sfun_registry.obj
 0003:000288b8       $SG25867                   00000001800a88b8     wwtp3_sfun_registry.obj
 0003:000288d0       $SG25898                   00000001800a88d0     wwtp3_sfun_registry.obj
 0003:000288d8       $SG25999                   00000001800a88d8     wwtp3_sfun_registry.obj
 0003:000288ec       $SG26004                   00000001800a88ec     wwtp3_sfun_registry.obj
 0003:000288f4       $SG27943                   00000001800a88f4     wwtp3_sfun_registry.obj
 0003:000288f8       $SG26005                   00000001800a88f8     wwtp3_sfun_registry.obj
 0003:00028914       $SG26775                   00000001800a8914     wwtp3_sfun_registry.obj
 0003:0002891c       $SG28361                   00000001800a891c     wwtp3_sfun_registry.obj
 0003:00028928       $SG26147                   00000001800a8928     wwtp3_sfun_registry.obj
 0003:00028950       _sfcnName                  00000001800a8950     wwtp3_sfun_registry.obj
 0003:00028970       $SG26164                   00000001800a8970     wwtp3_sfun_registry.obj
 0003:000289e8       $SG26568                   00000001800a89e8     wwtp3_sfun_registry.obj
 0003:000289f0       $SG26569                   00000001800a89f0     wwtp3_sfun_registry.obj
 0003:000289f8       $SG26583                   00000001800a89f8     wwtp3_sfun_registry.obj
 0003:00028a08       $SG26773                   00000001800a8a08     wwtp3_sfun_registry.obj
 0003:00028a48       $SG26774                   00000001800a8a48     wwtp3_sfun_registry.obj
 0003:00028a58       $SG26781                   00000001800a8a58     wwtp3_sfun_registry.obj
 0003:00028a60       $SG26779                   00000001800a8a60     wwtp3_sfun_registry.obj
 0003:00028aa8       $SG26780                   00000001800a8aa8     wwtp3_sfun_registry.obj
 0003:00028ab8       $SG26784                   00000001800a8ab8     wwtp3_sfun_registry.obj
 0003:00028ac0       $SG26782                   00000001800a8ac0     wwtp3_sfun_registry.obj
 0003:00028b18       $SG26783                   00000001800a8b18     wwtp3_sfun_registry.obj
 0003:00028b28       $SG26806                   00000001800a8b28     wwtp3_sfun_registry.obj
 0003:00028b68       $SG26807                   00000001800a8b68     wwtp3_sfun_registry.obj
 0003:00028b78       $SG26808                   00000001800a8b78     wwtp3_sfun_registry.obj
 0003:00028b80       $SG26812                   00000001800a8b80     wwtp3_sfun_registry.obj
 0003:00028bc8       $SG26813                   00000001800a8bc8     wwtp3_sfun_registry.obj
 0003:00028bd8       $SG26814                   00000001800a8bd8     wwtp3_sfun_registry.obj
 0003:00028be0       $SG26815                   00000001800a8be0     wwtp3_sfun_registry.obj
 0003:00028c38       $SG26816                   00000001800a8c38     wwtp3_sfun_registry.obj
 0003:00028c48       $SG26817                   00000001800a8c48     wwtp3_sfun_registry.obj
 0003:00028c50       $SG26841                   00000001800a8c50     wwtp3_sfun_registry.obj
 0003:00028ca0       $SG26842                   00000001800a8ca0     wwtp3_sfun_registry.obj
 0003:00028cb0       $SG26843                   00000001800a8cb0     wwtp3_sfun_registry.obj
 0003:00028cb8       $SG26856                   00000001800a8cb8     wwtp3_sfun_registry.obj
 0003:00028cc0       $SG26855                   00000001800a8cc0     wwtp3_sfun_registry.obj
 0003:00028d20       $SG26857                   00000001800a8d20     wwtp3_sfun_registry.obj
 0003:00028d28       $SG26870                   00000001800a8d28     wwtp3_sfun_registry.obj
 0003:00028d30       $SG26869                   00000001800a8d30     wwtp3_sfun_registry.obj
 0003:00028d90       $SG26871                   00000001800a8d90     wwtp3_sfun_registry.obj
 0003:00028d98       $SG27846                   00000001800a8d98     wwtp3_sfun_registry.obj
 0003:00028db0       $SG27224                   00000001800a8db0     wwtp3_sfun_registry.obj
 0003:00028e28       $SG27917                   00000001800a8e28     wwtp3_sfun_registry.obj
 0003:00028e30       $SG27227                   00000001800a8e30     wwtp3_sfun_registry.obj
 0003:00028ea4       $SG27918                   00000001800a8ea4     wwtp3_sfun_registry.obj
 0003:00028eb0       $SG27232                   00000001800a8eb0     wwtp3_sfun_registry.obj
 0003:00028f28       $SG27919                   00000001800a8f28     wwtp3_sfun_registry.obj
 0003:00028f30       $SG27240                   00000001800a8f30     wwtp3_sfun_registry.obj
 0003:00028fa0       $SG27515                   00000001800a8fa0     wwtp3_sfun_registry.obj
 0003:00029018       $SG27925                   00000001800a9018     wwtp3_sfun_registry.obj
 0003:00029020       $SG27520                   00000001800a9020     wwtp3_sfun_registry.obj
 0003:00029098       $SG27928                   00000001800a9098     wwtp3_sfun_registry.obj
 0003:000290a0       $SG27859                   00000001800a90a0     wwtp3_sfun_registry.obj
 0003:00029118       $SG27931                   00000001800a9118     wwtp3_sfun_registry.obj
 0003:00029120       $SG27920                   00000001800a9120     wwtp3_sfun_registry.obj
 0003:00029198       $SG27937                   00000001800a9198     wwtp3_sfun_registry.obj
 0003:000291a0       $SG27922                   00000001800a91a0     wwtp3_sfun_registry.obj
 0003:00029220       $SG27932                   00000001800a9220     wwtp3_sfun_registry.obj
 0003:000292a0       $SG27933                   00000001800a92a0     wwtp3_sfun_registry.obj
 0003:000292b0       $SG27935                   00000001800a92b0     wwtp3_sfun_registry.obj
 0003:000292bc       $SG27939                   00000001800a92bc     wwtp3_sfun_registry.obj
 0003:000292c8       $SG27941                   00000001800a92c8     wwtp3_sfun_registry.obj
 0003:000292d8       $SG28064                   00000001800a92d8     wwtp3_sfun_registry.obj
 0003:00029308       $SG28066                   00000001800a9308     wwtp3_sfun_registry.obj
 0003:00029310       $SG27946                   00000001800a9310     wwtp3_sfun_registry.obj
 0003:000293f8       $SG28065                   00000001800a93f8     wwtp3_sfun_registry.obj
 0003:00029408       $SG28068                   00000001800a9408     wwtp3_sfun_registry.obj
 0003:00029440       $SG28069                   00000001800a9440     wwtp3_sfun_registry.obj
 0003:00029450       $SG28070                   00000001800a9450     wwtp3_sfun_registry.obj
 0003:00029458       $SG28073                   00000001800a9458     wwtp3_sfun_registry.obj
 0003:00029490       $SG28074                   00000001800a9490     wwtp3_sfun_registry.obj
 0003:000294a0       $SG28075                   00000001800a94a0     wwtp3_sfun_registry.obj
 0003:000294a8       $SG28077                   00000001800a94a8     wwtp3_sfun_registry.obj
 0003:000294e0       $SG28078                   00000001800a94e0     wwtp3_sfun_registry.obj
 0003:000294f0       $SG28079                   00000001800a94f0     wwtp3_sfun_registry.obj
 0003:000294f8       $SG28081                   00000001800a94f8     wwtp3_sfun_registry.obj
 0003:00029530       $SG28082                   00000001800a9530     wwtp3_sfun_registry.obj
 0003:00029540       $SG28083                   00000001800a9540     wwtp3_sfun_registry.obj
 0003:00029548       $SG28086                   00000001800a9548     wwtp3_sfun_registry.obj
 0003:00029550       $SG28088                   00000001800a9550     wwtp3_sfun_registry.obj
 0003:00029568       $SG28089                   00000001800a9568     wwtp3_sfun_registry.obj
 0003:000295a0       $SG28090                   00000001800a95a0     wwtp3_sfun_registry.obj
 0003:000295b0       $SG28091                   00000001800a95b0     wwtp3_sfun_registry.obj
 0003:000295b8       $SG28261                   00000001800a95b8     wwtp3_sfun_registry.obj
 0003:000295d8       $SG28268                   00000001800a95d8     wwtp3_sfun_registry.obj
 0003:000295f0       $SG28262                   00000001800a95f0     wwtp3_sfun_registry.obj
 0003:00029680       $SG28269                   00000001800a9680     wwtp3_sfun_registry.obj
 0003:00029710       $SG28275                   00000001800a9710     wwtp3_sfun_registry.obj
 0003:00029728       $SG28294                   00000001800a9728     wwtp3_sfun_registry.obj
 0003:00029748       $SG28299                   00000001800a9748     wwtp3_sfun_registry.obj
 0003:00029770       $SG28276                   00000001800a9770     wwtp3_sfun_registry.obj
 0003:00029800       $SG28282                   00000001800a9800     wwtp3_sfun_registry.obj
 0003:00029820       $SG28283                   00000001800a9820     wwtp3_sfun_registry.obj
 0003:000298b0       $SG28289                   00000001800a98b0     wwtp3_sfun_registry.obj
 0003:000298d0       $SG28290                   00000001800a98d0     wwtp3_sfun_registry.obj
 0003:00029960       $SG28295                   00000001800a9960     wwtp3_sfun_registry.obj
 0003:000299f0       $SG28300                   00000001800a99f0     wwtp3_sfun_registry.obj
 0003:00029a80       $SG28304                   00000001800a9a80     wwtp3_sfun_registry.obj
 0003:00029aa8       $SG28319                   00000001800a9aa8     wwtp3_sfun_registry.obj
 0003:00029ac0       $SG28305                   00000001800a9ac0     wwtp3_sfun_registry.obj
 0003:00029b50       $SG28309                   00000001800a9b50     wwtp3_sfun_registry.obj
 0003:00029b70       $SG28310                   00000001800a9b70     wwtp3_sfun_registry.obj
 0003:00029c00       $SG28314                   00000001800a9c00     wwtp3_sfun_registry.obj
 0003:00029c20       $SG28315                   00000001800a9c20     wwtp3_sfun_registry.obj
 0003:00029cb0       $SG28320                   00000001800a9cb0     wwtp3_sfun_registry.obj
 0003:00029d40       $SG28324                   00000001800a9d40     wwtp3_sfun_registry.obj
 0003:00029d60       $SG28325                   00000001800a9d60     wwtp3_sfun_registry.obj
 0003:00029df0       $SG28329                   00000001800a9df0     wwtp3_sfun_registry.obj
 0003:00029e10       $SG28330                   00000001800a9e10     wwtp3_sfun_registry.obj
 0003:00029ea0       $SG28334                   00000001800a9ea0     wwtp3_sfun_registry.obj
 0003:00029ec0       $SG28335                   00000001800a9ec0     wwtp3_sfun_registry.obj
 0003:00029f50       $SG28339                   00000001800a9f50     wwtp3_sfun_registry.obj
 0003:00029f70       $SG28340                   00000001800a9f70     wwtp3_sfun_registry.obj
 0003:0002a000       $SG28344                   00000001800aa000     wwtp3_sfun_registry.obj
 0003:0002a020       $SG28345                   00000001800aa020     wwtp3_sfun_registry.obj
 0003:0002a0b0       $SG28349                   00000001800aa0b0     wwtp3_sfun_registry.obj
 0003:0002a0d0       $SG28350                   00000001800aa0d0     wwtp3_sfun_registry.obj
 0003:0002a160       $SG28355                   00000001800aa160     wwtp3_sfun_registry.obj
 0003:0002a178       $SG28366                   00000001800aa178     wwtp3_sfun_registry.obj
 0003:0002a190       $SG28356                   00000001800aa190     wwtp3_sfun_registry.obj
 0003:0002a220       $SG28362                   00000001800aa220     wwtp3_sfun_registry.obj
 0003:0002a2b0       $SG28367                   00000001800aa2b0     wwtp3_sfun_registry.obj
 0003:0002a340       $SG28371                   00000001800aa340     wwtp3_sfun_registry.obj
 0003:0002a350       $SG28372                   00000001800aa350     wwtp3_sfun_registry.obj
 0003:0002a3e0       $SG28376                   00000001800aa3e0     wwtp3_sfun_registry.obj
 0003:0002a400       $SG28377                   00000001800aa400     wwtp3_sfun_registry.obj
 0003:0002a490       $SG28381                   00000001800aa490     wwtp3_sfun_registry.obj
 0003:0002a4b0       $SG28382                   00000001800aa4b0     wwtp3_sfun_registry.obj
 0003:0002a540       $SG28386                   00000001800aa540     wwtp3_sfun_registry.obj
 0003:0002a550       $SG28387                   00000001800aa550     wwtp3_sfun_registry.obj
 0003:0002a5e0       $SG28391                   00000001800aa5e0     wwtp3_sfun_registry.obj
 0003:0002a5f0       $SG28392                   00000001800aa5f0     wwtp3_sfun_registry.obj
 0003:0002a680       $SG28396                   00000001800aa680     wwtp3_sfun_registry.obj
 0003:0002a698       $SG28401                   00000001800aa698     wwtp3_sfun_registry.obj
 0003:0002a6b0       $SG28397                   00000001800aa6b0     wwtp3_sfun_registry.obj
 0003:0002a740       $SG28402                   00000001800aa740     wwtp3_sfun_registry.obj
 0003:0002a7d0       $SG28406                   00000001800aa7d0     wwtp3_sfun_registry.obj
 0003:0002a7e0       $SG28407                   00000001800aa7e0     wwtp3_sfun_registry.obj
 0003:0002a870       $SG28415                   00000001800aa870     wwtp3_sfun_registry.obj
 0003:0002a880       $SG28416                   00000001800aa880     wwtp3_sfun_registry.obj
 0003:0002a910       $SG28422                   00000001800aa910     wwtp3_sfun_registry.obj
 0003:0002a920       $SG28423                   00000001800aa920     wwtp3_sfun_registry.obj
 0003:0002a9b0       $SG28427                   00000001800aa9b0     wwtp3_sfun_registry.obj
 0003:0002a9c0       $SG28428                   00000001800aa9c0     wwtp3_sfun_registry.obj
 0003:0002aa50       $SG28433                   00000001800aaa50     wwtp3_sfun_registry.obj
 0003:0002aa60       $SG28434                   00000001800aaa60     wwtp3_sfun_registry.obj
 0003:0002aaf0       $SG28438                   00000001800aaaf0     wwtp3_sfun_registry.obj
 0003:0002ab68       $SG28481                   00000001800aab68     wwtp3_sfun_registry.obj
 0003:0002ab78       $SG28562                   00000001800aab78     wwtp3_sfun_registry.obj
 0003:0002ab80       $SG28468                   00000001800aab80     wwtp3_sfun_registry.obj
 0003:0002ac98       $SG28492                   00000001800aac98     wwtp3_sfun_registry.obj
 0003:0002aca8       $SG28505                   00000001800aaca8     wwtp3_sfun_registry.obj
 0003:0002acb8       $SG28516                   00000001800aacb8     wwtp3_sfun_registry.obj
 0003:0002acc8       $SG28529                   00000001800aacc8     wwtp3_sfun_registry.obj
 0003:0002acd8       $SG28540                   00000001800aacd8     wwtp3_sfun_registry.obj
 0003:0002ace8       $SG28550                   00000001800aace8     wwtp3_sfun_registry.obj
 0003:0002ad08       $SG28561                   00000001800aad08     wwtp3_sfun_registry.obj
 0003:0002ad38       $SG28563                   00000001800aad38     wwtp3_sfun_registry.obj
 0003:0002ad40       $SG28574                   00000001800aad40     wwtp3_sfun_registry.obj
 0003:0002ad78       $SG28575                   00000001800aad78     wwtp3_sfun_registry.obj
 0003:0002ad80       $SG28576                   00000001800aad80     wwtp3_sfun_registry.obj
 0003:0002ade0       sRtwOptimizationInfoStruct 00000001800aade0     wwtp3_sfun.obj
 0003:0002ade8       sOptimizationInfoFlags     00000001800aade8     wwtp3_sfun.obj
 0003:0002adf0       $SG27579                   00000001800aadf0     c2_wwtp3.obj
 0003:0002adf1       $SG27583                   00000001800aadf1     c2_wwtp3.obj
 0003:0002adf2       $SG27587                   00000001800aadf2     c2_wwtp3.obj
 0003:0002adf3       $SG27591                   00000001800aadf3     c2_wwtp3.obj
 0003:0002adf4       $SG27601                   00000001800aadf4     c2_wwtp3.obj
 0003:0002adf5       $SG27617                   00000001800aadf5     c2_wwtp3.obj
 0003:0002adf6       $SG27636                   00000001800aadf6     c2_wwtp3.obj
 0003:0002adf7       $SG27640                   00000001800aadf7     c2_wwtp3.obj
 0003:0002adf8       $SG27644                   00000001800aadf8     c2_wwtp3.obj
 0003:0002adf9       $SG27648                   00000001800aadf9     c2_wwtp3.obj
 0003:0002adfa       $SG27655                   00000001800aadfa     c2_wwtp3.obj
 0003:0002adfb       $SG27662                   00000001800aadfb     c2_wwtp3.obj
 0003:0002adfc       $SG27669                   00000001800aadfc     c2_wwtp3.obj
 0003:0002adfd       $SG27676                   00000001800aadfd     c2_wwtp3.obj
 0003:0002adfe       $SG27680                   00000001800aadfe     c2_wwtp3.obj
 0003:0002adff       $SG27687                   00000001800aadff     c2_wwtp3.obj
 0003:0002ae00       $SG27694                   00000001800aae00     c2_wwtp3.obj
 0003:0002ae01       $SG27701                   00000001800aae01     c2_wwtp3.obj
 0003:0002ae02       $SG27708                   00000001800aae02     c2_wwtp3.obj
 0003:0002ae03       $SG27718                   00000001800aae03     c2_wwtp3.obj
 0003:0002ae04       $SG27725                   00000001800aae04     c2_wwtp3.obj
 0003:0002ae05       $SG27729                   00000001800aae05     c2_wwtp3.obj
 0003:0002ae06       $SG27739                   00000001800aae06     c2_wwtp3.obj
 0003:0002ae07       $SG27743                   00000001800aae07     c2_wwtp3.obj
 0003:0002ae08       $SG27750                   00000001800aae08     c2_wwtp3.obj
 0003:0002ae09       $SG27754                   00000001800aae09     c2_wwtp3.obj
 0003:0002ae0a       $SG27758                   00000001800aae0a     c2_wwtp3.obj
 0003:0002ae0b       $SG27762                   00000001800aae0b     c2_wwtp3.obj
 0003:0002ae0c       $SG27766                   00000001800aae0c     c2_wwtp3.obj
 0003:0002ae0d       $SG27773                   00000001800aae0d     c2_wwtp3.obj
 0003:0002ae0e       $SG29315                   00000001800aae0e     c2_wwtp3.obj
 0003:0002ae0f       $SG35387                   00000001800aae0f     c2_wwtp3.obj
 0003:0002ae10       _sfTime_                   00000001800aae10     c2_wwtp3.obj
 0003:0002ae18       ?c2_streamLimits@?1??c2_TCPClient_initializeChannel@@9@9 00000001800aae18     c2_wwtp3.obj
 0003:0002ae28       $SG38275                   00000001800aae28     c2_wwtp3.obj
 0003:0002ae29       $SG38276                   00000001800aae29     c2_wwtp3.obj
 0003:0002ae2a       $SG38427                   00000001800aae2a     c2_wwtp3.obj
 0003:0002ae30       ?newstr@?1??sf_c2_wwtp3_get_post_codegen_info@@9@9 00000001800aae30     c2_wwtp3.obj
 0003:0002b430       $SG27561                   00000001800ab430     c4_wwtp3.obj
 0003:0002b431       $SG27565                   00000001800ab431     c4_wwtp3.obj
 0003:0002b432       $SG27569                   00000001800ab432     c4_wwtp3.obj
 0003:0002b433       $SG27573                   00000001800ab433     c4_wwtp3.obj
 0003:0002b434       $SG27577                   00000001800ab434     c4_wwtp3.obj
 0003:0002b435       $SG27593                   00000001800ab435     c4_wwtp3.obj
 0003:0002b436       $SG27597                   00000001800ab436     c4_wwtp3.obj
 0003:0002b437       $SG27604                   00000001800ab437     c4_wwtp3.obj
 0003:0002b438       $SG27614                   00000001800ab438     c4_wwtp3.obj
 0003:0002b439       $SG27618                   00000001800ab439     c4_wwtp3.obj
 0003:0002b43a       $SG27622                   00000001800ab43a     c4_wwtp3.obj
 0003:0002b43b       $SG27629                   00000001800ab43b     c4_wwtp3.obj
 0003:0002b43c       $SG27636                   00000001800ab43c     c4_wwtp3.obj
 0003:0002b43d       $SG27643                   00000001800ab43d     c4_wwtp3.obj
 0003:0002b43e       $SG27650                   00000001800ab43e     c4_wwtp3.obj
 0003:0002b43f       $SG27654                   00000001800ab43f     c4_wwtp3.obj
 0003:0002b440       $SG27661                   00000001800ab440     c4_wwtp3.obj
 0003:0002b441       $SG27668                   00000001800ab441     c4_wwtp3.obj
 0003:0002b442       $SG27675                   00000001800ab442     c4_wwtp3.obj
 0003:0002b443       $SG27682                   00000001800ab443     c4_wwtp3.obj
 0003:0002b444       $SG27692                   00000001800ab444     c4_wwtp3.obj
 0003:0002b445       $SG27699                   00000001800ab445     c4_wwtp3.obj
 0003:0002b446       $SG27703                   00000001800ab446     c4_wwtp3.obj
 0003:0002b447       $SG27713                   00000001800ab447     c4_wwtp3.obj
 0003:0002b448       $SG27717                   00000001800ab448     c4_wwtp3.obj
 0003:0002b449       $SG27724                   00000001800ab449     c4_wwtp3.obj
 0003:0002b44a       $SG27728                   00000001800ab44a     c4_wwtp3.obj
 0003:0002b44b       $SG27732                   00000001800ab44b     c4_wwtp3.obj
 0003:0002b44c       $SG27736                   00000001800ab44c     c4_wwtp3.obj
 0003:0002b44d       $SG29285                   00000001800ab44d     c4_wwtp3.obj
 0003:0002b44e       $SG35540                   00000001800ab44e     c4_wwtp3.obj
 0003:0002b44f       $SG38237                   00000001800ab44f     c4_wwtp3.obj
 0003:0002b450       _sfTime_                   00000001800ab450     c4_wwtp3.obj
 0003:0002b458       ?c4_streamLimits@?1??c4_TCPClient_initializeChannel@@9@9 00000001800ab458     c4_wwtp3.obj
 0003:0002b468       $SG38238                   00000001800ab468     c4_wwtp3.obj
 0003:0002b469       $SG38387                   00000001800ab469     c4_wwtp3.obj
 0003:0002b470       ?newstr@?1??sf_c4_wwtp3_get_post_codegen_info@@9@9 00000001800ab470     c4_wwtp3.obj
 0003:0002ba38       sfGlobalMdlStartCallCounts 00000001800aba38     wwtp3_sfun_registry.obj
 0003:0002ba3c       $SG27913                   00000001800aba3c     wwtp3_sfun_registry.obj
 0003:0002ba3e       ?warningGuard@?1??ssGetRootSS@@9@9 00000001800aba3e     wwtp3_sfun_registry.obj
 0003:0002ba3f       ?warningGuard@?1??ssGetParentSS@@9@9 00000001800aba3f     wwtp3_sfun_registry.obj
 0003:0002ba40       GS_ExceptionRecord         00000001800aba40     MSVCRT:gs_report.obj
 0003:0002bae0       GS_ContextRecord           00000001800abae0     MSVCRT:gs_report.obj
 0003:0002bfb0       ?__proc_attached@@3HA      00000001800abfb0     MSVCRT:dll_dllmain.obj
 0003:0002bff0       ?is_initialized_as_dll@@3_NA 00000001800abff0     MSVCRT:utility.obj
 0003:0002bff1       ?module_local_atexit_table_initialized@@3_NA 00000001800abff1     MSVCRT:utility.obj
 0003:0002bff8       ?module_local_atexit_table@@3U_onexit_table_t@@A 00000001800abff8     MSVCRT:utility.obj
 0003:0002c010       ?module_local_at_quick_exit_table@@3U_onexit_table_t@@A 00000001800ac010     MSVCRT:utility.obj
